Archive member included to satisfy reference by file (symbol)

/var/folders/hj/xvmq845d4rq0_l026j3g6x8c0000gn/T/arduino-core-cache/core_0bde13c9a0eea2bfdc716a2fc04bccd4.a(exc.S.o)
                              (__exc_nmi)
/var/folders/hj/xvmq845d4rq0_l026j3g6x8c0000gn/T/arduino-core-cache/core_0bde13c9a0eea2bfdc716a2fc04bccd4.a(isrs.S.o)
                              (__stm32reservedexception7)
/var/folders/hj/xvmq845d4rq0_l026j3g6x8c0000gn/T/arduino-core-cache/core_0bde13c9a0eea2bfdc716a2fc04bccd4.a(vector_table.S.o)
                              (__stm32_vector_table)
/var/folders/hj/xvmq845d4rq0_l026j3g6x8c0000gn/T/arduino-core-cache/core_0bde13c9a0eea2bfdc716a2fc04bccd4.a(adc.c.o)
                              /var/folders/hj/xvmq845d4rq0_l026j3g6x8c0000gn/T/arduino-sketch-783AC80E8B34696ACA1CC87DB6CF7DB3/core/wirish/boards.cpp.o (adc_set_sample_rate)
/var/folders/hj/xvmq845d4rq0_l026j3g6x8c0000gn/T/arduino-core-cache/core_0bde13c9a0eea2bfdc716a2fc04bccd4.a(adc_f1.c.o)
                              /var/folders/hj/xvmq845d4rq0_l026j3g6x8c0000gn/T/arduino-core-cache/core_0bde13c9a0eea2bfdc716a2fc04bccd4.a(vector_table.S.o) (__irq_adc)
/var/folders/hj/xvmq845d4rq0_l026j3g6x8c0000gn/T/arduino-core-cache/core_0bde13c9a0eea2bfdc716a2fc04bccd4.a(dma_f1.c.o)
                              /var/folders/hj/xvmq845d4rq0_l026j3g6x8c0000gn/T/arduino-core-cache/core_0bde13c9a0eea2bfdc716a2fc04bccd4.a(vector_table.S.o) (__irq_dma1_channel1)
/var/folders/hj/xvmq845d4rq0_l026j3g6x8c0000gn/T/arduino-core-cache/core_0bde13c9a0eea2bfdc716a2fc04bccd4.a(exti.c.o)
                              /var/folders/hj/xvmq845d4rq0_l026j3g6x8c0000gn/T/arduino-core-cache/core_0bde13c9a0eea2bfdc716a2fc04bccd4.a(vector_table.S.o) (__irq_exti0)
/var/folders/hj/xvmq845d4rq0_l026j3g6x8c0000gn/T/arduino-core-cache/core_0bde13c9a0eea2bfdc716a2fc04bccd4.a(exti_f1.c.o)
                              /var/folders/hj/xvmq845d4rq0_l026j3g6x8c0000gn/T/arduino-core-cache/core_0bde13c9a0eea2bfdc716a2fc04bccd4.a(exti.c.o) (exti_select)
/var/folders/hj/xvmq845d4rq0_l026j3g6x8c0000gn/T/arduino-core-cache/core_0bde13c9a0eea2bfdc716a2fc04bccd4.a(flash.c.o)
                              /var/folders/hj/xvmq845d4rq0_l026j3g6x8c0000gn/T/arduino-sketch-783AC80E8B34696ACA1CC87DB6CF7DB3/core/wirish/boards.cpp.o (flash_set_latency)
/var/folders/hj/xvmq845d4rq0_l026j3g6x8c0000gn/T/arduino-core-cache/core_0bde13c9a0eea2bfdc716a2fc04bccd4.a(gpio_f1.c.o)
                              /var/folders/hj/xvmq845d4rq0_l026j3g6x8c0000gn/T/arduino-sketch-783AC80E8B34696ACA1CC87DB6CF7DB3/core/wirish/boards_setup.cpp.o (gpio_init_all)
/var/folders/hj/xvmq845d4rq0_l026j3g6x8c0000gn/T/arduino-core-cache/core_0bde13c9a0eea2bfdc716a2fc04bccd4.a(i2c_f1.c.o)
                              /var/folders/hj/xvmq845d4rq0_l026j3g6x8c0000gn/T/arduino-core-cache/core_0bde13c9a0eea2bfdc716a2fc04bccd4.a(vector_table.S.o) (__irq_i2c1_ev)
/var/folders/hj/xvmq845d4rq0_l026j3g6x8c0000gn/T/arduino-core-cache/core_0bde13c9a0eea2bfdc716a2fc04bccd4.a(nvic.c.o)
                              /var/folders/hj/xvmq845d4rq0_l026j3g6x8c0000gn/T/arduino-core-cache/core_0bde13c9a0eea2bfdc716a2fc04bccd4.a(i2c_f1.c.o) (nvic_irq_set_priority)
/var/folders/hj/xvmq845d4rq0_l026j3g6x8c0000gn/T/arduino-core-cache/core_0bde13c9a0eea2bfdc716a2fc04bccd4.a(rcc.c.o)
                              /var/folders/hj/xvmq845d4rq0_l026j3g6x8c0000gn/T/arduino-sketch-783AC80E8B34696ACA1CC87DB6CF7DB3/core/wirish/boards.cpp.o (rcc_switch_sysclk)
/var/folders/hj/xvmq845d4rq0_l026j3g6x8c0000gn/T/arduino-core-cache/core_0bde13c9a0eea2bfdc716a2fc04bccd4.a(rcc_f1.c.o)
                              /var/folders/hj/xvmq845d4rq0_l026j3g6x8c0000gn/T/arduino-sketch-783AC80E8B34696ACA1CC87DB6CF7DB3/core/wirish/boards.cpp.o (rcc_configure_pll)
/var/folders/hj/xvmq845d4rq0_l026j3g6x8c0000gn/T/arduino-core-cache/core_0bde13c9a0eea2bfdc716a2fc04bccd4.a(systick.c.o)
                              /var/folders/hj/xvmq845d4rq0_l026j3g6x8c0000gn/T/arduino-sketch-783AC80E8B34696ACA1CC87DB6CF7DB3/core/wirish/boards.cpp.o (systick_init)
/var/folders/hj/xvmq845d4rq0_l026j3g6x8c0000gn/T/arduino-core-cache/core_0bde13c9a0eea2bfdc716a2fc04bccd4.a(timer.c.o)
                              /var/folders/hj/xvmq845d4rq0_l026j3g6x8c0000gn/T/arduino-sketch-783AC80E8B34696ACA1CC87DB6CF7DB3/core/wirish/boards.cpp.o (timer_foreach)
/var/folders/hj/xvmq845d4rq0_l026j3g6x8c0000gn/T/arduino-core-cache/core_0bde13c9a0eea2bfdc716a2fc04bccd4.a(usart_f1.c.o)
                              /var/folders/hj/xvmq845d4rq0_l026j3g6x8c0000gn/T/arduino-core-cache/core_0bde13c9a0eea2bfdc716a2fc04bccd4.a(vector_table.S.o) (__irq_usart1)
/var/folders/hj/xvmq845d4rq0_l026j3g6x8c0000gn/T/arduino-core-cache/core_0bde13c9a0eea2bfdc716a2fc04bccd4.a(usart_private.c.o)
                              /var/folders/hj/xvmq845d4rq0_l026j3g6x8c0000gn/T/arduino-core-cache/core_0bde13c9a0eea2bfdc716a2fc04bccd4.a(usart_f1.c.o) (_usart_clock_freq)
/var/folders/hj/xvmq845d4rq0_l026j3g6x8c0000gn/T/arduino-core-cache/core_0bde13c9a0eea2bfdc716a2fc04bccd4.a(usb.c.o)
                              /var/folders/hj/xvmq845d4rq0_l026j3g6x8c0000gn/T/arduino-core-cache/core_0bde13c9a0eea2bfdc716a2fc04bccd4.a(vector_table.S.o) (__irq_usb_lp_can_rx0)
/var/folders/hj/xvmq845d4rq0_l026j3g6x8c0000gn/T/arduino-core-cache/core_0bde13c9a0eea2bfdc716a2fc04bccd4.a(usb_cdcacm.c.o)
                              /var/folders/hj/xvmq845d4rq0_l026j3g6x8c0000gn/T/arduino-core-cache/core_0bde13c9a0eea2bfdc716a2fc04bccd4.a(usb.c.o) (User_Standard_Requests)
/var/folders/hj/xvmq845d4rq0_l026j3g6x8c0000gn/T/arduino-core-cache/core_0bde13c9a0eea2bfdc716a2fc04bccd4.a(usb_reg_map.c.o)
                              /var/folders/hj/xvmq845d4rq0_l026j3g6x8c0000gn/T/arduino-core-cache/core_0bde13c9a0eea2bfdc716a2fc04bccd4.a(usb_cdcacm.c.o) (usb_set_ep_rx_count)
/var/folders/hj/xvmq845d4rq0_l026j3g6x8c0000gn/T/arduino-core-cache/core_0bde13c9a0eea2bfdc716a2fc04bccd4.a(usb_core.c.o)
                              /var/folders/hj/xvmq845d4rq0_l026j3g6x8c0000gn/T/arduino-core-cache/core_0bde13c9a0eea2bfdc716a2fc04bccd4.a(usb_cdcacm.c.o) (Standard_GetDescriptorData)
/var/folders/hj/xvmq845d4rq0_l026j3g6x8c0000gn/T/arduino-core-cache/core_0bde13c9a0eea2bfdc716a2fc04bccd4.a(usb_init.c.o)
                              /var/folders/hj/xvmq845d4rq0_l026j3g6x8c0000gn/T/arduino-core-cache/core_0bde13c9a0eea2bfdc716a2fc04bccd4.a(usb.c.o) (Device_Info)
/var/folders/hj/xvmq845d4rq0_l026j3g6x8c0000gn/T/arduino-core-cache/core_0bde13c9a0eea2bfdc716a2fc04bccd4.a(usb_mem.c.o)
                              /var/folders/hj/xvmq845d4rq0_l026j3g6x8c0000gn/T/arduino-core-cache/core_0bde13c9a0eea2bfdc716a2fc04bccd4.a(usb_core.c.o) (UserToPMABufferCopy)
/var/folders/hj/xvmq845d4rq0_l026j3g6x8c0000gn/T/arduino-core-cache/core_0bde13c9a0eea2bfdc716a2fc04bccd4.a(usb_regs.c.o)
                              /var/folders/hj/xvmq845d4rq0_l026j3g6x8c0000gn/T/arduino-core-cache/core_0bde13c9a0eea2bfdc716a2fc04bccd4.a(usb_core.c.o) (SetEPTxStatus)
/var/folders/hj/xvmq845d4rq0_l026j3g6x8c0000gn/T/arduino-core-cache/core_0bde13c9a0eea2bfdc716a2fc04bccd4.a(util.c.o)
                              /var/folders/hj/xvmq845d4rq0_l026j3g6x8c0000gn/T/arduino-core-cache/core_0bde13c9a0eea2bfdc716a2fc04bccd4.a(exc.S.o) (__error)
/var/folders/hj/xvmq845d4rq0_l026j3g6x8c0000gn/T/arduino-core-cache/core_0bde13c9a0eea2bfdc716a2fc04bccd4.a(HardwareSerial.cpp.o)
                              /var/folders/hj/xvmq845d4rq0_l026j3g6x8c0000gn/T/arduino-sketch-783AC80E8B34696ACA1CC87DB6CF7DB3/core/board.cpp.o (HardwareSerial::HardwareSerial(usart_dev*, unsigned char, unsigned char))
/var/folders/hj/xvmq845d4rq0_l026j3g6x8c0000gn/T/arduino-core-cache/core_0bde13c9a0eea2bfdc716a2fc04bccd4.a(Print.cpp.o)
                              /var/folders/hj/xvmq845d4rq0_l026j3g6x8c0000gn/T/arduino-core-cache/core_0bde13c9a0eea2bfdc716a2fc04bccd4.a(HardwareSerial.cpp.o) (Print::write(void const*, unsigned long))
/var/folders/hj/xvmq845d4rq0_l026j3g6x8c0000gn/T/arduino-core-cache/core_0bde13c9a0eea2bfdc716a2fc04bccd4.a(cxxabi-compat.cpp.o)
                              /var/folders/hj/xvmq845d4rq0_l026j3g6x8c0000gn/T/arduino-core-cache/core_0bde13c9a0eea2bfdc716a2fc04bccd4.a(Print.cpp.o) (__cxa_pure_virtual)
/var/folders/hj/xvmq845d4rq0_l026j3g6x8c0000gn/T/arduino-core-cache/core_0bde13c9a0eea2bfdc716a2fc04bccd4.a(main.cpp.o)
                              /Users/lgcampos/Library/Arduino15/packages/arduino/tools/arm-none-eabi-gcc/7-2017q4/bin/../lib/gcc/arm-none-eabi/7.2.1/../../../../arm-none-eabi/lib/thumb/v7-m/crt0.o (main)
/var/folders/hj/xvmq845d4rq0_l026j3g6x8c0000gn/T/arduino-core-cache/core_0bde13c9a0eea2bfdc716a2fc04bccd4.a(usb_serial.cpp.o)
                              /var/folders/hj/xvmq845d4rq0_l026j3g6x8c0000gn/T/arduino-sketch-783AC80E8B34696ACA1CC87DB6CF7DB3/sketch/LowMemoryExample.ino.cpp.o (USBSerial::flush())
/var/folders/hj/xvmq845d4rq0_l026j3g6x8c0000gn/T/arduino-core-cache/core_0bde13c9a0eea2bfdc716a2fc04bccd4.a(wirish_time.cpp.o)
                              /var/folders/hj/xvmq845d4rq0_l026j3g6x8c0000gn/T/arduino-sketch-783AC80E8B34696ACA1CC87DB6CF7DB3/sketch/LowMemoryExample.ino.cpp.o (delay(unsigned long))
/var/folders/hj/xvmq845d4rq0_l026j3g6x8c0000gn/T/arduino-core-cache/core_0bde13c9a0eea2bfdc716a2fc04bccd4.a(hooks.c.o)
                              /var/folders/hj/xvmq845d4rq0_l026j3g6x8c0000gn/T/arduino-core-cache/core_0bde13c9a0eea2bfdc716a2fc04bccd4.a(wirish_time.cpp.o) (yield)
/var/folders/hj/xvmq845d4rq0_l026j3g6x8c0000gn/T/arduino-core-cache/core_0bde13c9a0eea2bfdc716a2fc04bccd4.a(bkp_f1.c.o)
                              /var/folders/hj/xvmq845d4rq0_l026j3g6x8c0000gn/T/arduino-core-cache/core_0bde13c9a0eea2bfdc716a2fc04bccd4.a(usb_serial.cpp.o) (bkp_init)
/var/folders/hj/xvmq845d4rq0_l026j3g6x8c0000gn/T/arduino-core-cache/core_0bde13c9a0eea2bfdc716a2fc04bccd4.a(dma.c.o)
                              /var/folders/hj/xvmq845d4rq0_l026j3g6x8c0000gn/T/arduino-core-cache/core_0bde13c9a0eea2bfdc716a2fc04bccd4.a(dma_f1.c.o) (_dma_addr_type)
/var/folders/hj/xvmq845d4rq0_l026j3g6x8c0000gn/T/arduino-core-cache/core_0bde13c9a0eea2bfdc716a2fc04bccd4.a(gpio.c.o)
                              /var/folders/hj/xvmq845d4rq0_l026j3g6x8c0000gn/T/arduino-core-cache/core_0bde13c9a0eea2bfdc716a2fc04bccd4.a(gpio_f1.c.o) (gpio_init)
/var/folders/hj/xvmq845d4rq0_l026j3g6x8c0000gn/T/arduino-core-cache/core_0bde13c9a0eea2bfdc716a2fc04bccd4.a(i2c.c.o)
                              /var/folders/hj/xvmq845d4rq0_l026j3g6x8c0000gn/T/arduino-core-cache/core_0bde13c9a0eea2bfdc716a2fc04bccd4.a(i2c_f1.c.o) (_i2c_irq_handler)
/var/folders/hj/xvmq845d4rq0_l026j3g6x8c0000gn/T/arduino-core-cache/core_0bde13c9a0eea2bfdc716a2fc04bccd4.a(usart.c.o)
                              /var/folders/hj/xvmq845d4rq0_l026j3g6x8c0000gn/T/arduino-core-cache/core_0bde13c9a0eea2bfdc716a2fc04bccd4.a(HardwareSerial.cpp.o) (usart_init)
/Users/lgcampos/Library/Arduino15/packages/arduino/tools/arm-none-eabi-gcc/7-2017q4/bin/../lib/gcc/arm-none-eabi/7.2.1/thumb/v7-m/libgcc.a(_arm_addsubdf3.o)
                              /var/folders/hj/xvmq845d4rq0_l026j3g6x8c0000gn/T/arduino-core-cache/core_0bde13c9a0eea2bfdc716a2fc04bccd4.a(Print.cpp.o) (__aeabi_dsub)
/Users/lgcampos/Library/Arduino15/packages/arduino/tools/arm-none-eabi-gcc/7-2017q4/bin/../lib/gcc/arm-none-eabi/7.2.1/thumb/v7-m/libgcc.a(_arm_muldivdf3.o)
                              /var/folders/hj/xvmq845d4rq0_l026j3g6x8c0000gn/T/arduino-core-cache/core_0bde13c9a0eea2bfdc716a2fc04bccd4.a(Print.cpp.o) (__aeabi_dmul)
/Users/lgcampos/Library/Arduino15/packages/arduino/tools/arm-none-eabi-gcc/7-2017q4/bin/../lib/gcc/arm-none-eabi/7.2.1/thumb/v7-m/libgcc.a(_arm_cmpdf2.o)
                              /var/folders/hj/xvmq845d4rq0_l026j3g6x8c0000gn/T/arduino-core-cache/core_0bde13c9a0eea2bfdc716a2fc04bccd4.a(Print.cpp.o) (__aeabi_dcmplt)
/Users/lgcampos/Library/Arduino15/packages/arduino/tools/arm-none-eabi-gcc/7-2017q4/bin/../lib/gcc/arm-none-eabi/7.2.1/thumb/v7-m/libgcc.a(_arm_fixdfsi.o)
                              /var/folders/hj/xvmq845d4rq0_l026j3g6x8c0000gn/T/arduino-core-cache/core_0bde13c9a0eea2bfdc716a2fc04bccd4.a(Print.cpp.o) (__aeabi_d2iz)
/Users/lgcampos/Library/Arduino15/packages/arduino/tools/arm-none-eabi-gcc/7-2017q4/bin/../lib/gcc/arm-none-eabi/7.2.1/thumb/v7-m/libgcc.a(_aeabi_ldivmod.o)
                              /var/folders/hj/xvmq845d4rq0_l026j3g6x8c0000gn/T/arduino-core-cache/core_0bde13c9a0eea2bfdc716a2fc04bccd4.a(Print.cpp.o) (__aeabi_ldivmod)
/Users/lgcampos/Library/Arduino15/packages/arduino/tools/arm-none-eabi-gcc/7-2017q4/bin/../lib/gcc/arm-none-eabi/7.2.1/thumb/v7-m/libgcc.a(_aeabi_uldivmod.o)
                              /var/folders/hj/xvmq845d4rq0_l026j3g6x8c0000gn/T/arduino-core-cache/core_0bde13c9a0eea2bfdc716a2fc04bccd4.a(Print.cpp.o) (__aeabi_uldivmod)
/Users/lgcampos/Library/Arduino15/packages/arduino/tools/arm-none-eabi-gcc/7-2017q4/bin/../lib/gcc/arm-none-eabi/7.2.1/thumb/v7-m/libgcc.a(_fixdfdi.o)
                              /var/folders/hj/xvmq845d4rq0_l026j3g6x8c0000gn/T/arduino-core-cache/core_0bde13c9a0eea2bfdc716a2fc04bccd4.a(Print.cpp.o) (__aeabi_d2lz)
/Users/lgcampos/Library/Arduino15/packages/arduino/tools/arm-none-eabi-gcc/7-2017q4/bin/../lib/gcc/arm-none-eabi/7.2.1/thumb/v7-m/libgcc.a(_fixunsdfdi.o)
                              /Users/lgcampos/Library/Arduino15/packages/arduino/tools/arm-none-eabi-gcc/7-2017q4/bin/../lib/gcc/arm-none-eabi/7.2.1/thumb/v7-m/libgcc.a(_fixdfdi.o) (__aeabi_d2ulz)
/Users/lgcampos/Library/Arduino15/packages/arduino/tools/arm-none-eabi-gcc/7-2017q4/bin/../lib/gcc/arm-none-eabi/7.2.1/thumb/v7-m/libgcc.a(_udivmoddi4.o)
                              /Users/lgcampos/Library/Arduino15/packages/arduino/tools/arm-none-eabi-gcc/7-2017q4/bin/../lib/gcc/arm-none-eabi/7.2.1/thumb/v7-m/libgcc.a(_aeabi_ldivmod.o) (__udivmoddi4)
/Users/lgcampos/Library/Arduino15/packages/arduino/tools/arm-none-eabi-gcc/7-2017q4/bin/../lib/gcc/arm-none-eabi/7.2.1/thumb/v7-m/libgcc.a(_dvmd_tls.o)
                              /Users/lgcampos/Library/Arduino15/packages/arduino/tools/arm-none-eabi-gcc/7-2017q4/bin/../lib/gcc/arm-none-eabi/7.2.1/thumb/v7-m/libgcc.a(_aeabi_ldivmod.o) (__aeabi_ldiv0)
/Users/lgcampos/Library/Arduino15/packages/arduino/tools/arm-none-eabi-gcc/7-2017q4/bin/../lib/gcc/arm-none-eabi/7.2.1/thumb/v7-m/libgcc.a(_arm_fixunsdfsi.o)
                              /Users/lgcampos/Library/Arduino15/packages/arduino/tools/arm-none-eabi-gcc/7-2017q4/bin/../lib/gcc/arm-none-eabi/7.2.1/thumb/v7-m/libgcc.a(_fixunsdfdi.o) (__aeabi_d2uiz)
/Users/lgcampos/Library/Arduino15/packages/arduino/tools/arm-none-eabi-gcc/7-2017q4/bin/../lib/gcc/arm-none-eabi/7.2.1/../../../../arm-none-eabi/lib/thumb/v7-m/libc.a(lib_a-calloc.o)
                              /var/folders/hj/xvmq845d4rq0_l026j3g6x8c0000gn/T/arduino-sketch-783AC80E8B34696ACA1CC87DB6CF7DB3/libraries/CorePartition/CorePartition.c.o (calloc)
/Users/lgcampos/Library/Arduino15/packages/arduino/tools/arm-none-eabi-gcc/7-2017q4/bin/../lib/gcc/arm-none-eabi/7.2.1/../../../../arm-none-eabi/lib/thumb/v7-m/libc.a(lib_a-callocr.o)
                              /Users/lgcampos/Library/Arduino15/packages/arduino/tools/arm-none-eabi-gcc/7-2017q4/bin/../lib/gcc/arm-none-eabi/7.2.1/../../../../arm-none-eabi/lib/thumb/v7-m/libc.a(lib_a-calloc.o) (_calloc_r)
/Users/lgcampos/Library/Arduino15/packages/arduino/tools/arm-none-eabi-gcc/7-2017q4/bin/../lib/gcc/arm-none-eabi/7.2.1/../../../../arm-none-eabi/lib/thumb/v7-m/libc.a(lib_a-errno.o)
                              /var/folders/hj/xvmq845d4rq0_l026j3g6x8c0000gn/T/arduino-sketch-783AC80E8B34696ACA1CC87DB6CF7DB3/core/wirish/syscalls.c.o (__errno)
/Users/lgcampos/Library/Arduino15/packages/arduino/tools/arm-none-eabi-gcc/7-2017q4/bin/../lib/gcc/arm-none-eabi/7.2.1/../../../../arm-none-eabi/lib/thumb/v7-m/libc.a(lib_a-exit.o)
                              /Users/lgcampos/Library/Arduino15/packages/arduino/tools/arm-none-eabi-gcc/7-2017q4/bin/../lib/gcc/arm-none-eabi/7.2.1/../../../../arm-none-eabi/lib/thumb/v7-m/crt0.o (exit)
/Users/lgcampos/Library/Arduino15/packages/arduino/tools/arm-none-eabi-gcc/7-2017q4/bin/../lib/gcc/arm-none-eabi/7.2.1/../../../../arm-none-eabi/lib/thumb/v7-m/libc.a(lib_a-impure.o)
                              /Users/lgcampos/Library/Arduino15/packages/arduino/tools/arm-none-eabi-gcc/7-2017q4/bin/../lib/gcc/arm-none-eabi/7.2.1/../../../../arm-none-eabi/lib/thumb/v7-m/libc.a(lib_a-exit.o) (_global_impure_ptr)
/Users/lgcampos/Library/Arduino15/packages/arduino/tools/arm-none-eabi-gcc/7-2017q4/bin/../lib/gcc/arm-none-eabi/7.2.1/../../../../arm-none-eabi/lib/thumb/v7-m/libc.a(lib_a-init.o)
                              /Users/lgcampos/Library/Arduino15/packages/arduino/tools/arm-none-eabi-gcc/7-2017q4/bin/../lib/gcc/arm-none-eabi/7.2.1/../../../../arm-none-eabi/lib/thumb/v7-m/crt0.o (__libc_init_array)
/Users/lgcampos/Library/Arduino15/packages/arduino/tools/arm-none-eabi-gcc/7-2017q4/bin/../lib/gcc/arm-none-eabi/7.2.1/../../../../arm-none-eabi/lib/thumb/v7-m/libc.a(lib_a-malloc.o)
                              /var/folders/hj/xvmq845d4rq0_l026j3g6x8c0000gn/T/arduino-sketch-783AC80E8B34696ACA1CC87DB6CF7DB3/libraries/CorePartition/CorePartition.c.o (malloc)
/Users/lgcampos/Library/Arduino15/packages/arduino/tools/arm-none-eabi-gcc/7-2017q4/bin/../lib/gcc/arm-none-eabi/7.2.1/../../../../arm-none-eabi/lib/thumb/v7-m/libc.a(lib_a-mallocr.o)
                              /Users/lgcampos/Library/Arduino15/packages/arduino/tools/arm-none-eabi-gcc/7-2017q4/bin/../lib/gcc/arm-none-eabi/7.2.1/../../../../arm-none-eabi/lib/thumb/v7-m/libc.a(lib_a-callocr.o) (_malloc_r)
/Users/lgcampos/Library/Arduino15/packages/arduino/tools/arm-none-eabi-gcc/7-2017q4/bin/../lib/gcc/arm-none-eabi/7.2.1/../../../../arm-none-eabi/lib/thumb/v7-m/libc.a(lib_a-memcpy.o)
                              /var/folders/hj/xvmq845d4rq0_l026j3g6x8c0000gn/T/arduino-sketch-783AC80E8B34696ACA1CC87DB6CF7DB3/libraries/CorePartition/CorePartition.c.o (memcpy)
/Users/lgcampos/Library/Arduino15/packages/arduino/tools/arm-none-eabi-gcc/7-2017q4/bin/../lib/gcc/arm-none-eabi/7.2.1/../../../../arm-none-eabi/lib/thumb/v7-m/libc.a(lib_a-memset.o)
                              /Users/lgcampos/Library/Arduino15/packages/arduino/tools/arm-none-eabi-gcc/7-2017q4/bin/../lib/gcc/arm-none-eabi/7.2.1/../../../../arm-none-eabi/lib/thumb/v7-m/crt0.o (memset)
/Users/lgcampos/Library/Arduino15/packages/arduino/tools/arm-none-eabi-gcc/7-2017q4/bin/../lib/gcc/arm-none-eabi/7.2.1/../../../../arm-none-eabi/lib/thumb/v7-m/libc.a(lib_a-mlock.o)
                              /Users/lgcampos/Library/Arduino15/packages/arduino/tools/arm-none-eabi-gcc/7-2017q4/bin/../lib/gcc/arm-none-eabi/7.2.1/../../../../arm-none-eabi/lib/thumb/v7-m/libc.a(lib_a-mallocr.o) (__malloc_lock)
/Users/lgcampos/Library/Arduino15/packages/arduino/tools/arm-none-eabi-gcc/7-2017q4/bin/../lib/gcc/arm-none-eabi/7.2.1/../../../../arm-none-eabi/lib/thumb/v7-m/libc.a(lib_a-rand.o)
                              /var/folders/hj/xvmq845d4rq0_l026j3g6x8c0000gn/T/arduino-sketch-783AC80E8B34696ACA1CC87DB6CF7DB3/libraries/CorePartition/CorePartition.c.o (srand)
/Users/lgcampos/Library/Arduino15/packages/arduino/tools/arm-none-eabi-gcc/7-2017q4/bin/../lib/gcc/arm-none-eabi/7.2.1/../../../../arm-none-eabi/lib/thumb/v7-m/libc.a(lib_a-sbrkr.o)
                              /Users/lgcampos/Library/Arduino15/packages/arduino/tools/arm-none-eabi-gcc/7-2017q4/bin/../lib/gcc/arm-none-eabi/7.2.1/../../../../arm-none-eabi/lib/thumb/v7-m/libc.a(lib_a-mallocr.o) (_sbrk_r)
/Users/lgcampos/Library/Arduino15/packages/arduino/tools/arm-none-eabi-gcc/7-2017q4/bin/../lib/gcc/arm-none-eabi/7.2.1/../../../../arm-none-eabi/lib/thumb/v7-m/libc.a(lib_a-setjmp.o)
                              /var/folders/hj/xvmq845d4rq0_l026j3g6x8c0000gn/T/arduino-sketch-783AC80E8B34696ACA1CC87DB6CF7DB3/libraries/CorePartition/CorePartition.c.o (setjmp)
/Users/lgcampos/Library/Arduino15/packages/arduino/tools/arm-none-eabi-gcc/7-2017q4/bin/../lib/gcc/arm-none-eabi/7.2.1/../../../../arm-none-eabi/lib/thumb/v7-m/libc.a(lib_a-strlen-stub.o)
                              /var/folders/hj/xvmq845d4rq0_l026j3g6x8c0000gn/T/arduino-core-cache/core_0bde13c9a0eea2bfdc716a2fc04bccd4.a(Print.cpp.o) (strlen)
/Users/lgcampos/Library/Arduino15/packages/arduino/tools/arm-none-eabi-gcc/7-2017q4/bin/../lib/gcc/arm-none-eabi/7.2.1/../../../../arm-none-eabi/lib/thumb/v7-m/libc.a(lib_a-__call_atexit.o)
                              /Users/lgcampos/Library/Arduino15/packages/arduino/tools/arm-none-eabi-gcc/7-2017q4/bin/../lib/gcc/arm-none-eabi/7.2.1/../../../../arm-none-eabi/lib/thumb/v7-m/libc.a(lib_a-exit.o) (__call_exitprocs)
/Users/lgcampos/Library/Arduino15/packages/arduino/tools/arm-none-eabi-gcc/7-2017q4/bin/../lib/gcc/arm-none-eabi/7.2.1/../../../../arm-none-eabi/lib/thumb/v7-m/libc.a(lib_a-atexit.o)
                              /Users/lgcampos/Library/Arduino15/packages/arduino/tools/arm-none-eabi-gcc/7-2017q4/bin/../lib/gcc/arm-none-eabi/7.2.1/../../../../arm-none-eabi/lib/thumb/v7-m/libc.a(lib_a-__call_atexit.o) (atexit)
/Users/lgcampos/Library/Arduino15/packages/arduino/tools/arm-none-eabi-gcc/7-2017q4/bin/../lib/gcc/arm-none-eabi/7.2.1/../../../../arm-none-eabi/lib/thumb/v7-m/libc.a(lib_a-fini.o)
                              /Users/lgcampos/Library/Arduino15/packages/arduino/tools/arm-none-eabi-gcc/7-2017q4/bin/../lib/gcc/arm-none-eabi/7.2.1/../../../../arm-none-eabi/lib/thumb/v7-m/libc.a(lib_a-__call_atexit.o) (__libc_fini_array)
/Users/lgcampos/Library/Arduino15/packages/arduino/tools/arm-none-eabi-gcc/7-2017q4/bin/../lib/gcc/arm-none-eabi/7.2.1/../../../../arm-none-eabi/lib/thumb/v7-m/libc.a(lib_a-freer.o)
                              /Users/lgcampos/Library/Arduino15/packages/arduino/tools/arm-none-eabi-gcc/7-2017q4/bin/../lib/gcc/arm-none-eabi/7.2.1/../../../../arm-none-eabi/lib/thumb/v7-m/libc.a(lib_a-malloc.o) (_free_r)
/Users/lgcampos/Library/Arduino15/packages/arduino/tools/arm-none-eabi-gcc/7-2017q4/bin/../lib/gcc/arm-none-eabi/7.2.1/../../../../arm-none-eabi/lib/thumb/v7-m/libc.a(lib_a-lock.o)
                              /Users/lgcampos/Library/Arduino15/packages/arduino/tools/arm-none-eabi-gcc/7-2017q4/bin/../lib/gcc/arm-none-eabi/7.2.1/../../../../arm-none-eabi/lib/thumb/v7-m/libc.a(lib_a-mlock.o) (__retarget_lock_acquire_recursive)
/Users/lgcampos/Library/Arduino15/packages/arduino/tools/arm-none-eabi-gcc/7-2017q4/bin/../lib/gcc/arm-none-eabi/7.2.1/../../../../arm-none-eabi/lib/thumb/v7-m/libc.a(lib_a-reent.o)
                              /Users/lgcampos/Library/Arduino15/packages/arduino/tools/arm-none-eabi-gcc/7-2017q4/bin/../lib/gcc/arm-none-eabi/7.2.1/../../../../arm-none-eabi/lib/thumb/v7-m/libc.a(lib_a-sbrkr.o) (errno)
/Users/lgcampos/Library/Arduino15/packages/arduino/tools/arm-none-eabi-gcc/7-2017q4/bin/../lib/gcc/arm-none-eabi/7.2.1/../../../../arm-none-eabi/lib/thumb/v7-m/libc.a(lib_a-__atexit.o)
                              /Users/lgcampos/Library/Arduino15/packages/arduino/tools/arm-none-eabi-gcc/7-2017q4/bin/../lib/gcc/arm-none-eabi/7.2.1/../../../../arm-none-eabi/lib/thumb/v7-m/libc.a(lib_a-atexit.o) (__register_exitproc)

Allocating common symbols
Common symbol       size              file

SaveRState          0x2               /var/folders/hj/xvmq845d4rq0_l026j3g6x8c0000gn/T/arduino-core-cache/core_0bde13c9a0eea2bfdc716a2fc04bccd4.a(usb.c.o)
__lock___atexit_recursive_mutex
                    0x1               /Users/lgcampos/Library/Arduino15/packages/arduino/tools/arm-none-eabi-gcc/7-2017q4/bin/../lib/gcc/arm-none-eabi/7.2.1/../../../../arm-none-eabi/lib/thumb/v7-m/libc.a(lib_a-lock.o)
__lock___arc4random_mutex
                    0x1               /Users/lgcampos/Library/Arduino15/packages/arduino/tools/arm-none-eabi-gcc/7-2017q4/bin/../lib/gcc/arm-none-eabi/7.2.1/../../../../arm-none-eabi/lib/thumb/v7-m/libc.a(lib_a-lock.o)
SaveState           0x2               /var/folders/hj/xvmq845d4rq0_l026j3g6x8c0000gn/T/arduino-core-cache/core_0bde13c9a0eea2bfdc716a2fc04bccd4.a(usb_init.c.o)
errno               0x4               /Users/lgcampos/Library/Arduino15/packages/arduino/tools/arm-none-eabi-gcc/7-2017q4/bin/../lib/gcc/arm-none-eabi/7.2.1/../../../../arm-none-eabi/lib/thumb/v7-m/libc.a(lib_a-reent.o)
pProperty           0x4               /var/folders/hj/xvmq845d4rq0_l026j3g6x8c0000gn/T/arduino-core-cache/core_0bde13c9a0eea2bfdc716a2fc04bccd4.a(usb_init.c.o)
__lock___env_recursive_mutex
                    0x1               /Users/lgcampos/Library/Arduino15/packages/arduino/tools/arm-none-eabi-gcc/7-2017q4/bin/../lib/gcc/arm-none-eabi/7.2.1/../../../../arm-none-eabi/lib/thumb/v7-m/libc.a(lib_a-lock.o)
__lock___sinit_recursive_mutex
                    0x1               /Users/lgcampos/Library/Arduino15/packages/arduino/tools/arm-none-eabi-gcc/7-2017q4/bin/../lib/gcc/arm-none-eabi/7.2.1/../../../../arm-none-eabi/lib/thumb/v7-m/libc.a(lib_a-lock.o)
EPindex             0x1               /var/folders/hj/xvmq845d4rq0_l026j3g6x8c0000gn/T/arduino-core-cache/core_0bde13c9a0eea2bfdc716a2fc04bccd4.a(usb_init.c.o)
__lock___malloc_recursive_mutex
                    0x1               /Users/lgcampos/Library/Arduino15/packages/arduino/tools/arm-none-eabi-gcc/7-2017q4/bin/../lib/gcc/arm-none-eabi/7.2.1/../../../../arm-none-eabi/lib/thumb/v7-m/libc.a(lib_a-lock.o)
SaveTState          0x2               /var/folders/hj/xvmq845d4rq0_l026j3g6x8c0000gn/T/arduino-core-cache/core_0bde13c9a0eea2bfdc716a2fc04bccd4.a(usb.c.o)
systick_uptime_millis
                    0x4               /var/folders/hj/xvmq845d4rq0_l026j3g6x8c0000gn/T/arduino-core-cache/core_0bde13c9a0eea2bfdc716a2fc04bccd4.a(systick.c.o)
Device_Info         0x1c              /var/folders/hj/xvmq845d4rq0_l026j3g6x8c0000gn/T/arduino-core-cache/core_0bde13c9a0eea2bfdc716a2fc04bccd4.a(usb_init.c.o)
pUser_Standard_Requests
                    0x4               /var/folders/hj/xvmq845d4rq0_l026j3g6x8c0000gn/T/arduino-core-cache/core_0bde13c9a0eea2bfdc716a2fc04bccd4.a(usb_init.c.o)
jmpJoinPointer      0x5c              /var/folders/hj/xvmq845d4rq0_l026j3g6x8c0000gn/T/arduino-sketch-783AC80E8B34696ACA1CC87DB6CF7DB3/libraries/CorePartition/CorePartition.c.o
StatusInfo          0x2               /var/folders/hj/xvmq845d4rq0_l026j3g6x8c0000gn/T/arduino-core-cache/core_0bde13c9a0eea2bfdc716a2fc04bccd4.a(usb_core.c.o)
pInformation        0x4               /var/folders/hj/xvmq845d4rq0_l026j3g6x8c0000gn/T/arduino-core-cache/core_0bde13c9a0eea2bfdc716a2fc04bccd4.a(usb_init.c.o)
ResumeS             0x2               /var/folders/hj/xvmq845d4rq0_l026j3g6x8c0000gn/T/arduino-core-cache/core_0bde13c9a0eea2bfdc716a2fc04bccd4.a(usb.c.o)
__lock___at_quick_exit_mutex
                    0x1               /Users/lgcampos/Library/Arduino15/packages/arduino/tools/arm-none-eabi-gcc/7-2017q4/bin/../lib/gcc/arm-none-eabi/7.2.1/../../../../arm-none-eabi/lib/thumb/v7-m/libc.a(lib_a-lock.o)
__lock___dd_hash_mutex
                    0x1               /Users/lgcampos/Library/Arduino15/packages/arduino/tools/arm-none-eabi-gcc/7-2017q4/bin/../lib/gcc/arm-none-eabi/7.2.1/../../../../arm-none-eabi/lib/thumb/v7-m/libc.a(lib_a-lock.o)
__lock___tz_mutex   0x1               /Users/lgcampos/Library/Arduino15/packages/arduino/tools/arm-none-eabi-gcc/7-2017q4/bin/../lib/gcc/arm-none-eabi/7.2.1/../../../../arm-none-eabi/lib/thumb/v7-m/libc.a(lib_a-lock.o)
wInterrupt_Mask     0x2               /var/folders/hj/xvmq845d4rq0_l026j3g6x8c0000gn/T/arduino-core-cache/core_0bde13c9a0eea2bfdc716a2fc04bccd4.a(usb_init.c.o)
__lock___sfp_recursive_mutex
                    0x1               /Users/lgcampos/Library/Arduino15/packages/arduino/tools/arm-none-eabi-gcc/7-2017q4/bin/../lib/gcc/arm-none-eabi/7.2.1/../../../../arm-none-eabi/lib/thumb/v7-m/libc.a(lib_a-lock.o)

Discarded input sections

 .text          0x0000000000000000        0x0 /Users/lgcampos/Library/Arduino15/packages/arduino/tools/arm-none-eabi-gcc/7-2017q4/bin/../lib/gcc/arm-none-eabi/7.2.1/thumb/v7-m/crti.o
 .data          0x0000000000000000        0x0 /Users/lgcampos/Library/Arduino15/packages/arduino/tools/arm-none-eabi-gcc/7-2017q4/bin/../lib/gcc/arm-none-eabi/7.2.1/thumb/v7-m/crti.o
 .bss           0x0000000000000000        0x0 /Users/lgcampos/Library/Arduino15/packages/arduino/tools/arm-none-eabi-gcc/7-2017q4/bin/../lib/gcc/arm-none-eabi/7.2.1/thumb/v7-m/crti.o
 .data          0x0000000000000000        0x4 /Users/lgcampos/Library/Arduino15/packages/arduino/tools/arm-none-eabi-gcc/7-2017q4/bin/../lib/gcc/arm-none-eabi/7.2.1/thumb/v7-m/crtbegin.o
 .text          0x0000000000000000       0x74 /Users/lgcampos/Library/Arduino15/packages/arduino/tools/arm-none-eabi-gcc/7-2017q4/bin/../lib/gcc/arm-none-eabi/7.2.1/../../../../arm-none-eabi/lib/thumb/v7-m/crt0.o
 .data          0x0000000000000000        0x0 /Users/lgcampos/Library/Arduino15/packages/arduino/tools/arm-none-eabi-gcc/7-2017q4/bin/../lib/gcc/arm-none-eabi/7.2.1/../../../../arm-none-eabi/lib/thumb/v7-m/crt0.o
 .bss           0x0000000000000000        0x0 /Users/lgcampos/Library/Arduino15/packages/arduino/tools/arm-none-eabi-gcc/7-2017q4/bin/../lib/gcc/arm-none-eabi/7.2.1/../../../../arm-none-eabi/lib/thumb/v7-m/crt0.o
 .ARM.extab     0x0000000000000000        0x0 /Users/lgcampos/Library/Arduino15/packages/arduino/tools/arm-none-eabi-gcc/7-2017q4/bin/../lib/gcc/arm-none-eabi/7.2.1/../../../../arm-none-eabi/lib/thumb/v7-m/crt0.o
 .ARM.exidx     0x0000000000000000        0x8 /Users/lgcampos/Library/Arduino15/packages/arduino/tools/arm-none-eabi-gcc/7-2017q4/bin/../lib/gcc/arm-none-eabi/7.2.1/../../../../arm-none-eabi/lib/thumb/v7-m/crt0.o
 .text          0x0000000000000000        0x0 /var/folders/hj/xvmq845d4rq0_l026j3g6x8c0000gn/T/arduino-sketch-783AC80E8B34696ACA1CC87DB6CF7DB3/sketch/LowMemoryExample.ino.cpp.o
 .data          0x0000000000000000        0x0 /var/folders/hj/xvmq845d4rq0_l026j3g6x8c0000gn/T/arduino-sketch-783AC80E8B34696ACA1CC87DB6CF7DB3/sketch/LowMemoryExample.ino.cpp.o
 .bss           0x0000000000000000        0x0 /var/folders/hj/xvmq845d4rq0_l026j3g6x8c0000gn/T/arduino-sketch-783AC80E8B34696ACA1CC87DB6CF7DB3/sketch/LowMemoryExample.ino.cpp.o
 .text._Z11SetLocationtt
                0x0000000000000000       0x48 /var/folders/hj/xvmq845d4rq0_l026j3g6x8c0000gn/T/arduino-sketch-783AC80E8B34696ACA1CC87DB6CF7DB3/sketch/LowMemoryExample.ino.cpp.o
 .text._Z8SetColorhh
                0x0000000000000000       0x4c /var/folders/hj/xvmq845d4rq0_l026j3g6x8c0000gn/T/arduino-sketch-783AC80E8B34696ACA1CC87DB6CF7DB3/sketch/LowMemoryExample.ino.cpp.o
 .text._Z16ClearCurrentLinev
                0x0000000000000000       0x10 /var/folders/hj/xvmq845d4rq0_l026j3g6x8c0000gn/T/arduino-sketch-783AC80E8B34696ACA1CC87DB6CF7DB3/sketch/LowMemoryExample.ino.cpp.o
 .text._Z10ResetColorv
                0x0000000000000000       0x10 /var/folders/hj/xvmq845d4rq0_l026j3g6x8c0000gn/T/arduino-sketch-783AC80E8B34696ACA1CC87DB6CF7DB3/sketch/LowMemoryExample.ino.cpp.o
 .text._Z10HideCursorv
                0x0000000000000000       0x10 /var/folders/hj/xvmq845d4rq0_l026j3g6x8c0000gn/T/arduino-sketch-783AC80E8B34696ACA1CC87DB6CF7DB3/sketch/LowMemoryExample.ino.cpp.o
 .text._Z10ShowCursorv
                0x0000000000000000       0x10 /var/folders/hj/xvmq845d4rq0_l026j3g6x8c0000gn/T/arduino-sketch-783AC80E8B34696ACA1CC87DB6CF7DB3/sketch/LowMemoryExample.ino.cpp.o
 .text._Z12ClearConsolev
                0x0000000000000000       0x10 /var/folders/hj/xvmq845d4rq0_l026j3g6x8c0000gn/T/arduino-sketch-783AC80E8B34696ACA1CC87DB6CF7DB3/sketch/LowMemoryExample.ino.cpp.o
 .text._Z12ReverseColorv
                0x0000000000000000       0x10 /var/folders/hj/xvmq845d4rq0_l026j3g6x8c0000gn/T/arduino-sketch-783AC80E8B34696ACA1CC87DB6CF7DB3/sketch/LowMemoryExample.ino.cpp.o
 .text._Z5Delayy
                0x0000000000000000       0x24 /var/folders/hj/xvmq845d4rq0_l026j3g6x8c0000gn/T/arduino-sketch-783AC80E8B34696ACA1CC87DB6CF7DB3/sketch/LowMemoryExample.ino.cpp.o
 .rodata._Z10ShowCursorv.str1.4
                0x0000000000000000        0x7 /var/folders/hj/xvmq845d4rq0_l026j3g6x8c0000gn/T/arduino-sketch-783AC80E8B34696ACA1CC87DB6CF7DB3/sketch/LowMemoryExample.ino.cpp.o
 .rodata._Z12ReverseColorv.str1.4
                0x0000000000000000        0x5 /var/folders/hj/xvmq845d4rq0_l026j3g6x8c0000gn/T/arduino-sketch-783AC80E8B34696ACA1CC87DB6CF7DB3/sketch/LowMemoryExample.ino.cpp.o
 .rodata._Z8SetColorhh.str1.4
                0x0000000000000000        0x2 /var/folders/hj/xvmq845d4rq0_l026j3g6x8c0000gn/T/arduino-sketch-783AC80E8B34696ACA1CC87DB6CF7DB3/sketch/LowMemoryExample.ino.cpp.o
 .text          0x0000000000000000        0x0 /var/folders/hj/xvmq845d4rq0_l026j3g6x8c0000gn/T/arduino-sketch-783AC80E8B34696ACA1CC87DB6CF7DB3/libraries/CorePartition/CorePartition.c.o
 .data          0x0000000000000000        0x0 /var/folders/hj/xvmq845d4rq0_l026j3g6x8c0000gn/T/arduino-sketch-783AC80E8B34696ACA1CC87DB6CF7DB3/libraries/CorePartition/CorePartition.c.o
 .bss           0x0000000000000000        0x0 /var/folders/hj/xvmq845d4rq0_l026j3g6x8c0000gn/T/arduino-sketch-783AC80E8B34696ACA1CC87DB6CF7DB3/libraries/CorePartition/CorePartition.c.o
 .text.CorePartition_CRC16
                0x0000000000000000       0xa0 /var/folders/hj/xvmq845d4rq0_l026j3g6x8c0000gn/T/arduino-sketch-783AC80E8B34696ACA1CC87DB6CF7DB3/libraries/CorePartition/CorePartition.c.o
 .text.CorePartition_CreateThread_
                0x0000000000000000       0xe0 /var/folders/hj/xvmq845d4rq0_l026j3g6x8c0000gn/T/arduino-sketch-783AC80E8B34696ACA1CC87DB6CF7DB3/libraries/CorePartition/CorePartition.c.o
 .text.CorePartition_Notify
                0x0000000000000000      0x218 /var/folders/hj/xvmq845d4rq0_l026j3g6x8c0000gn/T/arduino-sketch-783AC80E8B34696ACA1CC87DB6CF7DB3/libraries/CorePartition/CorePartition.c.o
 .text.CorePartition_WaitMessage
                0x0000000000000000      0x1f0 /var/folders/hj/xvmq845d4rq0_l026j3g6x8c0000gn/T/arduino-sketch-783AC80E8B34696ACA1CC87DB6CF7DB3/libraries/CorePartition/CorePartition.c.o
 .text.CorePartition_Wait
                0x0000000000000000      0x1c0 /var/folders/hj/xvmq845d4rq0_l026j3g6x8c0000gn/T/arduino-sketch-783AC80E8B34696ACA1CC87DB6CF7DB3/libraries/CorePartition/CorePartition.c.o
 .text.CorePartition_NotifyOne
                0x0000000000000000       0x18 /var/folders/hj/xvmq845d4rq0_l026j3g6x8c0000gn/T/arduino-sketch-783AC80E8B34696ACA1CC87DB6CF7DB3/libraries/CorePartition/CorePartition.c.o
 .text.CorePartition_NotifyMessageOne
                0x0000000000000000       0x18 /var/folders/hj/xvmq845d4rq0_l026j3g6x8c0000gn/T/arduino-sketch-783AC80E8B34696ACA1CC87DB6CF7DB3/libraries/CorePartition/CorePartition.c.o
 .text.CorePartition_NotifyAll
                0x0000000000000000       0x18 /var/folders/hj/xvmq845d4rq0_l026j3g6x8c0000gn/T/arduino-sketch-783AC80E8B34696ACA1CC87DB6CF7DB3/libraries/CorePartition/CorePartition.c.o
 .text.CorePartition_NotifyMessageAll
                0x0000000000000000       0x18 /var/folders/hj/xvmq845d4rq0_l026j3g6x8c0000gn/T/arduino-sketch-783AC80E8B34696ACA1CC87DB6CF7DB3/libraries/CorePartition/CorePartition.c.o
 .text.CorePartition_Sleep
                0x0000000000000000       0x60 /var/folders/hj/xvmq845d4rq0_l026j3g6x8c0000gn/T/arduino-sketch-783AC80E8B34696ACA1CC87DB6CF7DB3/libraries/CorePartition/CorePartition.c.o
 .text.CorePartition_IsSecureByID
                0x0000000000000000       0x2c /var/folders/hj/xvmq845d4rq0_l026j3g6x8c0000gn/T/arduino-sketch-783AC80E8B34696ACA1CC87DB6CF7DB3/libraries/CorePartition/CorePartition.c.o
 .text.CorePartition_IsCoreRunning
                0x0000000000000000       0x10 /var/folders/hj/xvmq845d4rq0_l026j3g6x8c0000gn/T/arduino-sketch-783AC80E8B34696ACA1CC87DB6CF7DB3/libraries/CorePartition/CorePartition.c.o
 .text.CorePartition_SetNice
                0x0000000000000000       0x20 /var/folders/hj/xvmq845d4rq0_l026j3g6x8c0000gn/T/arduino-sketch-783AC80E8B34696ACA1CC87DB6CF7DB3/libraries/CorePartition/CorePartition.c.o
 .bss.nNextThread
                0x0000000000000000        0x4 /var/folders/hj/xvmq845d4rq0_l026j3g6x8c0000gn/T/arduino-sketch-783AC80E8B34696ACA1CC87DB6CF7DB3/libraries/CorePartition/CorePartition.c.o
 .data          0x0000000000000000        0x0 /var/folders/hj/xvmq845d4rq0_l026j3g6x8c0000gn/T/arduino-sketch-783AC80E8B34696ACA1CC87DB6CF7DB3/core/wirish/start.S.o
 .bss           0x0000000000000000        0x0 /var/folders/hj/xvmq845d4rq0_l026j3g6x8c0000gn/T/arduino-sketch-783AC80E8B34696ACA1CC87DB6CF7DB3/core/wirish/start.S.o
 .ARM.extab     0x0000000000000000        0x0 /var/folders/hj/xvmq845d4rq0_l026j3g6x8c0000gn/T/arduino-sketch-783AC80E8B34696ACA1CC87DB6CF7DB3/core/wirish/start.S.o
 .text          0x0000000000000000        0x0 /var/folders/hj/xvmq845d4rq0_l026j3g6x8c0000gn/T/arduino-sketch-783AC80E8B34696ACA1CC87DB6CF7DB3/core/wirish/start_c.c.o
 .data          0x0000000000000000        0x0 /var/folders/hj/xvmq845d4rq0_l026j3g6x8c0000gn/T/arduino-sketch-783AC80E8B34696ACA1CC87DB6CF7DB3/core/wirish/start_c.c.o
 .bss           0x0000000000000000        0x0 /var/folders/hj/xvmq845d4rq0_l026j3g6x8c0000gn/T/arduino-sketch-783AC80E8B34696ACA1CC87DB6CF7DB3/core/wirish/start_c.c.o
 .text          0x0000000000000000        0x0 /var/folders/hj/xvmq845d4rq0_l026j3g6x8c0000gn/T/arduino-sketch-783AC80E8B34696ACA1CC87DB6CF7DB3/core/wirish/syscalls.c.o
 .data          0x0000000000000000        0x0 /var/folders/hj/xvmq845d4rq0_l026j3g6x8c0000gn/T/arduino-sketch-783AC80E8B34696ACA1CC87DB6CF7DB3/core/wirish/syscalls.c.o
 .bss           0x0000000000000000        0x0 /var/folders/hj/xvmq845d4rq0_l026j3g6x8c0000gn/T/arduino-sketch-783AC80E8B34696ACA1CC87DB6CF7DB3/core/wirish/syscalls.c.o
 .text._open    0x0000000000000000        0x8 /var/folders/hj/xvmq845d4rq0_l026j3g6x8c0000gn/T/arduino-sketch-783AC80E8B34696ACA1CC87DB6CF7DB3/core/wirish/syscalls.c.o
 .text._close   0x0000000000000000        0x4 /var/folders/hj/xvmq845d4rq0_l026j3g6x8c0000gn/T/arduino-sketch-783AC80E8B34696ACA1CC87DB6CF7DB3/core/wirish/syscalls.c.o
 .text._fstat   0x0000000000000000        0xc /var/folders/hj/xvmq845d4rq0_l026j3g6x8c0000gn/T/arduino-sketch-783AC80E8B34696ACA1CC87DB6CF7DB3/core/wirish/syscalls.c.o
 .text._isatty  0x0000000000000000        0x4 /var/folders/hj/xvmq845d4rq0_l026j3g6x8c0000gn/T/arduino-sketch-783AC80E8B34696ACA1CC87DB6CF7DB3/core/wirish/syscalls.c.o
 .text.isatty   0x0000000000000000        0x4 /var/folders/hj/xvmq845d4rq0_l026j3g6x8c0000gn/T/arduino-sketch-783AC80E8B34696ACA1CC87DB6CF7DB3/core/wirish/syscalls.c.o
 .text._lseek   0x0000000000000000        0x8 /var/folders/hj/xvmq845d4rq0_l026j3g6x8c0000gn/T/arduino-sketch-783AC80E8B34696ACA1CC87DB6CF7DB3/core/wirish/syscalls.c.o
 .text.getch    0x0000000000000000        0x4 /var/folders/hj/xvmq845d4rq0_l026j3g6x8c0000gn/T/arduino-sketch-783AC80E8B34696ACA1CC87DB6CF7DB3/core/wirish/syscalls.c.o
 .text._read    0x0000000000000000       0x10 /var/folders/hj/xvmq845d4rq0_l026j3g6x8c0000gn/T/arduino-sketch-783AC80E8B34696ACA1CC87DB6CF7DB3/core/wirish/syscalls.c.o
 .text.putch    0x0000000000000000        0x4 /var/folders/hj/xvmq845d4rq0_l026j3g6x8c0000gn/T/arduino-sketch-783AC80E8B34696ACA1CC87DB6CF7DB3/core/wirish/syscalls.c.o
 .text.cgets    0x0000000000000000       0x74 /var/folders/hj/xvmq845d4rq0_l026j3g6x8c0000gn/T/arduino-sketch-783AC80E8B34696ACA1CC87DB6CF7DB3/core/wirish/syscalls.c.o
 .text._write   0x0000000000000000       0x1c /var/folders/hj/xvmq845d4rq0_l026j3g6x8c0000gn/T/arduino-sketch-783AC80E8B34696ACA1CC87DB6CF7DB3/core/wirish/syscalls.c.o
 .text.fgets    0x0000000000000000        0xc /var/folders/hj/xvmq845d4rq0_l026j3g6x8c0000gn/T/arduino-sketch-783AC80E8B34696ACA1CC87DB6CF7DB3/core/wirish/syscalls.c.o
 .text          0x0000000000000000        0x0 /var/folders/hj/xvmq845d4rq0_l026j3g6x8c0000gn/T/arduino-sketch-783AC80E8B34696ACA1CC87DB6CF7DB3/core/board.cpp.o
 .data          0x0000000000000000        0x0 /var/folders/hj/xvmq845d4rq0_l026j3g6x8c0000gn/T/arduino-sketch-783AC80E8B34696ACA1CC87DB6CF7DB3/core/board.cpp.o
 .bss           0x0000000000000000        0x0 /var/folders/hj/xvmq845d4rq0_l026j3g6x8c0000gn/T/arduino-sketch-783AC80E8B34696ACA1CC87DB6CF7DB3/core/board.cpp.o
 .USER_FLASH    0x0000000000000000       0x1c /var/folders/hj/xvmq845d4rq0_l026j3g6x8c0000gn/T/arduino-sketch-783AC80E8B34696ACA1CC87DB6CF7DB3/core/board.cpp.o
 .text          0x0000000000000000        0x0 /var/folders/hj/xvmq845d4rq0_l026j3g6x8c0000gn/T/arduino-sketch-783AC80E8B34696ACA1CC87DB6CF7DB3/core/wirish/boards.cpp.o
 .data          0x0000000000000000        0x0 /var/folders/hj/xvmq845d4rq0_l026j3g6x8c0000gn/T/arduino-sketch-783AC80E8B34696ACA1CC87DB6CF7DB3/core/wirish/boards.cpp.o
 .bss           0x0000000000000000        0x0 /var/folders/hj/xvmq845d4rq0_l026j3g6x8c0000gn/T/arduino-sketch-783AC80E8B34696ACA1CC87DB6CF7DB3/core/wirish/boards.cpp.o
 .text._Z9boardInitv
                0x0000000000000000        0x4 /var/folders/hj/xvmq845d4rq0_l026j3g6x8c0000gn/T/arduino-sketch-783AC80E8B34696ACA1CC87DB6CF7DB3/core/wirish/boards.cpp.o
 .text._Z12boardUsesPinh
                0x0000000000000000       0x28 /var/folders/hj/xvmq845d4rq0_l026j3g6x8c0000gn/T/arduino-sketch-783AC80E8B34696ACA1CC87DB6CF7DB3/core/wirish/boards.cpp.o
 .text          0x0000000000000000        0x0 /var/folders/hj/xvmq845d4rq0_l026j3g6x8c0000gn/T/arduino-sketch-783AC80E8B34696ACA1CC87DB6CF7DB3/core/wirish/boards_setup.cpp.o
 .data          0x0000000000000000        0x0 /var/folders/hj/xvmq845d4rq0_l026j3g6x8c0000gn/T/arduino-sketch-783AC80E8B34696ACA1CC87DB6CF7DB3/core/wirish/boards_setup.cpp.o
 .bss           0x0000000000000000        0x0 /var/folders/hj/xvmq845d4rq0_l026j3g6x8c0000gn/T/arduino-sketch-783AC80E8B34696ACA1CC87DB6CF7DB3/core/wirish/boards_setup.cpp.o
 .data          0x0000000000000000        0x0 /var/folders/hj/xvmq845d4rq0_l026j3g6x8c0000gn/T/arduino-core-cache/core_0bde13c9a0eea2bfdc716a2fc04bccd4.a(exc.S.o)
 .bss           0x0000000000000000        0x0 /var/folders/hj/xvmq845d4rq0_l026j3g6x8c0000gn/T/arduino-core-cache/core_0bde13c9a0eea2bfdc716a2fc04bccd4.a(exc.S.o)
 .data          0x0000000000000000        0x0 /var/folders/hj/xvmq845d4rq0_l026j3g6x8c0000gn/T/arduino-core-cache/core_0bde13c9a0eea2bfdc716a2fc04bccd4.a(isrs.S.o)
 .bss           0x0000000000000000        0x0 /var/folders/hj/xvmq845d4rq0_l026j3g6x8c0000gn/T/arduino-core-cache/core_0bde13c9a0eea2bfdc716a2fc04bccd4.a(isrs.S.o)
 .text          0x0000000000000000        0x0 /var/folders/hj/xvmq845d4rq0_l026j3g6x8c0000gn/T/arduino-core-cache/core_0bde13c9a0eea2bfdc716a2fc04bccd4.a(vector_table.S.o)
 .data          0x0000000000000000        0x0 /var/folders/hj/xvmq845d4rq0_l026j3g6x8c0000gn/T/arduino-core-cache/core_0bde13c9a0eea2bfdc716a2fc04bccd4.a(vector_table.S.o)
 .bss           0x0000000000000000        0x0 /var/folders/hj/xvmq845d4rq0_l026j3g6x8c0000gn/T/arduino-core-cache/core_0bde13c9a0eea2bfdc716a2fc04bccd4.a(vector_table.S.o)
 .text          0x0000000000000000        0x0 /var/folders/hj/xvmq845d4rq0_l026j3g6x8c0000gn/T/arduino-core-cache/core_0bde13c9a0eea2bfdc716a2fc04bccd4.a(adc.c.o)
 .data          0x0000000000000000        0x0 /var/folders/hj/xvmq845d4rq0_l026j3g6x8c0000gn/T/arduino-core-cache/core_0bde13c9a0eea2bfdc716a2fc04bccd4.a(adc.c.o)
 .bss           0x0000000000000000        0x0 /var/folders/hj/xvmq845d4rq0_l026j3g6x8c0000gn/T/arduino-core-cache/core_0bde13c9a0eea2bfdc716a2fc04bccd4.a(adc.c.o)
 .text.adc_read
                0x0000000000000000       0x20 /var/folders/hj/xvmq845d4rq0_l026j3g6x8c0000gn/T/arduino-core-cache/core_0bde13c9a0eea2bfdc716a2fc04bccd4.a(adc.c.o)
 .text          0x0000000000000000        0x0 /var/folders/hj/xvmq845d4rq0_l026j3g6x8c0000gn/T/arduino-core-cache/core_0bde13c9a0eea2bfdc716a2fc04bccd4.a(adc_f1.c.o)
 .data          0x0000000000000000        0x0 /var/folders/hj/xvmq845d4rq0_l026j3g6x8c0000gn/T/arduino-core-cache/core_0bde13c9a0eea2bfdc716a2fc04bccd4.a(adc_f1.c.o)
 .bss           0x0000000000000000        0x0 /var/folders/hj/xvmq845d4rq0_l026j3g6x8c0000gn/T/arduino-core-cache/core_0bde13c9a0eea2bfdc716a2fc04bccd4.a(adc_f1.c.o)
 .text.adc_enable_irq
                0x0000000000000000       0x30 /var/folders/hj/xvmq845d4rq0_l026j3g6x8c0000gn/T/arduino-core-cache/core_0bde13c9a0eea2bfdc716a2fc04bccd4.a(adc_f1.c.o)
 .text.adc_attach_interrupt
                0x0000000000000000       0x38 /var/folders/hj/xvmq845d4rq0_l026j3g6x8c0000gn/T/arduino-core-cache/core_0bde13c9a0eea2bfdc716a2fc04bccd4.a(adc_f1.c.o)
 .text.adc_calibrate
                0x0000000000000000       0x28 /var/folders/hj/xvmq845d4rq0_l026j3g6x8c0000gn/T/arduino-core-cache/core_0bde13c9a0eea2bfdc716a2fc04bccd4.a(adc_f1.c.o)
 .text.adc_config_gpio
                0x0000000000000000        0xc /var/folders/hj/xvmq845d4rq0_l026j3g6x8c0000gn/T/arduino-core-cache/core_0bde13c9a0eea2bfdc716a2fc04bccd4.a(adc_f1.c.o)
 .text          0x0000000000000000        0x0 /var/folders/hj/xvmq845d4rq0_l026j3g6x8c0000gn/T/arduino-core-cache/core_0bde13c9a0eea2bfdc716a2fc04bccd4.a(dma_f1.c.o)
 .data          0x0000000000000000        0x0 /var/folders/hj/xvmq845d4rq0_l026j3g6x8c0000gn/T/arduino-core-cache/core_0bde13c9a0eea2bfdc716a2fc04bccd4.a(dma_f1.c.o)
 .bss           0x0000000000000000        0x0 /var/folders/hj/xvmq845d4rq0_l026j3g6x8c0000gn/T/arduino-core-cache/core_0bde13c9a0eea2bfdc716a2fc04bccd4.a(dma_f1.c.o)
 .text.dma_irq_handler
                0x0000000000000000       0x1c /var/folders/hj/xvmq845d4rq0_l026j3g6x8c0000gn/T/arduino-core-cache/core_0bde13c9a0eea2bfdc716a2fc04bccd4.a(dma_f1.c.o)
 .text.dma_tube_cfg
                0x0000000000000000      0x164 /var/folders/hj/xvmq845d4rq0_l026j3g6x8c0000gn/T/arduino-core-cache/core_0bde13c9a0eea2bfdc716a2fc04bccd4.a(dma_f1.c.o)
 .text.dma_set_priority
                0x0000000000000000       0x1c /var/folders/hj/xvmq845d4rq0_l026j3g6x8c0000gn/T/arduino-core-cache/core_0bde13c9a0eea2bfdc716a2fc04bccd4.a(dma_f1.c.o)
 .text.dma_set_num_transfers
                0x0000000000000000       0x14 /var/folders/hj/xvmq845d4rq0_l026j3g6x8c0000gn/T/arduino-core-cache/core_0bde13c9a0eea2bfdc716a2fc04bccd4.a(dma_f1.c.o)
 .text.dma_attach_interrupt
                0x0000000000000000       0x28 /var/folders/hj/xvmq845d4rq0_l026j3g6x8c0000gn/T/arduino-core-cache/core_0bde13c9a0eea2bfdc716a2fc04bccd4.a(dma_f1.c.o)
 .text.dma_detach_interrupt
                0x0000000000000000       0x20 /var/folders/hj/xvmq845d4rq0_l026j3g6x8c0000gn/T/arduino-core-cache/core_0bde13c9a0eea2bfdc716a2fc04bccd4.a(dma_f1.c.o)
 .text.dma_enable
                0x0000000000000000       0x1c /var/folders/hj/xvmq845d4rq0_l026j3g6x8c0000gn/T/arduino-core-cache/core_0bde13c9a0eea2bfdc716a2fc04bccd4.a(dma_f1.c.o)
 .text.dma_disable
                0x0000000000000000       0x1c /var/folders/hj/xvmq845d4rq0_l026j3g6x8c0000gn/T/arduino-core-cache/core_0bde13c9a0eea2bfdc716a2fc04bccd4.a(dma_f1.c.o)
 .text.dma_get_irq_cause
                0x0000000000000000       0x4c /var/folders/hj/xvmq845d4rq0_l026j3g6x8c0000gn/T/arduino-core-cache/core_0bde13c9a0eea2bfdc716a2fc04bccd4.a(dma_f1.c.o)
 .text.dma_set_mem_addr
                0x0000000000000000       0x14 /var/folders/hj/xvmq845d4rq0_l026j3g6x8c0000gn/T/arduino-core-cache/core_0bde13c9a0eea2bfdc716a2fc04bccd4.a(dma_f1.c.o)
 .text.dma_set_per_addr
                0x0000000000000000       0x14 /var/folders/hj/xvmq845d4rq0_l026j3g6x8c0000gn/T/arduino-core-cache/core_0bde13c9a0eea2bfdc716a2fc04bccd4.a(dma_f1.c.o)
 .text.dma_setup_transfer
                0x0000000000000000       0x34 /var/folders/hj/xvmq845d4rq0_l026j3g6x8c0000gn/T/arduino-core-cache/core_0bde13c9a0eea2bfdc716a2fc04bccd4.a(dma_f1.c.o)
 .text          0x0000000000000000        0x0 /var/folders/hj/xvmq845d4rq0_l026j3g6x8c0000gn/T/arduino-core-cache/core_0bde13c9a0eea2bfdc716a2fc04bccd4.a(exti.c.o)
 .data          0x0000000000000000        0x0 /var/folders/hj/xvmq845d4rq0_l026j3g6x8c0000gn/T/arduino-core-cache/core_0bde13c9a0eea2bfdc716a2fc04bccd4.a(exti.c.o)
 .bss           0x0000000000000000        0x0 /var/folders/hj/xvmq845d4rq0_l026j3g6x8c0000gn/T/arduino-core-cache/core_0bde13c9a0eea2bfdc716a2fc04bccd4.a(exti.c.o)
 .text.exti_attach_interrupt
                0x0000000000000000       0xcc /var/folders/hj/xvmq845d4rq0_l026j3g6x8c0000gn/T/arduino-core-cache/core_0bde13c9a0eea2bfdc716a2fc04bccd4.a(exti.c.o)
 .text.exti_attach_callback
                0x0000000000000000       0xcc /var/folders/hj/xvmq845d4rq0_l026j3g6x8c0000gn/T/arduino-core-cache/core_0bde13c9a0eea2bfdc716a2fc04bccd4.a(exti.c.o)
 .text.exti_detach_interrupt
                0x0000000000000000       0x2c /var/folders/hj/xvmq845d4rq0_l026j3g6x8c0000gn/T/arduino-core-cache/core_0bde13c9a0eea2bfdc716a2fc04bccd4.a(exti.c.o)
 .text.exti_do_select
                0x0000000000000000       0x20 /var/folders/hj/xvmq845d4rq0_l026j3g6x8c0000gn/T/arduino-core-cache/core_0bde13c9a0eea2bfdc716a2fc04bccd4.a(exti.c.o)
 .text.dispatch_single_exti
                0x0000000000000000       0x2c /var/folders/hj/xvmq845d4rq0_l026j3g6x8c0000gn/T/arduino-core-cache/core_0bde13c9a0eea2bfdc716a2fc04bccd4.a(exti.c.o)
 .text.dispatch_extis
                0x0000000000000000       0x54 /var/folders/hj/xvmq845d4rq0_l026j3g6x8c0000gn/T/arduino-core-cache/core_0bde13c9a0eea2bfdc716a2fc04bccd4.a(exti.c.o)
 .text          0x0000000000000000        0x0 /var/folders/hj/xvmq845d4rq0_l026j3g6x8c0000gn/T/arduino-core-cache/core_0bde13c9a0eea2bfdc716a2fc04bccd4.a(exti_f1.c.o)
 .data          0x0000000000000000        0x0 /var/folders/hj/xvmq845d4rq0_l026j3g6x8c0000gn/T/arduino-core-cache/core_0bde13c9a0eea2bfdc716a2fc04bccd4.a(exti_f1.c.o)
 .bss           0x0000000000000000        0x0 /var/folders/hj/xvmq845d4rq0_l026j3g6x8c0000gn/T/arduino-core-cache/core_0bde13c9a0eea2bfdc716a2fc04bccd4.a(exti_f1.c.o)
 .text.exti_select
                0x0000000000000000       0x1c /var/folders/hj/xvmq845d4rq0_l026j3g6x8c0000gn/T/arduino-core-cache/core_0bde13c9a0eea2bfdc716a2fc04bccd4.a(exti_f1.c.o)
 .debug_info    0x0000000000000000      0x444 /var/folders/hj/xvmq845d4rq0_l026j3g6x8c0000gn/T/arduino-core-cache/core_0bde13c9a0eea2bfdc716a2fc04bccd4.a(exti_f1.c.o)
 .debug_abbrev  0x0000000000000000      0x11f /var/folders/hj/xvmq845d4rq0_l026j3g6x8c0000gn/T/arduino-core-cache/core_0bde13c9a0eea2bfdc716a2fc04bccd4.a(exti_f1.c.o)
 .debug_loc     0x0000000000000000       0x42 /var/folders/hj/xvmq845d4rq0_l026j3g6x8c0000gn/T/arduino-core-cache/core_0bde13c9a0eea2bfdc716a2fc04bccd4.a(exti_f1.c.o)
 .debug_aranges
                0x0000000000000000       0x20 /var/folders/hj/xvmq845d4rq0_l026j3g6x8c0000gn/T/arduino-core-cache/core_0bde13c9a0eea2bfdc716a2fc04bccd4.a(exti_f1.c.o)
 .debug_ranges  0x0000000000000000       0x10 /var/folders/hj/xvmq845d4rq0_l026j3g6x8c0000gn/T/arduino-core-cache/core_0bde13c9a0eea2bfdc716a2fc04bccd4.a(exti_f1.c.o)
 .debug_line    0x0000000000000000      0x2fd /var/folders/hj/xvmq845d4rq0_l026j3g6x8c0000gn/T/arduino-core-cache/core_0bde13c9a0eea2bfdc716a2fc04bccd4.a(exti_f1.c.o)
 .debug_str     0x0000000000000000      0x550 /var/folders/hj/xvmq845d4rq0_l026j3g6x8c0000gn/T/arduino-core-cache/core_0bde13c9a0eea2bfdc716a2fc04bccd4.a(exti_f1.c.o)
 .comment       0x0000000000000000       0x7f /var/folders/hj/xvmq845d4rq0_l026j3g6x8c0000gn/T/arduino-core-cache/core_0bde13c9a0eea2bfdc716a2fc04bccd4.a(exti_f1.c.o)
 .debug_frame   0x0000000000000000       0x2c /var/folders/hj/xvmq845d4rq0_l026j3g6x8c0000gn/T/arduino-core-cache/core_0bde13c9a0eea2bfdc716a2fc04bccd4.a(exti_f1.c.o)
 .text          0x0000000000000000        0x0 /var/folders/hj/xvmq845d4rq0_l026j3g6x8c0000gn/T/arduino-core-cache/core_0bde13c9a0eea2bfdc716a2fc04bccd4.a(flash.c.o)
 .data          0x0000000000000000        0x0 /var/folders/hj/xvmq845d4rq0_l026j3g6x8c0000gn/T/arduino-core-cache/core_0bde13c9a0eea2bfdc716a2fc04bccd4.a(flash.c.o)
 .bss           0x0000000000000000        0x0 /var/folders/hj/xvmq845d4rq0_l026j3g6x8c0000gn/T/arduino-core-cache/core_0bde13c9a0eea2bfdc716a2fc04bccd4.a(flash.c.o)
 .text          0x0000000000000000        0x0 /var/folders/hj/xvmq845d4rq0_l026j3g6x8c0000gn/T/arduino-core-cache/core_0bde13c9a0eea2bfdc716a2fc04bccd4.a(gpio_f1.c.o)
 .data          0x0000000000000000        0x0 /var/folders/hj/xvmq845d4rq0_l026j3g6x8c0000gn/T/arduino-core-cache/core_0bde13c9a0eea2bfdc716a2fc04bccd4.a(gpio_f1.c.o)
 .bss           0x0000000000000000        0x0 /var/folders/hj/xvmq845d4rq0_l026j3g6x8c0000gn/T/arduino-core-cache/core_0bde13c9a0eea2bfdc716a2fc04bccd4.a(gpio_f1.c.o)
 .text.gpio_get_mode
                0x0000000000000000       0x30 /var/folders/hj/xvmq845d4rq0_l026j3g6x8c0000gn/T/arduino-core-cache/core_0bde13c9a0eea2bfdc716a2fc04bccd4.a(gpio_f1.c.o)
 .text.afio_remap
                0x0000000000000000       0x20 /var/folders/hj/xvmq845d4rq0_l026j3g6x8c0000gn/T/arduino-core-cache/core_0bde13c9a0eea2bfdc716a2fc04bccd4.a(gpio_f1.c.o)
 .rodata.GPIOA  0x0000000000000000        0x4 /var/folders/hj/xvmq845d4rq0_l026j3g6x8c0000gn/T/arduino-core-cache/core_0bde13c9a0eea2bfdc716a2fc04bccd4.a(gpio_f1.c.o)
 .rodata.GPIOB  0x0000000000000000        0x4 /var/folders/hj/xvmq845d4rq0_l026j3g6x8c0000gn/T/arduino-core-cache/core_0bde13c9a0eea2bfdc716a2fc04bccd4.a(gpio_f1.c.o)
 .rodata.GPIOD  0x0000000000000000        0x4 /var/folders/hj/xvmq845d4rq0_l026j3g6x8c0000gn/T/arduino-core-cache/core_0bde13c9a0eea2bfdc716a2fc04bccd4.a(gpio_f1.c.o)
 .text          0x0000000000000000        0x0 /var/folders/hj/xvmq845d4rq0_l026j3g6x8c0000gn/T/arduino-core-cache/core_0bde13c9a0eea2bfdc716a2fc04bccd4.a(i2c_f1.c.o)
 .data          0x0000000000000000        0x0 /var/folders/hj/xvmq845d4rq0_l026j3g6x8c0000gn/T/arduino-core-cache/core_0bde13c9a0eea2bfdc716a2fc04bccd4.a(i2c_f1.c.o)
 .bss           0x0000000000000000        0x0 /var/folders/hj/xvmq845d4rq0_l026j3g6x8c0000gn/T/arduino-core-cache/core_0bde13c9a0eea2bfdc716a2fc04bccd4.a(i2c_f1.c.o)
 .text.i2c_config_gpios
                0x0000000000000000       0x70 /var/folders/hj/xvmq845d4rq0_l026j3g6x8c0000gn/T/arduino-core-cache/core_0bde13c9a0eea2bfdc716a2fc04bccd4.a(i2c_f1.c.o)
 .text.i2c_master_release_bus
                0x0000000000000000       0x40 /var/folders/hj/xvmq845d4rq0_l026j3g6x8c0000gn/T/arduino-core-cache/core_0bde13c9a0eea2bfdc716a2fc04bccd4.a(i2c_f1.c.o)
 .text._i2c_irq_priority_fixup
                0x0000000000000000        0xc /var/folders/hj/xvmq845d4rq0_l026j3g6x8c0000gn/T/arduino-core-cache/core_0bde13c9a0eea2bfdc716a2fc04bccd4.a(i2c_f1.c.o)
 .rodata.I2C1   0x0000000000000000        0x4 /var/folders/hj/xvmq845d4rq0_l026j3g6x8c0000gn/T/arduino-core-cache/core_0bde13c9a0eea2bfdc716a2fc04bccd4.a(i2c_f1.c.o)
 .rodata.I2C2   0x0000000000000000        0x4 /var/folders/hj/xvmq845d4rq0_l026j3g6x8c0000gn/T/arduino-core-cache/core_0bde13c9a0eea2bfdc716a2fc04bccd4.a(i2c_f1.c.o)
 .text          0x0000000000000000        0x0 /var/folders/hj/xvmq845d4rq0_l026j3g6x8c0000gn/T/arduino-core-cache/core_0bde13c9a0eea2bfdc716a2fc04bccd4.a(nvic.c.o)
 .data          0x0000000000000000        0x0 /var/folders/hj/xvmq845d4rq0_l026j3g6x8c0000gn/T/arduino-core-cache/core_0bde13c9a0eea2bfdc716a2fc04bccd4.a(nvic.c.o)
 .bss           0x0000000000000000        0x0 /var/folders/hj/xvmq845d4rq0_l026j3g6x8c0000gn/T/arduino-core-cache/core_0bde13c9a0eea2bfdc716a2fc04bccd4.a(nvic.c.o)
 .text.nvic_irq_set_priority
                0x0000000000000000       0x28 /var/folders/hj/xvmq845d4rq0_l026j3g6x8c0000gn/T/arduino-core-cache/core_0bde13c9a0eea2bfdc716a2fc04bccd4.a(nvic.c.o)
 .text.nvic_set_vector_table
                0x0000000000000000       0x14 /var/folders/hj/xvmq845d4rq0_l026j3g6x8c0000gn/T/arduino-core-cache/core_0bde13c9a0eea2bfdc716a2fc04bccd4.a(nvic.c.o)
 .text          0x0000000000000000        0x0 /var/folders/hj/xvmq845d4rq0_l026j3g6x8c0000gn/T/arduino-core-cache/core_0bde13c9a0eea2bfdc716a2fc04bccd4.a(rcc.c.o)
 .data          0x0000000000000000        0x0 /var/folders/hj/xvmq845d4rq0_l026j3g6x8c0000gn/T/arduino-core-cache/core_0bde13c9a0eea2bfdc716a2fc04bccd4.a(rcc.c.o)
 .bss           0x0000000000000000        0x0 /var/folders/hj/xvmq845d4rq0_l026j3g6x8c0000gn/T/arduino-core-cache/core_0bde13c9a0eea2bfdc716a2fc04bccd4.a(rcc.c.o)
 .text.rcc_is_clk_on
                0x0000000000000000       0x20 /var/folders/hj/xvmq845d4rq0_l026j3g6x8c0000gn/T/arduino-core-cache/core_0bde13c9a0eea2bfdc716a2fc04bccd4.a(rcc.c.o)
 .text          0x0000000000000000        0x0 /var/folders/hj/xvmq845d4rq0_l026j3g6x8c0000gn/T/arduino-core-cache/core_0bde13c9a0eea2bfdc716a2fc04bccd4.a(rcc_f1.c.o)
 .data          0x0000000000000000        0x0 /var/folders/hj/xvmq845d4rq0_l026j3g6x8c0000gn/T/arduino-core-cache/core_0bde13c9a0eea2bfdc716a2fc04bccd4.a(rcc_f1.c.o)
 .bss           0x0000000000000000        0x0 /var/folders/hj/xvmq845d4rq0_l026j3g6x8c0000gn/T/arduino-core-cache/core_0bde13c9a0eea2bfdc716a2fc04bccd4.a(rcc_f1.c.o)
 .text.rcc_clk_init
                0x0000000000000000       0x3c /var/folders/hj/xvmq845d4rq0_l026j3g6x8c0000gn/T/arduino-core-cache/core_0bde13c9a0eea2bfdc716a2fc04bccd4.a(rcc_f1.c.o)
 .text          0x0000000000000000        0x0 /var/folders/hj/xvmq845d4rq0_l026j3g6x8c0000gn/T/arduino-core-cache/core_0bde13c9a0eea2bfdc716a2fc04bccd4.a(systick.c.o)
 .data          0x0000000000000000        0x0 /var/folders/hj/xvmq845d4rq0_l026j3g6x8c0000gn/T/arduino-core-cache/core_0bde13c9a0eea2bfdc716a2fc04bccd4.a(systick.c.o)
 .bss           0x0000000000000000        0x0 /var/folders/hj/xvmq845d4rq0_l026j3g6x8c0000gn/T/arduino-core-cache/core_0bde13c9a0eea2bfdc716a2fc04bccd4.a(systick.c.o)
 .text.systick_disable
                0x0000000000000000        0xc /var/folders/hj/xvmq845d4rq0_l026j3g6x8c0000gn/T/arduino-core-cache/core_0bde13c9a0eea2bfdc716a2fc04bccd4.a(systick.c.o)
 .text.systick_enable
                0x0000000000000000        0xc /var/folders/hj/xvmq845d4rq0_l026j3g6x8c0000gn/T/arduino-core-cache/core_0bde13c9a0eea2bfdc716a2fc04bccd4.a(systick.c.o)
 .text.systick_attach_callback
                0x0000000000000000        0xc /var/folders/hj/xvmq845d4rq0_l026j3g6x8c0000gn/T/arduino-core-cache/core_0bde13c9a0eea2bfdc716a2fc04bccd4.a(systick.c.o)
 .text          0x0000000000000000        0x0 /var/folders/hj/xvmq845d4rq0_l026j3g6x8c0000gn/T/arduino-core-cache/core_0bde13c9a0eea2bfdc716a2fc04bccd4.a(timer.c.o)
 .data          0x0000000000000000        0x0 /var/folders/hj/xvmq845d4rq0_l026j3g6x8c0000gn/T/arduino-core-cache/core_0bde13c9a0eea2bfdc716a2fc04bccd4.a(timer.c.o)
 .bss           0x0000000000000000        0x0 /var/folders/hj/xvmq845d4rq0_l026j3g6x8c0000gn/T/arduino-core-cache/core_0bde13c9a0eea2bfdc716a2fc04bccd4.a(timer.c.o)
 .text.dispatch_single_irq
                0x0000000000000000       0x20 /var/folders/hj/xvmq845d4rq0_l026j3g6x8c0000gn/T/arduino-core-cache/core_0bde13c9a0eea2bfdc716a2fc04bccd4.a(timer.c.o)
 .text.dispatch_adv_brk
                0x0000000000000000       0x1c /var/folders/hj/xvmq845d4rq0_l026j3g6x8c0000gn/T/arduino-core-cache/core_0bde13c9a0eea2bfdc716a2fc04bccd4.a(timer.c.o)
 .text.dispatch_adv_up
                0x0000000000000000       0x1c /var/folders/hj/xvmq845d4rq0_l026j3g6x8c0000gn/T/arduino-core-cache/core_0bde13c9a0eea2bfdc716a2fc04bccd4.a(timer.c.o)
 .text.dispatch_adv_trg_com
                0x0000000000000000       0x38 /var/folders/hj/xvmq845d4rq0_l026j3g6x8c0000gn/T/arduino-core-cache/core_0bde13c9a0eea2bfdc716a2fc04bccd4.a(timer.c.o)
 .text.dispatch_adv_cc
                0x0000000000000000       0x60 /var/folders/hj/xvmq845d4rq0_l026j3g6x8c0000gn/T/arduino-core-cache/core_0bde13c9a0eea2bfdc716a2fc04bccd4.a(timer.c.o)
 .text.dispatch_general
                0x0000000000000000       0x7c /var/folders/hj/xvmq845d4rq0_l026j3g6x8c0000gn/T/arduino-core-cache/core_0bde13c9a0eea2bfdc716a2fc04bccd4.a(timer.c.o)
 .text.timer_disable
                0x0000000000000000       0x14 /var/folders/hj/xvmq845d4rq0_l026j3g6x8c0000gn/T/arduino-core-cache/core_0bde13c9a0eea2bfdc716a2fc04bccd4.a(timer.c.o)
 .text.timer_set_mode
                0x0000000000000000      0x154 /var/folders/hj/xvmq845d4rq0_l026j3g6x8c0000gn/T/arduino-core-cache/core_0bde13c9a0eea2bfdc716a2fc04bccd4.a(timer.c.o)
 .text.timer_attach_interrupt
                0x0000000000000000      0x13c /var/folders/hj/xvmq845d4rq0_l026j3g6x8c0000gn/T/arduino-core-cache/core_0bde13c9a0eea2bfdc716a2fc04bccd4.a(timer.c.o)
 .text.timer_detach_interrupt
                0x0000000000000000       0x24 /var/folders/hj/xvmq845d4rq0_l026j3g6x8c0000gn/T/arduino-core-cache/core_0bde13c9a0eea2bfdc716a2fc04bccd4.a(timer.c.o)
 .text.get_direction
                0x0000000000000000       0x10 /var/folders/hj/xvmq845d4rq0_l026j3g6x8c0000gn/T/arduino-core-cache/core_0bde13c9a0eea2bfdc716a2fc04bccd4.a(timer.c.o)
 .text.input_capture_mode
                0x0000000000000000       0x4c /var/folders/hj/xvmq845d4rq0_l026j3g6x8c0000gn/T/arduino-core-cache/core_0bde13c9a0eea2bfdc716a2fc04bccd4.a(timer.c.o)
 .rodata.TIMER1
                0x0000000000000000        0x4 /var/folders/hj/xvmq845d4rq0_l026j3g6x8c0000gn/T/arduino-core-cache/core_0bde13c9a0eea2bfdc716a2fc04bccd4.a(timer.c.o)
 .rodata.TIMER2
                0x0000000000000000        0x4 /var/folders/hj/xvmq845d4rq0_l026j3g6x8c0000gn/T/arduino-core-cache/core_0bde13c9a0eea2bfdc716a2fc04bccd4.a(timer.c.o)
 .rodata.TIMER3
                0x0000000000000000        0x4 /var/folders/hj/xvmq845d4rq0_l026j3g6x8c0000gn/T/arduino-core-cache/core_0bde13c9a0eea2bfdc716a2fc04bccd4.a(timer.c.o)
 .rodata.TIMER4
                0x0000000000000000        0x4 /var/folders/hj/xvmq845d4rq0_l026j3g6x8c0000gn/T/arduino-core-cache/core_0bde13c9a0eea2bfdc716a2fc04bccd4.a(timer.c.o)
 .text          0x0000000000000000        0x0 /var/folders/hj/xvmq845d4rq0_l026j3g6x8c0000gn/T/arduino-core-cache/core_0bde13c9a0eea2bfdc716a2fc04bccd4.a(usart_f1.c.o)
 .data          0x0000000000000000        0x0 /var/folders/hj/xvmq845d4rq0_l026j3g6x8c0000gn/T/arduino-core-cache/core_0bde13c9a0eea2bfdc716a2fc04bccd4.a(usart_f1.c.o)
 .bss           0x0000000000000000        0x0 /var/folders/hj/xvmq845d4rq0_l026j3g6x8c0000gn/T/arduino-core-cache/core_0bde13c9a0eea2bfdc716a2fc04bccd4.a(usart_f1.c.o)
 .text.usart_irq
                0x0000000000000000       0xbc /var/folders/hj/xvmq845d4rq0_l026j3g6x8c0000gn/T/arduino-core-cache/core_0bde13c9a0eea2bfdc716a2fc04bccd4.a(usart_f1.c.o)
 .text.usart_config_gpios_async
                0x0000000000000000       0x4c /var/folders/hj/xvmq845d4rq0_l026j3g6x8c0000gn/T/arduino-core-cache/core_0bde13c9a0eea2bfdc716a2fc04bccd4.a(usart_f1.c.o)
 .text.usart_set_baud_rate
                0x0000000000000000       0x48 /var/folders/hj/xvmq845d4rq0_l026j3g6x8c0000gn/T/arduino-core-cache/core_0bde13c9a0eea2bfdc716a2fc04bccd4.a(usart_f1.c.o)
 .text.usart_foreach
                0x0000000000000000       0x28 /var/folders/hj/xvmq845d4rq0_l026j3g6x8c0000gn/T/arduino-core-cache/core_0bde13c9a0eea2bfdc716a2fc04bccd4.a(usart_f1.c.o)
 .text          0x0000000000000000        0x0 /var/folders/hj/xvmq845d4rq0_l026j3g6x8c0000gn/T/arduino-core-cache/core_0bde13c9a0eea2bfdc716a2fc04bccd4.a(usart_private.c.o)
 .data          0x0000000000000000        0x0 /var/folders/hj/xvmq845d4rq0_l026j3g6x8c0000gn/T/arduino-core-cache/core_0bde13c9a0eea2bfdc716a2fc04bccd4.a(usart_private.c.o)
 .bss           0x0000000000000000        0x0 /var/folders/hj/xvmq845d4rq0_l026j3g6x8c0000gn/T/arduino-core-cache/core_0bde13c9a0eea2bfdc716a2fc04bccd4.a(usart_private.c.o)
 .text._usart_clock_freq
                0x0000000000000000       0x24 /var/folders/hj/xvmq845d4rq0_l026j3g6x8c0000gn/T/arduino-core-cache/core_0bde13c9a0eea2bfdc716a2fc04bccd4.a(usart_private.c.o)
 .debug_info    0x0000000000000000      0x5c2 /var/folders/hj/xvmq845d4rq0_l026j3g6x8c0000gn/T/arduino-core-cache/core_0bde13c9a0eea2bfdc716a2fc04bccd4.a(usart_private.c.o)
 .debug_abbrev  0x0000000000000000      0x15f /var/folders/hj/xvmq845d4rq0_l026j3g6x8c0000gn/T/arduino-core-cache/core_0bde13c9a0eea2bfdc716a2fc04bccd4.a(usart_private.c.o)
 .debug_loc     0x0000000000000000       0x3f /var/folders/hj/xvmq845d4rq0_l026j3g6x8c0000gn/T/arduino-core-cache/core_0bde13c9a0eea2bfdc716a2fc04bccd4.a(usart_private.c.o)
 .debug_aranges
                0x0000000000000000       0x20 /var/folders/hj/xvmq845d4rq0_l026j3g6x8c0000gn/T/arduino-core-cache/core_0bde13c9a0eea2bfdc716a2fc04bccd4.a(usart_private.c.o)
 .debug_ranges  0x0000000000000000       0x10 /var/folders/hj/xvmq845d4rq0_l026j3g6x8c0000gn/T/arduino-core-cache/core_0bde13c9a0eea2bfdc716a2fc04bccd4.a(usart_private.c.o)
 .debug_line    0x0000000000000000      0x2c7 /var/folders/hj/xvmq845d4rq0_l026j3g6x8c0000gn/T/arduino-core-cache/core_0bde13c9a0eea2bfdc716a2fc04bccd4.a(usart_private.c.o)
 .debug_str     0x0000000000000000      0x8cb /var/folders/hj/xvmq845d4rq0_l026j3g6x8c0000gn/T/arduino-core-cache/core_0bde13c9a0eea2bfdc716a2fc04bccd4.a(usart_private.c.o)
 .comment       0x0000000000000000       0x7f /var/folders/hj/xvmq845d4rq0_l026j3g6x8c0000gn/T/arduino-core-cache/core_0bde13c9a0eea2bfdc716a2fc04bccd4.a(usart_private.c.o)
 .debug_frame   0x0000000000000000       0x28 /var/folders/hj/xvmq845d4rq0_l026j3g6x8c0000gn/T/arduino-core-cache/core_0bde13c9a0eea2bfdc716a2fc04bccd4.a(usart_private.c.o)
 .text          0x0000000000000000        0x0 /var/folders/hj/xvmq845d4rq0_l026j3g6x8c0000gn/T/arduino-core-cache/core_0bde13c9a0eea2bfdc716a2fc04bccd4.a(usb.c.o)
 .data          0x0000000000000000        0x0 /var/folders/hj/xvmq845d4rq0_l026j3g6x8c0000gn/T/arduino-core-cache/core_0bde13c9a0eea2bfdc716a2fc04bccd4.a(usb.c.o)
 .bss           0x0000000000000000        0x0 /var/folders/hj/xvmq845d4rq0_l026j3g6x8c0000gn/T/arduino-core-cache/core_0bde13c9a0eea2bfdc716a2fc04bccd4.a(usb.c.o)
 .text.usb_power_off
                0x0000000000000000       0x14 /var/folders/hj/xvmq845d4rq0_l026j3g6x8c0000gn/T/arduino-core-cache/core_0bde13c9a0eea2bfdc716a2fc04bccd4.a(usb.c.o)
 .text          0x0000000000000000        0x0 /var/folders/hj/xvmq845d4rq0_l026j3g6x8c0000gn/T/arduino-core-cache/core_0bde13c9a0eea2bfdc716a2fc04bccd4.a(usb_cdcacm.c.o)
 .data          0x0000000000000000        0x0 /var/folders/hj/xvmq845d4rq0_l026j3g6x8c0000gn/T/arduino-core-cache/core_0bde13c9a0eea2bfdc716a2fc04bccd4.a(usb_cdcacm.c.o)
 .bss           0x0000000000000000        0x0 /var/folders/hj/xvmq845d4rq0_l026j3g6x8c0000gn/T/arduino-core-cache/core_0bde13c9a0eea2bfdc716a2fc04bccd4.a(usb_cdcacm.c.o)
 .text.usb_cdcacm_disable
                0x0000000000000000       0x20 /var/folders/hj/xvmq845d4rq0_l026j3g6x8c0000gn/T/arduino-core-cache/core_0bde13c9a0eea2bfdc716a2fc04bccd4.a(usb_cdcacm.c.o)
 .text.usb_cdcacm_putc
                0x0000000000000000       0x40 /var/folders/hj/xvmq845d4rq0_l026j3g6x8c0000gn/T/arduino-core-cache/core_0bde13c9a0eea2bfdc716a2fc04bccd4.a(usb_cdcacm.c.o)
 .text.usb_cdcacm_is_transmitting
                0x0000000000000000       0x14 /var/folders/hj/xvmq845d4rq0_l026j3g6x8c0000gn/T/arduino-core-cache/core_0bde13c9a0eea2bfdc716a2fc04bccd4.a(usb_cdcacm.c.o)
 .text.usb_cdcacm_tx_available
                0x0000000000000000       0x1c /var/folders/hj/xvmq845d4rq0_l026j3g6x8c0000gn/T/arduino-core-cache/core_0bde13c9a0eea2bfdc716a2fc04bccd4.a(usb_cdcacm.c.o)
 .text.usb_cdcacm_get_pending
                0x0000000000000000       0x18 /var/folders/hj/xvmq845d4rq0_l026j3g6x8c0000gn/T/arduino-core-cache/core_0bde13c9a0eea2bfdc716a2fc04bccd4.a(usb_cdcacm.c.o)
 .text.usb_cdcacm_peek_char
                0x0000000000000000       0x2c /var/folders/hj/xvmq845d4rq0_l026j3g6x8c0000gn/T/arduino-core-cache/core_0bde13c9a0eea2bfdc716a2fc04bccd4.a(usb_cdcacm.c.o)
 .text.usb_cdcacm_get_rts
                0x0000000000000000       0x10 /var/folders/hj/xvmq845d4rq0_l026j3g6x8c0000gn/T/arduino-core-cache/core_0bde13c9a0eea2bfdc716a2fc04bccd4.a(usb_cdcacm.c.o)
 .text.usb_cdcacm_get_line_coding
                0x0000000000000000       0x18 /var/folders/hj/xvmq845d4rq0_l026j3g6x8c0000gn/T/arduino-core-cache/core_0bde13c9a0eea2bfdc716a2fc04bccd4.a(usb_cdcacm.c.o)
 .text.usb_cdcacm_get_baud
                0x0000000000000000        0xc /var/folders/hj/xvmq845d4rq0_l026j3g6x8c0000gn/T/arduino-core-cache/core_0bde13c9a0eea2bfdc716a2fc04bccd4.a(usb_cdcacm.c.o)
 .text.usb_cdcacm_get_stop_bits
                0x0000000000000000        0xc /var/folders/hj/xvmq845d4rq0_l026j3g6x8c0000gn/T/arduino-core-cache/core_0bde13c9a0eea2bfdc716a2fc04bccd4.a(usb_cdcacm.c.o)
 .text.usb_cdcacm_get_parity
                0x0000000000000000        0xc /var/folders/hj/xvmq845d4rq0_l026j3g6x8c0000gn/T/arduino-core-cache/core_0bde13c9a0eea2bfdc716a2fc04bccd4.a(usb_cdcacm.c.o)
 .text.usb_cdcacm_get_n_data_bits
                0x0000000000000000        0xc /var/folders/hj/xvmq845d4rq0_l026j3g6x8c0000gn/T/arduino-core-cache/core_0bde13c9a0eea2bfdc716a2fc04bccd4.a(usb_cdcacm.c.o)
 .text          0x0000000000000000        0x0 /var/folders/hj/xvmq845d4rq0_l026j3g6x8c0000gn/T/arduino-core-cache/core_0bde13c9a0eea2bfdc716a2fc04bccd4.a(usb_reg_map.c.o)
 .data          0x0000000000000000        0x0 /var/folders/hj/xvmq845d4rq0_l026j3g6x8c0000gn/T/arduino-core-cache/core_0bde13c9a0eea2bfdc716a2fc04bccd4.a(usb_reg_map.c.o)
 .bss           0x0000000000000000        0x0 /var/folders/hj/xvmq845d4rq0_l026j3g6x8c0000gn/T/arduino-core-cache/core_0bde13c9a0eea2bfdc716a2fc04bccd4.a(usb_reg_map.c.o)
 .text          0x0000000000000000        0x0 /var/folders/hj/xvmq845d4rq0_l026j3g6x8c0000gn/T/arduino-core-cache/core_0bde13c9a0eea2bfdc716a2fc04bccd4.a(usb_core.c.o)
 .data          0x0000000000000000        0x0 /var/folders/hj/xvmq845d4rq0_l026j3g6x8c0000gn/T/arduino-core-cache/core_0bde13c9a0eea2bfdc716a2fc04bccd4.a(usb_core.c.o)
 .bss           0x0000000000000000        0x0 /var/folders/hj/xvmq845d4rq0_l026j3g6x8c0000gn/T/arduino-core-cache/core_0bde13c9a0eea2bfdc716a2fc04bccd4.a(usb_core.c.o)
 .text.Standard_SetConfiguration
                0x0000000000000000       0x3c /var/folders/hj/xvmq845d4rq0_l026j3g6x8c0000gn/T/arduino-core-cache/core_0bde13c9a0eea2bfdc716a2fc04bccd4.a(usb_core.c.o)
 .text.Standard_SetInterface
                0x0000000000000000       0x50 /var/folders/hj/xvmq845d4rq0_l026j3g6x8c0000gn/T/arduino-core-cache/core_0bde13c9a0eea2bfdc716a2fc04bccd4.a(usb_core.c.o)
 .text.Standard_SetDeviceFeature
                0x0000000000000000       0x24 /var/folders/hj/xvmq845d4rq0_l026j3g6x8c0000gn/T/arduino-core-cache/core_0bde13c9a0eea2bfdc716a2fc04bccd4.a(usb_core.c.o)
 .text.Post0_Process
                0x0000000000000000       0x44 /var/folders/hj/xvmq845d4rq0_l026j3g6x8c0000gn/T/arduino-core-cache/core_0bde13c9a0eea2bfdc716a2fc04bccd4.a(usb_core.c.o)
 .text          0x0000000000000000        0x0 /var/folders/hj/xvmq845d4rq0_l026j3g6x8c0000gn/T/arduino-core-cache/core_0bde13c9a0eea2bfdc716a2fc04bccd4.a(usb_init.c.o)
 .data          0x0000000000000000        0x0 /var/folders/hj/xvmq845d4rq0_l026j3g6x8c0000gn/T/arduino-core-cache/core_0bde13c9a0eea2bfdc716a2fc04bccd4.a(usb_init.c.o)
 .bss           0x0000000000000000        0x0 /var/folders/hj/xvmq845d4rq0_l026j3g6x8c0000gn/T/arduino-core-cache/core_0bde13c9a0eea2bfdc716a2fc04bccd4.a(usb_init.c.o)
 .text.USB_Init
                0x0000000000000000       0x38 /var/folders/hj/xvmq845d4rq0_l026j3g6x8c0000gn/T/arduino-core-cache/core_0bde13c9a0eea2bfdc716a2fc04bccd4.a(usb_init.c.o)
 .text          0x0000000000000000        0x0 /var/folders/hj/xvmq845d4rq0_l026j3g6x8c0000gn/T/arduino-core-cache/core_0bde13c9a0eea2bfdc716a2fc04bccd4.a(usb_mem.c.o)
 .data          0x0000000000000000        0x0 /var/folders/hj/xvmq845d4rq0_l026j3g6x8c0000gn/T/arduino-core-cache/core_0bde13c9a0eea2bfdc716a2fc04bccd4.a(usb_mem.c.o)
 .bss           0x0000000000000000        0x0 /var/folders/hj/xvmq845d4rq0_l026j3g6x8c0000gn/T/arduino-core-cache/core_0bde13c9a0eea2bfdc716a2fc04bccd4.a(usb_mem.c.o)
 .text          0x0000000000000000        0x0 /var/folders/hj/xvmq845d4rq0_l026j3g6x8c0000gn/T/arduino-core-cache/core_0bde13c9a0eea2bfdc716a2fc04bccd4.a(usb_regs.c.o)
 .data          0x0000000000000000        0x0 /var/folders/hj/xvmq845d4rq0_l026j3g6x8c0000gn/T/arduino-core-cache/core_0bde13c9a0eea2bfdc716a2fc04bccd4.a(usb_regs.c.o)
 .bss           0x0000000000000000        0x0 /var/folders/hj/xvmq845d4rq0_l026j3g6x8c0000gn/T/arduino-core-cache/core_0bde13c9a0eea2bfdc716a2fc04bccd4.a(usb_regs.c.o)
 .text.SetCNTR  0x0000000000000000        0xc /var/folders/hj/xvmq845d4rq0_l026j3g6x8c0000gn/T/arduino-core-cache/core_0bde13c9a0eea2bfdc716a2fc04bccd4.a(usb_regs.c.o)
 .text.GetCNTR  0x0000000000000000        0xc /var/folders/hj/xvmq845d4rq0_l026j3g6x8c0000gn/T/arduino-core-cache/core_0bde13c9a0eea2bfdc716a2fc04bccd4.a(usb_regs.c.o)
 .text.SetISTR  0x0000000000000000        0xc /var/folders/hj/xvmq845d4rq0_l026j3g6x8c0000gn/T/arduino-core-cache/core_0bde13c9a0eea2bfdc716a2fc04bccd4.a(usb_regs.c.o)
 .text.GetISTR  0x0000000000000000        0xc /var/folders/hj/xvmq845d4rq0_l026j3g6x8c0000gn/T/arduino-core-cache/core_0bde13c9a0eea2bfdc716a2fc04bccd4.a(usb_regs.c.o)
 .text.GetFNR   0x0000000000000000        0xc /var/folders/hj/xvmq845d4rq0_l026j3g6x8c0000gn/T/arduino-core-cache/core_0bde13c9a0eea2bfdc716a2fc04bccd4.a(usb_regs.c.o)
 .text.SetDADDR
                0x0000000000000000        0xc /var/folders/hj/xvmq845d4rq0_l026j3g6x8c0000gn/T/arduino-core-cache/core_0bde13c9a0eea2bfdc716a2fc04bccd4.a(usb_regs.c.o)
 .text.GetDADDR
                0x0000000000000000        0xc /var/folders/hj/xvmq845d4rq0_l026j3g6x8c0000gn/T/arduino-core-cache/core_0bde13c9a0eea2bfdc716a2fc04bccd4.a(usb_regs.c.o)
 .text.SetBTABLE
                0x0000000000000000       0x10 /var/folders/hj/xvmq845d4rq0_l026j3g6x8c0000gn/T/arduino-core-cache/core_0bde13c9a0eea2bfdc716a2fc04bccd4.a(usb_regs.c.o)
 .text.GetBTABLE
                0x0000000000000000        0xc /var/folders/hj/xvmq845d4rq0_l026j3g6x8c0000gn/T/arduino-core-cache/core_0bde13c9a0eea2bfdc716a2fc04bccd4.a(usb_regs.c.o)
 .text.SetENDPOINT
                0x0000000000000000       0x10 /var/folders/hj/xvmq845d4rq0_l026j3g6x8c0000gn/T/arduino-core-cache/core_0bde13c9a0eea2bfdc716a2fc04bccd4.a(usb_regs.c.o)
 .text.GetENDPOINT
                0x0000000000000000       0x10 /var/folders/hj/xvmq845d4rq0_l026j3g6x8c0000gn/T/arduino-core-cache/core_0bde13c9a0eea2bfdc716a2fc04bccd4.a(usb_regs.c.o)
 .text.SetEPType
                0x0000000000000000       0x1c /var/folders/hj/xvmq845d4rq0_l026j3g6x8c0000gn/T/arduino-core-cache/core_0bde13c9a0eea2bfdc716a2fc04bccd4.a(usb_regs.c.o)
 .text.GetEPType
                0x0000000000000000       0x14 /var/folders/hj/xvmq845d4rq0_l026j3g6x8c0000gn/T/arduino-core-cache/core_0bde13c9a0eea2bfdc716a2fc04bccd4.a(usb_regs.c.o)
 .text.SetEPRxStatus
                0x0000000000000000       0x2c /var/folders/hj/xvmq845d4rq0_l026j3g6x8c0000gn/T/arduino-core-cache/core_0bde13c9a0eea2bfdc716a2fc04bccd4.a(usb_regs.c.o)
 .text.SetDouBleBuffEPStall
                0x0000000000000000       0x2c /var/folders/hj/xvmq845d4rq0_l026j3g6x8c0000gn/T/arduino-core-cache/core_0bde13c9a0eea2bfdc716a2fc04bccd4.a(usb_regs.c.o)
 .text.GetEPTxStatus
                0x0000000000000000       0x14 /var/folders/hj/xvmq845d4rq0_l026j3g6x8c0000gn/T/arduino-core-cache/core_0bde13c9a0eea2bfdc716a2fc04bccd4.a(usb_regs.c.o)
 .text.GetEPRxStatus
                0x0000000000000000       0x14 /var/folders/hj/xvmq845d4rq0_l026j3g6x8c0000gn/T/arduino-core-cache/core_0bde13c9a0eea2bfdc716a2fc04bccd4.a(usb_regs.c.o)
 .text.SetEPTxValid
                0x0000000000000000       0x20 /var/folders/hj/xvmq845d4rq0_l026j3g6x8c0000gn/T/arduino-core-cache/core_0bde13c9a0eea2bfdc716a2fc04bccd4.a(usb_regs.c.o)
 .text.SetEPRxValid
                0x0000000000000000       0x20 /var/folders/hj/xvmq845d4rq0_l026j3g6x8c0000gn/T/arduino-core-cache/core_0bde13c9a0eea2bfdc716a2fc04bccd4.a(usb_regs.c.o)
 .text.SetEP_KIND
                0x0000000000000000       0x20 /var/folders/hj/xvmq845d4rq0_l026j3g6x8c0000gn/T/arduino-core-cache/core_0bde13c9a0eea2bfdc716a2fc04bccd4.a(usb_regs.c.o)
 .text.ClearEP_KIND
                0x0000000000000000       0x18 /var/folders/hj/xvmq845d4rq0_l026j3g6x8c0000gn/T/arduino-core-cache/core_0bde13c9a0eea2bfdc716a2fc04bccd4.a(usb_regs.c.o)
 .text.Clear_Status_Out
                0x0000000000000000       0x18 /var/folders/hj/xvmq845d4rq0_l026j3g6x8c0000gn/T/arduino-core-cache/core_0bde13c9a0eea2bfdc716a2fc04bccd4.a(usb_regs.c.o)
 .text.Set_Status_Out
                0x0000000000000000       0x20 /var/folders/hj/xvmq845d4rq0_l026j3g6x8c0000gn/T/arduino-core-cache/core_0bde13c9a0eea2bfdc716a2fc04bccd4.a(usb_regs.c.o)
 .text.SetEPDoubleBuff
                0x0000000000000000       0x20 /var/folders/hj/xvmq845d4rq0_l026j3g6x8c0000gn/T/arduino-core-cache/core_0bde13c9a0eea2bfdc716a2fc04bccd4.a(usb_regs.c.o)
 .text.ClearEPDoubleBuff
                0x0000000000000000       0x18 /var/folders/hj/xvmq845d4rq0_l026j3g6x8c0000gn/T/arduino-core-cache/core_0bde13c9a0eea2bfdc716a2fc04bccd4.a(usb_regs.c.o)
 .text.GetTxStallStatus
                0x0000000000000000       0x1c /var/folders/hj/xvmq845d4rq0_l026j3g6x8c0000gn/T/arduino-core-cache/core_0bde13c9a0eea2bfdc716a2fc04bccd4.a(usb_regs.c.o)
 .text.GetRxStallStatus
                0x0000000000000000       0x1c /var/folders/hj/xvmq845d4rq0_l026j3g6x8c0000gn/T/arduino-core-cache/core_0bde13c9a0eea2bfdc716a2fc04bccd4.a(usb_regs.c.o)
 .text.ClearEP_CTR_RX
                0x0000000000000000       0x18 /var/folders/hj/xvmq845d4rq0_l026j3g6x8c0000gn/T/arduino-core-cache/core_0bde13c9a0eea2bfdc716a2fc04bccd4.a(usb_regs.c.o)
 .text.ClearEP_CTR_TX
                0x0000000000000000       0x18 /var/folders/hj/xvmq845d4rq0_l026j3g6x8c0000gn/T/arduino-core-cache/core_0bde13c9a0eea2bfdc716a2fc04bccd4.a(usb_regs.c.o)
 .text.ToggleDTOG_RX
                0x0000000000000000       0x1c /var/folders/hj/xvmq845d4rq0_l026j3g6x8c0000gn/T/arduino-core-cache/core_0bde13c9a0eea2bfdc716a2fc04bccd4.a(usb_regs.c.o)
 .text.ToggleDTOG_TX
                0x0000000000000000       0x1c /var/folders/hj/xvmq845d4rq0_l026j3g6x8c0000gn/T/arduino-core-cache/core_0bde13c9a0eea2bfdc716a2fc04bccd4.a(usb_regs.c.o)
 .text.SetEPAddress
                0x0000000000000000       0x18 /var/folders/hj/xvmq845d4rq0_l026j3g6x8c0000gn/T/arduino-core-cache/core_0bde13c9a0eea2bfdc716a2fc04bccd4.a(usb_regs.c.o)
 .text.GetEPAddress
                0x0000000000000000       0x14 /var/folders/hj/xvmq845d4rq0_l026j3g6x8c0000gn/T/arduino-core-cache/core_0bde13c9a0eea2bfdc716a2fc04bccd4.a(usb_regs.c.o)
 .text.SetEPTxAddr
                0x0000000000000000       0x20 /var/folders/hj/xvmq845d4rq0_l026j3g6x8c0000gn/T/arduino-core-cache/core_0bde13c9a0eea2bfdc716a2fc04bccd4.a(usb_regs.c.o)
 .text.SetEPRxAddr
                0x0000000000000000       0x20 /var/folders/hj/xvmq845d4rq0_l026j3g6x8c0000gn/T/arduino-core-cache/core_0bde13c9a0eea2bfdc716a2fc04bccd4.a(usb_regs.c.o)
 .text.SetEPCountRxReg
                0x0000000000000000       0x28 /var/folders/hj/xvmq845d4rq0_l026j3g6x8c0000gn/T/arduino-core-cache/core_0bde13c9a0eea2bfdc716a2fc04bccd4.a(usb_regs.c.o)
 .text.GetEPTxCount
                0x0000000000000000       0x20 /var/folders/hj/xvmq845d4rq0_l026j3g6x8c0000gn/T/arduino-core-cache/core_0bde13c9a0eea2bfdc716a2fc04bccd4.a(usb_regs.c.o)
 .text.GetEPRxCount
                0x0000000000000000       0x20 /var/folders/hj/xvmq845d4rq0_l026j3g6x8c0000gn/T/arduino-core-cache/core_0bde13c9a0eea2bfdc716a2fc04bccd4.a(usb_regs.c.o)
 .text.SetEPDblBuffAddr
                0x0000000000000000       0x3c /var/folders/hj/xvmq845d4rq0_l026j3g6x8c0000gn/T/arduino-core-cache/core_0bde13c9a0eea2bfdc716a2fc04bccd4.a(usb_regs.c.o)
 .text.SetEPDblBuf0Addr
                0x0000000000000000       0x20 /var/folders/hj/xvmq845d4rq0_l026j3g6x8c0000gn/T/arduino-core-cache/core_0bde13c9a0eea2bfdc716a2fc04bccd4.a(usb_regs.c.o)
 .text.SetEPDblBuf1Addr
                0x0000000000000000       0x20 /var/folders/hj/xvmq845d4rq0_l026j3g6x8c0000gn/T/arduino-core-cache/core_0bde13c9a0eea2bfdc716a2fc04bccd4.a(usb_regs.c.o)
 .text.GetEPDblBuf0Addr
                0x0000000000000000       0x1c /var/folders/hj/xvmq845d4rq0_l026j3g6x8c0000gn/T/arduino-core-cache/core_0bde13c9a0eea2bfdc716a2fc04bccd4.a(usb_regs.c.o)
 .text.GetEPDblBuf1Addr
                0x0000000000000000       0x1c /var/folders/hj/xvmq845d4rq0_l026j3g6x8c0000gn/T/arduino-core-cache/core_0bde13c9a0eea2bfdc716a2fc04bccd4.a(usb_regs.c.o)
 .text.SetEPDblBuffCount
                0x0000000000000000       0xa4 /var/folders/hj/xvmq845d4rq0_l026j3g6x8c0000gn/T/arduino-core-cache/core_0bde13c9a0eea2bfdc716a2fc04bccd4.a(usb_regs.c.o)
 .text.SetEPDblBuf0Count
                0x0000000000000000       0x60 /var/folders/hj/xvmq845d4rq0_l026j3g6x8c0000gn/T/arduino-core-cache/core_0bde13c9a0eea2bfdc716a2fc04bccd4.a(usb_regs.c.o)
 .text.SetEPDblBuf1Count
                0x0000000000000000       0x60 /var/folders/hj/xvmq845d4rq0_l026j3g6x8c0000gn/T/arduino-core-cache/core_0bde13c9a0eea2bfdc716a2fc04bccd4.a(usb_regs.c.o)
 .text.GetEPDblBuf0Count
                0x0000000000000000       0x20 /var/folders/hj/xvmq845d4rq0_l026j3g6x8c0000gn/T/arduino-core-cache/core_0bde13c9a0eea2bfdc716a2fc04bccd4.a(usb_regs.c.o)
 .text.GetEPDblBuf1Count
                0x0000000000000000       0x20 /var/folders/hj/xvmq845d4rq0_l026j3g6x8c0000gn/T/arduino-core-cache/core_0bde13c9a0eea2bfdc716a2fc04bccd4.a(usb_regs.c.o)
 .text.GetEPDblBufDir
                0x0000000000000000       0x44 /var/folders/hj/xvmq845d4rq0_l026j3g6x8c0000gn/T/arduino-core-cache/core_0bde13c9a0eea2bfdc716a2fc04bccd4.a(usb_regs.c.o)
 .text.FreeUserBuffer
                0x0000000000000000       0x40 /var/folders/hj/xvmq845d4rq0_l026j3g6x8c0000gn/T/arduino-core-cache/core_0bde13c9a0eea2bfdc716a2fc04bccd4.a(usb_regs.c.o)
 .text.ToWord   0x0000000000000000        0x8 /var/folders/hj/xvmq845d4rq0_l026j3g6x8c0000gn/T/arduino-core-cache/core_0bde13c9a0eea2bfdc716a2fc04bccd4.a(usb_regs.c.o)
 .text.ByteSwap
                0x0000000000000000        0xc /var/folders/hj/xvmq845d4rq0_l026j3g6x8c0000gn/T/arduino-core-cache/core_0bde13c9a0eea2bfdc716a2fc04bccd4.a(usb_regs.c.o)
 .text          0x0000000000000000        0x0 /var/folders/hj/xvmq845d4rq0_l026j3g6x8c0000gn/T/arduino-core-cache/core_0bde13c9a0eea2bfdc716a2fc04bccd4.a(util.c.o)
 .data          0x0000000000000000        0x0 /var/folders/hj/xvmq845d4rq0_l026j3g6x8c0000gn/T/arduino-core-cache/core_0bde13c9a0eea2bfdc716a2fc04bccd4.a(util.c.o)
 .bss           0x0000000000000000        0x0 /var/folders/hj/xvmq845d4rq0_l026j3g6x8c0000gn/T/arduino-core-cache/core_0bde13c9a0eea2bfdc716a2fc04bccd4.a(util.c.o)
 .text.abort    0x0000000000000000       0x1c /var/folders/hj/xvmq845d4rq0_l026j3g6x8c0000gn/T/arduino-core-cache/core_0bde13c9a0eea2bfdc716a2fc04bccd4.a(util.c.o)
 .rodata.abort.str1.4
                0x0000000000000000       0x25 /var/folders/hj/xvmq845d4rq0_l026j3g6x8c0000gn/T/arduino-core-cache/core_0bde13c9a0eea2bfdc716a2fc04bccd4.a(util.c.o)
 .text          0x0000000000000000        0x0 /var/folders/hj/xvmq845d4rq0_l026j3g6x8c0000gn/T/arduino-core-cache/core_0bde13c9a0eea2bfdc716a2fc04bccd4.a(HardwareSerial.cpp.o)
 .data          0x0000000000000000        0x0 /var/folders/hj/xvmq845d4rq0_l026j3g6x8c0000gn/T/arduino-core-cache/core_0bde13c9a0eea2bfdc716a2fc04bccd4.a(HardwareSerial.cpp.o)
 .bss           0x0000000000000000        0x0 /var/folders/hj/xvmq845d4rq0_l026j3g6x8c0000gn/T/arduino-core-cache/core_0bde13c9a0eea2bfdc716a2fc04bccd4.a(HardwareSerial.cpp.o)
 .text._ZN14HardwareSerial5beginEm
                0x0000000000000000       0x70 /var/folders/hj/xvmq845d4rq0_l026j3g6x8c0000gn/T/arduino-core-cache/core_0bde13c9a0eea2bfdc716a2fc04bccd4.a(HardwareSerial.cpp.o)
 .text._ZN14HardwareSerial5beginEmh
                0x0000000000000000       0x70 /var/folders/hj/xvmq845d4rq0_l026j3g6x8c0000gn/T/arduino-core-cache/core_0bde13c9a0eea2bfdc716a2fc04bccd4.a(HardwareSerial.cpp.o)
 .text._ZN14HardwareSerial3endEv
                0x0000000000000000        0x8 /var/folders/hj/xvmq845d4rq0_l026j3g6x8c0000gn/T/arduino-core-cache/core_0bde13c9a0eea2bfdc716a2fc04bccd4.a(HardwareSerial.cpp.o)
 .text._ZN14HardwareSerial17availableForWriteEv
                0x0000000000000000       0x28 /var/folders/hj/xvmq845d4rq0_l026j3g6x8c0000gn/T/arduino-core-cache/core_0bde13c9a0eea2bfdc716a2fc04bccd4.a(HardwareSerial.cpp.o)
 .text          0x0000000000000000        0x0 /var/folders/hj/xvmq845d4rq0_l026j3g6x8c0000gn/T/arduino-core-cache/core_0bde13c9a0eea2bfdc716a2fc04bccd4.a(Print.cpp.o)
 .data          0x0000000000000000        0x0 /var/folders/hj/xvmq845d4rq0_l026j3g6x8c0000gn/T/arduino-core-cache/core_0bde13c9a0eea2bfdc716a2fc04bccd4.a(Print.cpp.o)
 .bss           0x0000000000000000        0x0 /var/folders/hj/xvmq845d4rq0_l026j3g6x8c0000gn/T/arduino-core-cache/core_0bde13c9a0eea2bfdc716a2fc04bccd4.a(Print.cpp.o)
 .text._ZN5Print5printERK6String
                0x0000000000000000       0x40 /var/folders/hj/xvmq845d4rq0_l026j3g6x8c0000gn/T/arduino-core-cache/core_0bde13c9a0eea2bfdc716a2fc04bccd4.a(Print.cpp.o)
 .text._ZN5Print5printEc
                0x0000000000000000        0x8 /var/folders/hj/xvmq845d4rq0_l026j3g6x8c0000gn/T/arduino-core-cache/core_0bde13c9a0eea2bfdc716a2fc04bccd4.a(Print.cpp.o)
 .text._ZN5Print5printEli
                0x0000000000000000       0x98 /var/folders/hj/xvmq845d4rq0_l026j3g6x8c0000gn/T/arduino-core-cache/core_0bde13c9a0eea2bfdc716a2fc04bccd4.a(Print.cpp.o)
 .text._ZN5Print5printExi
                0x0000000000000000       0x98 /var/folders/hj/xvmq845d4rq0_l026j3g6x8c0000gn/T/arduino-core-cache/core_0bde13c9a0eea2bfdc716a2fc04bccd4.a(Print.cpp.o)
 .text._ZN5Print5printEyi
                0x0000000000000000       0x80 /var/folders/hj/xvmq845d4rq0_l026j3g6x8c0000gn/T/arduino-core-cache/core_0bde13c9a0eea2bfdc716a2fc04bccd4.a(Print.cpp.o)
 .text._ZN5Print5printERK9Printable
                0x0000000000000000        0xc /var/folders/hj/xvmq845d4rq0_l026j3g6x8c0000gn/T/arduino-core-cache/core_0bde13c9a0eea2bfdc716a2fc04bccd4.a(Print.cpp.o)
 .text._ZN5Print7printlnERK6String
                0x0000000000000000       0x50 /var/folders/hj/xvmq845d4rq0_l026j3g6x8c0000gn/T/arduino-core-cache/core_0bde13c9a0eea2bfdc716a2fc04bccd4.a(Print.cpp.o)
 .text._ZN5Print7printlnEc
                0x0000000000000000       0x28 /var/folders/hj/xvmq845d4rq0_l026j3g6x8c0000gn/T/arduino-core-cache/core_0bde13c9a0eea2bfdc716a2fc04bccd4.a(Print.cpp.o)
 .text._ZN5Print7printlnEhi
                0x0000000000000000       0x9c /var/folders/hj/xvmq845d4rq0_l026j3g6x8c0000gn/T/arduino-core-cache/core_0bde13c9a0eea2bfdc716a2fc04bccd4.a(Print.cpp.o)
 .text._ZN5Print7printlnEii
                0x0000000000000000       0xb4 /var/folders/hj/xvmq845d4rq0_l026j3g6x8c0000gn/T/arduino-core-cache/core_0bde13c9a0eea2bfdc716a2fc04bccd4.a(Print.cpp.o)
 .text._ZN5Print7printlnEli
                0x0000000000000000       0xb4 /var/folders/hj/xvmq845d4rq0_l026j3g6x8c0000gn/T/arduino-core-cache/core_0bde13c9a0eea2bfdc716a2fc04bccd4.a(Print.cpp.o)
 .text._ZN5Print7printlnEmi
                0x0000000000000000       0x98 /var/folders/hj/xvmq845d4rq0_l026j3g6x8c0000gn/T/arduino-core-cache/core_0bde13c9a0eea2bfdc716a2fc04bccd4.a(Print.cpp.o)
 .text._ZN5Print7printlnExi
                0x0000000000000000       0xb0 /var/folders/hj/xvmq845d4rq0_l026j3g6x8c0000gn/T/arduino-core-cache/core_0bde13c9a0eea2bfdc716a2fc04bccd4.a(Print.cpp.o)
 .text._ZN5Print7printlnEyi
                0x0000000000000000       0x9c /var/folders/hj/xvmq845d4rq0_l026j3g6x8c0000gn/T/arduino-core-cache/core_0bde13c9a0eea2bfdc716a2fc04bccd4.a(Print.cpp.o)
 .text._ZN5Print7printlnERK9Printable
                0x0000000000000000       0x2c /var/folders/hj/xvmq845d4rq0_l026j3g6x8c0000gn/T/arduino-core-cache/core_0bde13c9a0eea2bfdc716a2fc04bccd4.a(Print.cpp.o)
 .text._ZN5Print11printNumberEyh
                0x0000000000000000       0x84 /var/folders/hj/xvmq845d4rq0_l026j3g6x8c0000gn/T/arduino-core-cache/core_0bde13c9a0eea2bfdc716a2fc04bccd4.a(Print.cpp.o)
 .text._ZN5Print10printFloatEdh
                0x0000000000000000      0x320 /var/folders/hj/xvmq845d4rq0_l026j3g6x8c0000gn/T/arduino-core-cache/core_0bde13c9a0eea2bfdc716a2fc04bccd4.a(Print.cpp.o)
 .text._ZN5Print5printEdi
                0x0000000000000000        0xc /var/folders/hj/xvmq845d4rq0_l026j3g6x8c0000gn/T/arduino-core-cache/core_0bde13c9a0eea2bfdc716a2fc04bccd4.a(Print.cpp.o)
 .text._ZN5Print7printlnEdi
                0x0000000000000000       0x30 /var/folders/hj/xvmq845d4rq0_l026j3g6x8c0000gn/T/arduino-core-cache/core_0bde13c9a0eea2bfdc716a2fc04bccd4.a(Print.cpp.o)
 .rodata._ZN5Print10printFloatEdh.str1.4
                0x0000000000000000       0x12 /var/folders/hj/xvmq845d4rq0_l026j3g6x8c0000gn/T/arduino-core-cache/core_0bde13c9a0eea2bfdc716a2fc04bccd4.a(Print.cpp.o)
 .rodata._ZTV5Print
                0x0000000000000000       0x14 /var/folders/hj/xvmq845d4rq0_l026j3g6x8c0000gn/T/arduino-core-cache/core_0bde13c9a0eea2bfdc716a2fc04bccd4.a(Print.cpp.o)
 .text          0x0000000000000000        0x0 /var/folders/hj/xvmq845d4rq0_l026j3g6x8c0000gn/T/arduino-core-cache/core_0bde13c9a0eea2bfdc716a2fc04bccd4.a(cxxabi-compat.cpp.o)
 .data          0x0000000000000000        0x0 /var/folders/hj/xvmq845d4rq0_l026j3g6x8c0000gn/T/arduino-core-cache/core_0bde13c9a0eea2bfdc716a2fc04bccd4.a(cxxabi-compat.cpp.o)
 .bss           0x0000000000000000        0x0 /var/folders/hj/xvmq845d4rq0_l026j3g6x8c0000gn/T/arduino-core-cache/core_0bde13c9a0eea2bfdc716a2fc04bccd4.a(cxxabi-compat.cpp.o)
 .text.__cxa_pure_virtual
                0x0000000000000000        0x4 /var/folders/hj/xvmq845d4rq0_l026j3g6x8c0000gn/T/arduino-core-cache/core_0bde13c9a0eea2bfdc716a2fc04bccd4.a(cxxabi-compat.cpp.o)
 .debug_info    0x0000000000000000       0x37 /var/folders/hj/xvmq845d4rq0_l026j3g6x8c0000gn/T/arduino-core-cache/core_0bde13c9a0eea2bfdc716a2fc04bccd4.a(cxxabi-compat.cpp.o)
 .debug_abbrev  0x0000000000000000       0x2a /var/folders/hj/xvmq845d4rq0_l026j3g6x8c0000gn/T/arduino-core-cache/core_0bde13c9a0eea2bfdc716a2fc04bccd4.a(cxxabi-compat.cpp.o)
 .debug_aranges
                0x0000000000000000       0x20 /var/folders/hj/xvmq845d4rq0_l026j3g6x8c0000gn/T/arduino-core-cache/core_0bde13c9a0eea2bfdc716a2fc04bccd4.a(cxxabi-compat.cpp.o)
 .debug_ranges  0x0000000000000000       0x10 /var/folders/hj/xvmq845d4rq0_l026j3g6x8c0000gn/T/arduino-core-cache/core_0bde13c9a0eea2bfdc716a2fc04bccd4.a(cxxabi-compat.cpp.o)
 .debug_line    0x0000000000000000       0x8c /var/folders/hj/xvmq845d4rq0_l026j3g6x8c0000gn/T/arduino-core-cache/core_0bde13c9a0eea2bfdc716a2fc04bccd4.a(cxxabi-compat.cpp.o)
 .debug_str     0x0000000000000000      0x1b4 /var/folders/hj/xvmq845d4rq0_l026j3g6x8c0000gn/T/arduino-core-cache/core_0bde13c9a0eea2bfdc716a2fc04bccd4.a(cxxabi-compat.cpp.o)
 .comment       0x0000000000000000       0x7f /var/folders/hj/xvmq845d4rq0_l026j3g6x8c0000gn/T/arduino-core-cache/core_0bde13c9a0eea2bfdc716a2fc04bccd4.a(cxxabi-compat.cpp.o)
 .debug_frame   0x0000000000000000       0x20 /var/folders/hj/xvmq845d4rq0_l026j3g6x8c0000gn/T/arduino-core-cache/core_0bde13c9a0eea2bfdc716a2fc04bccd4.a(cxxabi-compat.cpp.o)
 .text          0x0000000000000000        0x0 /var/folders/hj/xvmq845d4rq0_l026j3g6x8c0000gn/T/arduino-core-cache/core_0bde13c9a0eea2bfdc716a2fc04bccd4.a(main.cpp.o)
 .data          0x0000000000000000        0x0 /var/folders/hj/xvmq845d4rq0_l026j3g6x8c0000gn/T/arduino-core-cache/core_0bde13c9a0eea2bfdc716a2fc04bccd4.a(main.cpp.o)
 .bss           0x0000000000000000        0x0 /var/folders/hj/xvmq845d4rq0_l026j3g6x8c0000gn/T/arduino-core-cache/core_0bde13c9a0eea2bfdc716a2fc04bccd4.a(main.cpp.o)
 .text          0x0000000000000000        0x0 /var/folders/hj/xvmq845d4rq0_l026j3g6x8c0000gn/T/arduino-core-cache/core_0bde13c9a0eea2bfdc716a2fc04bccd4.a(usb_serial.cpp.o)
 .data          0x0000000000000000        0x0 /var/folders/hj/xvmq845d4rq0_l026j3g6x8c0000gn/T/arduino-core-cache/core_0bde13c9a0eea2bfdc716a2fc04bccd4.a(usb_serial.cpp.o)
 .bss           0x0000000000000000        0x0 /var/folders/hj/xvmq845d4rq0_l026j3g6x8c0000gn/T/arduino-core-cache/core_0bde13c9a0eea2bfdc716a2fc04bccd4.a(usb_serial.cpp.o)
 .text._ZN9USBSerialC2Ev
                0x0000000000000000       0x18 /var/folders/hj/xvmq845d4rq0_l026j3g6x8c0000gn/T/arduino-core-cache/core_0bde13c9a0eea2bfdc716a2fc04bccd4.a(usb_serial.cpp.o)
 .text._ZN9USBSerial5beginEmh
                0x0000000000000000       0x48 /var/folders/hj/xvmq845d4rq0_l026j3g6x8c0000gn/T/arduino-core-cache/core_0bde13c9a0eea2bfdc716a2fc04bccd4.a(usb_serial.cpp.o)
 .text._ZN9USBSerial3endEv
                0x0000000000000000       0x20 /var/folders/hj/xvmq845d4rq0_l026j3g6x8c0000gn/T/arduino-core-cache/core_0bde13c9a0eea2bfdc716a2fc04bccd4.a(usb_serial.cpp.o)
 .text._ZN9USBSerial5writeEPKhm
                0x0000000000000000       0x4c /var/folders/hj/xvmq845d4rq0_l026j3g6x8c0000gn/T/arduino-core-cache/core_0bde13c9a0eea2bfdc716a2fc04bccd4.a(usb_serial.cpp.o)
 .text._ZN9USBSerial17availableForWriteEv
                0x0000000000000000        0x4 /var/folders/hj/xvmq845d4rq0_l026j3g6x8c0000gn/T/arduino-core-cache/core_0bde13c9a0eea2bfdc716a2fc04bccd4.a(usb_serial.cpp.o)
 .text._ZN9USBSerial4readEPhm
                0x0000000000000000       0x24 /var/folders/hj/xvmq845d4rq0_l026j3g6x8c0000gn/T/arduino-core-cache/core_0bde13c9a0eea2bfdc716a2fc04bccd4.a(usb_serial.cpp.o)
 .text._ZN9USBSerial9readBytesEPcRKj
                0x0000000000000000       0x4c /var/folders/hj/xvmq845d4rq0_l026j3g6x8c0000gn/T/arduino-core-cache/core_0bde13c9a0eea2bfdc716a2fc04bccd4.a(usb_serial.cpp.o)
 .text._ZN9USBSerial7pendingEv
                0x0000000000000000        0xc /var/folders/hj/xvmq845d4rq0_l026j3g6x8c0000gn/T/arduino-core-cache/core_0bde13c9a0eea2bfdc716a2fc04bccd4.a(usb_serial.cpp.o)
 .text._ZN9USBSerial6getDTREv
                0x0000000000000000        0x4 /var/folders/hj/xvmq845d4rq0_l026j3g6x8c0000gn/T/arduino-core-cache/core_0bde13c9a0eea2bfdc716a2fc04bccd4.a(usb_serial.cpp.o)
 .text._ZN9USBSerial6getRTSEv
                0x0000000000000000        0x4 /var/folders/hj/xvmq845d4rq0_l026j3g6x8c0000gn/T/arduino-core-cache/core_0bde13c9a0eea2bfdc716a2fc04bccd4.a(usb_serial.cpp.o)
 .text._ZN9USBSerial16enableBlockingTxEv
                0x0000000000000000        0xc /var/folders/hj/xvmq845d4rq0_l026j3g6x8c0000gn/T/arduino-core-cache/core_0bde13c9a0eea2bfdc716a2fc04bccd4.a(usb_serial.cpp.o)
 .text._ZN9USBSerial17disableBlockingTxEv
                0x0000000000000000        0xc /var/folders/hj/xvmq845d4rq0_l026j3g6x8c0000gn/T/arduino-core-cache/core_0bde13c9a0eea2bfdc716a2fc04bccd4.a(usb_serial.cpp.o)
 .text          0x0000000000000000        0x0 /var/folders/hj/xvmq845d4rq0_l026j3g6x8c0000gn/T/arduino-core-cache/core_0bde13c9a0eea2bfdc716a2fc04bccd4.a(wirish_time.cpp.o)
 .data          0x0000000000000000        0x0 /var/folders/hj/xvmq845d4rq0_l026j3g6x8c0000gn/T/arduino-core-cache/core_0bde13c9a0eea2bfdc716a2fc04bccd4.a(wirish_time.cpp.o)
 .bss           0x0000000000000000        0x0 /var/folders/hj/xvmq845d4rq0_l026j3g6x8c0000gn/T/arduino-core-cache/core_0bde13c9a0eea2bfdc716a2fc04bccd4.a(wirish_time.cpp.o)
 .text._Z17delayMicrosecondsm
                0x0000000000000000       0x14 /var/folders/hj/xvmq845d4rq0_l026j3g6x8c0000gn/T/arduino-core-cache/core_0bde13c9a0eea2bfdc716a2fc04bccd4.a(wirish_time.cpp.o)
 .text          0x0000000000000000        0x0 /var/folders/hj/xvmq845d4rq0_l026j3g6x8c0000gn/T/arduino-core-cache/core_0bde13c9a0eea2bfdc716a2fc04bccd4.a(hooks.c.o)
 .data          0x0000000000000000        0x0 /var/folders/hj/xvmq845d4rq0_l026j3g6x8c0000gn/T/arduino-core-cache/core_0bde13c9a0eea2bfdc716a2fc04bccd4.a(hooks.c.o)
 .bss           0x0000000000000000        0x0 /var/folders/hj/xvmq845d4rq0_l026j3g6x8c0000gn/T/arduino-core-cache/core_0bde13c9a0eea2bfdc716a2fc04bccd4.a(hooks.c.o)
 .text          0x0000000000000000        0x0 /var/folders/hj/xvmq845d4rq0_l026j3g6x8c0000gn/T/arduino-core-cache/core_0bde13c9a0eea2bfdc716a2fc04bccd4.a(bkp_f1.c.o)
 .data          0x0000000000000000        0x0 /var/folders/hj/xvmq845d4rq0_l026j3g6x8c0000gn/T/arduino-core-cache/core_0bde13c9a0eea2bfdc716a2fc04bccd4.a(bkp_f1.c.o)
 .bss           0x0000000000000000        0x0 /var/folders/hj/xvmq845d4rq0_l026j3g6x8c0000gn/T/arduino-core-cache/core_0bde13c9a0eea2bfdc716a2fc04bccd4.a(bkp_f1.c.o)
 .text.bkp_read
                0x0000000000000000       0x1c /var/folders/hj/xvmq845d4rq0_l026j3g6x8c0000gn/T/arduino-core-cache/core_0bde13c9a0eea2bfdc716a2fc04bccd4.a(bkp_f1.c.o)
 .data.BKP      0x0000000000000000        0x4 /var/folders/hj/xvmq845d4rq0_l026j3g6x8c0000gn/T/arduino-core-cache/core_0bde13c9a0eea2bfdc716a2fc04bccd4.a(bkp_f1.c.o)
 .data.bkp      0x0000000000000000        0x4 /var/folders/hj/xvmq845d4rq0_l026j3g6x8c0000gn/T/arduino-core-cache/core_0bde13c9a0eea2bfdc716a2fc04bccd4.a(bkp_f1.c.o)
 .text          0x0000000000000000        0x0 /var/folders/hj/xvmq845d4rq0_l026j3g6x8c0000gn/T/arduino-core-cache/core_0bde13c9a0eea2bfdc716a2fc04bccd4.a(dma.c.o)
 .data          0x0000000000000000        0x0 /var/folders/hj/xvmq845d4rq0_l026j3g6x8c0000gn/T/arduino-core-cache/core_0bde13c9a0eea2bfdc716a2fc04bccd4.a(dma.c.o)
 .bss           0x0000000000000000        0x0 /var/folders/hj/xvmq845d4rq0_l026j3g6x8c0000gn/T/arduino-core-cache/core_0bde13c9a0eea2bfdc716a2fc04bccd4.a(dma.c.o)
 .text.dma_init
                0x0000000000000000        0x8 /var/folders/hj/xvmq845d4rq0_l026j3g6x8c0000gn/T/arduino-core-cache/core_0bde13c9a0eea2bfdc716a2fc04bccd4.a(dma.c.o)
 .text._dma_addr_type
                0x0000000000000000       0x28 /var/folders/hj/xvmq845d4rq0_l026j3g6x8c0000gn/T/arduino-core-cache/core_0bde13c9a0eea2bfdc716a2fc04bccd4.a(dma.c.o)
 .debug_info    0x0000000000000000      0x70e /var/folders/hj/xvmq845d4rq0_l026j3g6x8c0000gn/T/arduino-core-cache/core_0bde13c9a0eea2bfdc716a2fc04bccd4.a(dma.c.o)
 .debug_abbrev  0x0000000000000000      0x19d /var/folders/hj/xvmq845d4rq0_l026j3g6x8c0000gn/T/arduino-core-cache/core_0bde13c9a0eea2bfdc716a2fc04bccd4.a(dma.c.o)
 .debug_loc     0x0000000000000000       0x42 /var/folders/hj/xvmq845d4rq0_l026j3g6x8c0000gn/T/arduino-core-cache/core_0bde13c9a0eea2bfdc716a2fc04bccd4.a(dma.c.o)
 .debug_aranges
                0x0000000000000000       0x28 /var/folders/hj/xvmq845d4rq0_l026j3g6x8c0000gn/T/arduino-core-cache/core_0bde13c9a0eea2bfdc716a2fc04bccd4.a(dma.c.o)
 .debug_ranges  0x0000000000000000       0x18 /var/folders/hj/xvmq845d4rq0_l026j3g6x8c0000gn/T/arduino-core-cache/core_0bde13c9a0eea2bfdc716a2fc04bccd4.a(dma.c.o)
 .debug_line    0x0000000000000000      0x333 /var/folders/hj/xvmq845d4rq0_l026j3g6x8c0000gn/T/arduino-core-cache/core_0bde13c9a0eea2bfdc716a2fc04bccd4.a(dma.c.o)
 .debug_str     0x0000000000000000      0xa64 /var/folders/hj/xvmq845d4rq0_l026j3g6x8c0000gn/T/arduino-core-cache/core_0bde13c9a0eea2bfdc716a2fc04bccd4.a(dma.c.o)
 .comment       0x0000000000000000       0x7f /var/folders/hj/xvmq845d4rq0_l026j3g6x8c0000gn/T/arduino-core-cache/core_0bde13c9a0eea2bfdc716a2fc04bccd4.a(dma.c.o)
 .debug_frame   0x0000000000000000       0x30 /var/folders/hj/xvmq845d4rq0_l026j3g6x8c0000gn/T/arduino-core-cache/core_0bde13c9a0eea2bfdc716a2fc04bccd4.a(dma.c.o)
 .text          0x0000000000000000        0x0 /var/folders/hj/xvmq845d4rq0_l026j3g6x8c0000gn/T/arduino-core-cache/core_0bde13c9a0eea2bfdc716a2fc04bccd4.a(gpio.c.o)
 .data          0x0000000000000000        0x0 /var/folders/hj/xvmq845d4rq0_l026j3g6x8c0000gn/T/arduino-core-cache/core_0bde13c9a0eea2bfdc716a2fc04bccd4.a(gpio.c.o)
 .bss           0x0000000000000000        0x0 /var/folders/hj/xvmq845d4rq0_l026j3g6x8c0000gn/T/arduino-core-cache/core_0bde13c9a0eea2bfdc716a2fc04bccd4.a(gpio.c.o)
 .text          0x0000000000000000        0x0 /var/folders/hj/xvmq845d4rq0_l026j3g6x8c0000gn/T/arduino-core-cache/core_0bde13c9a0eea2bfdc716a2fc04bccd4.a(i2c.c.o)
 .data          0x0000000000000000        0x0 /var/folders/hj/xvmq845d4rq0_l026j3g6x8c0000gn/T/arduino-core-cache/core_0bde13c9a0eea2bfdc716a2fc04bccd4.a(i2c.c.o)
 .bss           0x0000000000000000        0x0 /var/folders/hj/xvmq845d4rq0_l026j3g6x8c0000gn/T/arduino-core-cache/core_0bde13c9a0eea2bfdc716a2fc04bccd4.a(i2c.c.o)
 .text.i2c_bus_reset
                0x0000000000000000       0xb4 /var/folders/hj/xvmq845d4rq0_l026j3g6x8c0000gn/T/arduino-core-cache/core_0bde13c9a0eea2bfdc716a2fc04bccd4.a(i2c.c.o)
 .text.i2c_init
                0x0000000000000000       0x20 /var/folders/hj/xvmq845d4rq0_l026j3g6x8c0000gn/T/arduino-core-cache/core_0bde13c9a0eea2bfdc716a2fc04bccd4.a(i2c.c.o)
 .text.i2c_master_enable
                0x0000000000000000      0x1ec /var/folders/hj/xvmq845d4rq0_l026j3g6x8c0000gn/T/arduino-core-cache/core_0bde13c9a0eea2bfdc716a2fc04bccd4.a(i2c.c.o)
 .text.i2c_slave_enable
                0x0000000000000000        0x8 /var/folders/hj/xvmq845d4rq0_l026j3g6x8c0000gn/T/arduino-core-cache/core_0bde13c9a0eea2bfdc716a2fc04bccd4.a(i2c.c.o)
 .text.i2c_master_xfer
                0x0000000000000000      0x12c /var/folders/hj/xvmq845d4rq0_l026j3g6x8c0000gn/T/arduino-core-cache/core_0bde13c9a0eea2bfdc716a2fc04bccd4.a(i2c.c.o)
 .text.wait_for_state_change
                0x0000000000000000       0x78 /var/folders/hj/xvmq845d4rq0_l026j3g6x8c0000gn/T/arduino-core-cache/core_0bde13c9a0eea2bfdc716a2fc04bccd4.a(i2c.c.o)
 .text.i2c_set_ccr_trise
                0x0000000000000000       0x60 /var/folders/hj/xvmq845d4rq0_l026j3g6x8c0000gn/T/arduino-core-cache/core_0bde13c9a0eea2bfdc716a2fc04bccd4.a(i2c.c.o)
 .text.i2c_slave_attach_recv_handler
                0x0000000000000000        0xc /var/folders/hj/xvmq845d4rq0_l026j3g6x8c0000gn/T/arduino-core-cache/core_0bde13c9a0eea2bfdc716a2fc04bccd4.a(i2c.c.o)
 .text.i2c_slave_attach_transmit_handler
                0x0000000000000000        0xc /var/folders/hj/xvmq845d4rq0_l026j3g6x8c0000gn/T/arduino-core-cache/core_0bde13c9a0eea2bfdc716a2fc04bccd4.a(i2c.c.o)
 .text          0x0000000000000000        0x0 /var/folders/hj/xvmq845d4rq0_l026j3g6x8c0000gn/T/arduino-core-cache/core_0bde13c9a0eea2bfdc716a2fc04bccd4.a(usart.c.o)
 .data          0x0000000000000000        0x0 /var/folders/hj/xvmq845d4rq0_l026j3g6x8c0000gn/T/arduino-core-cache/core_0bde13c9a0eea2bfdc716a2fc04bccd4.a(usart.c.o)
 .bss           0x0000000000000000        0x0 /var/folders/hj/xvmq845d4rq0_l026j3g6x8c0000gn/T/arduino-core-cache/core_0bde13c9a0eea2bfdc716a2fc04bccd4.a(usart.c.o)
 .text.usart_init
                0x0000000000000000       0x48 /var/folders/hj/xvmq845d4rq0_l026j3g6x8c0000gn/T/arduino-core-cache/core_0bde13c9a0eea2bfdc716a2fc04bccd4.a(usart.c.o)
 .text.usart_enable
                0x0000000000000000       0x14 /var/folders/hj/xvmq845d4rq0_l026j3g6x8c0000gn/T/arduino-core-cache/core_0bde13c9a0eea2bfdc716a2fc04bccd4.a(usart.c.o)
 .text.usart_disable
                0x0000000000000000       0x3c /var/folders/hj/xvmq845d4rq0_l026j3g6x8c0000gn/T/arduino-core-cache/core_0bde13c9a0eea2bfdc716a2fc04bccd4.a(usart.c.o)
 .text.usart_rx
                0x0000000000000000       0x60 /var/folders/hj/xvmq845d4rq0_l026j3g6x8c0000gn/T/arduino-core-cache/core_0bde13c9a0eea2bfdc716a2fc04bccd4.a(usart.c.o)
 .text          0x0000000000000000      0x378 /Users/lgcampos/Library/Arduino15/packages/arduino/tools/arm-none-eabi-gcc/7-2017q4/bin/../lib/gcc/arm-none-eabi/7.2.1/thumb/v7-m/libgcc.a(_arm_addsubdf3.o)
 .data          0x0000000000000000        0x0 /Users/lgcampos/Library/Arduino15/packages/arduino/tools/arm-none-eabi-gcc/7-2017q4/bin/../lib/gcc/arm-none-eabi/7.2.1/thumb/v7-m/libgcc.a(_arm_addsubdf3.o)
 .bss           0x0000000000000000        0x0 /Users/lgcampos/Library/Arduino15/packages/arduino/tools/arm-none-eabi-gcc/7-2017q4/bin/../lib/gcc/arm-none-eabi/7.2.1/thumb/v7-m/libgcc.a(_arm_addsubdf3.o)
 .debug_frame   0x0000000000000000       0xac /Users/lgcampos/Library/Arduino15/packages/arduino/tools/arm-none-eabi-gcc/7-2017q4/bin/../lib/gcc/arm-none-eabi/7.2.1/thumb/v7-m/libgcc.a(_arm_addsubdf3.o)
 .text          0x0000000000000000      0x424 /Users/lgcampos/Library/Arduino15/packages/arduino/tools/arm-none-eabi-gcc/7-2017q4/bin/../lib/gcc/arm-none-eabi/7.2.1/thumb/v7-m/libgcc.a(_arm_muldivdf3.o)
 .data          0x0000000000000000        0x0 /Users/lgcampos/Library/Arduino15/packages/arduino/tools/arm-none-eabi-gcc/7-2017q4/bin/../lib/gcc/arm-none-eabi/7.2.1/thumb/v7-m/libgcc.a(_arm_muldivdf3.o)
 .bss           0x0000000000000000        0x0 /Users/lgcampos/Library/Arduino15/packages/arduino/tools/arm-none-eabi-gcc/7-2017q4/bin/../lib/gcc/arm-none-eabi/7.2.1/thumb/v7-m/libgcc.a(_arm_muldivdf3.o)
 .debug_frame   0x0000000000000000       0x50 /Users/lgcampos/Library/Arduino15/packages/arduino/tools/arm-none-eabi-gcc/7-2017q4/bin/../lib/gcc/arm-none-eabi/7.2.1/thumb/v7-m/libgcc.a(_arm_muldivdf3.o)
 .text          0x0000000000000000      0x110 /Users/lgcampos/Library/Arduino15/packages/arduino/tools/arm-none-eabi-gcc/7-2017q4/bin/../lib/gcc/arm-none-eabi/7.2.1/thumb/v7-m/libgcc.a(_arm_cmpdf2.o)
 .data          0x0000000000000000        0x0 /Users/lgcampos/Library/Arduino15/packages/arduino/tools/arm-none-eabi-gcc/7-2017q4/bin/../lib/gcc/arm-none-eabi/7.2.1/thumb/v7-m/libgcc.a(_arm_cmpdf2.o)
 .bss           0x0000000000000000        0x0 /Users/lgcampos/Library/Arduino15/packages/arduino/tools/arm-none-eabi-gcc/7-2017q4/bin/../lib/gcc/arm-none-eabi/7.2.1/thumb/v7-m/libgcc.a(_arm_cmpdf2.o)
 .debug_frame   0x0000000000000000       0xc4 /Users/lgcampos/Library/Arduino15/packages/arduino/tools/arm-none-eabi-gcc/7-2017q4/bin/../lib/gcc/arm-none-eabi/7.2.1/thumb/v7-m/libgcc.a(_arm_cmpdf2.o)
 .text          0x0000000000000000       0x50 /Users/lgcampos/Library/Arduino15/packages/arduino/tools/arm-none-eabi-gcc/7-2017q4/bin/../lib/gcc/arm-none-eabi/7.2.1/thumb/v7-m/libgcc.a(_arm_fixdfsi.o)
 .data          0x0000000000000000        0x0 /Users/lgcampos/Library/Arduino15/packages/arduino/tools/arm-none-eabi-gcc/7-2017q4/bin/../lib/gcc/arm-none-eabi/7.2.1/thumb/v7-m/libgcc.a(_arm_fixdfsi.o)
 .bss           0x0000000000000000        0x0 /Users/lgcampos/Library/Arduino15/packages/arduino/tools/arm-none-eabi-gcc/7-2017q4/bin/../lib/gcc/arm-none-eabi/7.2.1/thumb/v7-m/libgcc.a(_arm_fixdfsi.o)
 .debug_frame   0x0000000000000000       0x24 /Users/lgcampos/Library/Arduino15/packages/arduino/tools/arm-none-eabi-gcc/7-2017q4/bin/../lib/gcc/arm-none-eabi/7.2.1/thumb/v7-m/libgcc.a(_arm_fixdfsi.o)
 .text          0x0000000000000000       0xa0 /Users/lgcampos/Library/Arduino15/packages/arduino/tools/arm-none-eabi-gcc/7-2017q4/bin/../lib/gcc/arm-none-eabi/7.2.1/thumb/v7-m/libgcc.a(_aeabi_ldivmod.o)
 .data          0x0000000000000000        0x0 /Users/lgcampos/Library/Arduino15/packages/arduino/tools/arm-none-eabi-gcc/7-2017q4/bin/../lib/gcc/arm-none-eabi/7.2.1/thumb/v7-m/libgcc.a(_aeabi_ldivmod.o)
 .bss           0x0000000000000000        0x0 /Users/lgcampos/Library/Arduino15/packages/arduino/tools/arm-none-eabi-gcc/7-2017q4/bin/../lib/gcc/arm-none-eabi/7.2.1/thumb/v7-m/libgcc.a(_aeabi_ldivmod.o)
 .debug_frame   0x0000000000000000       0x44 /Users/lgcampos/Library/Arduino15/packages/arduino/tools/arm-none-eabi-gcc/7-2017q4/bin/../lib/gcc/arm-none-eabi/7.2.1/thumb/v7-m/libgcc.a(_aeabi_ldivmod.o)
 .data          0x0000000000000000        0x0 /Users/lgcampos/Library/Arduino15/packages/arduino/tools/arm-none-eabi-gcc/7-2017q4/bin/../lib/gcc/arm-none-eabi/7.2.1/thumb/v7-m/libgcc.a(_aeabi_uldivmod.o)
 .bss           0x0000000000000000        0x0 /Users/lgcampos/Library/Arduino15/packages/arduino/tools/arm-none-eabi-gcc/7-2017q4/bin/../lib/gcc/arm-none-eabi/7.2.1/thumb/v7-m/libgcc.a(_aeabi_uldivmod.o)
 .text          0x0000000000000000       0x30 /Users/lgcampos/Library/Arduino15/packages/arduino/tools/arm-none-eabi-gcc/7-2017q4/bin/../lib/gcc/arm-none-eabi/7.2.1/thumb/v7-m/libgcc.a(_fixdfdi.o)
 .data          0x0000000000000000        0x0 /Users/lgcampos/Library/Arduino15/packages/arduino/tools/arm-none-eabi-gcc/7-2017q4/bin/../lib/gcc/arm-none-eabi/7.2.1/thumb/v7-m/libgcc.a(_fixdfdi.o)
 .bss           0x0000000000000000        0x0 /Users/lgcampos/Library/Arduino15/packages/arduino/tools/arm-none-eabi-gcc/7-2017q4/bin/../lib/gcc/arm-none-eabi/7.2.1/thumb/v7-m/libgcc.a(_fixdfdi.o)
 .debug_frame   0x0000000000000000       0x3c /Users/lgcampos/Library/Arduino15/packages/arduino/tools/arm-none-eabi-gcc/7-2017q4/bin/../lib/gcc/arm-none-eabi/7.2.1/thumb/v7-m/libgcc.a(_fixdfdi.o)
 .text          0x0000000000000000       0x44 /Users/lgcampos/Library/Arduino15/packages/arduino/tools/arm-none-eabi-gcc/7-2017q4/bin/../lib/gcc/arm-none-eabi/7.2.1/thumb/v7-m/libgcc.a(_fixunsdfdi.o)
 .data          0x0000000000000000        0x0 /Users/lgcampos/Library/Arduino15/packages/arduino/tools/arm-none-eabi-gcc/7-2017q4/bin/../lib/gcc/arm-none-eabi/7.2.1/thumb/v7-m/libgcc.a(_fixunsdfdi.o)
 .bss           0x0000000000000000        0x0 /Users/lgcampos/Library/Arduino15/packages/arduino/tools/arm-none-eabi-gcc/7-2017q4/bin/../lib/gcc/arm-none-eabi/7.2.1/thumb/v7-m/libgcc.a(_fixunsdfdi.o)
 .debug_frame   0x0000000000000000       0x2c /Users/lgcampos/Library/Arduino15/packages/arduino/tools/arm-none-eabi-gcc/7-2017q4/bin/../lib/gcc/arm-none-eabi/7.2.1/thumb/v7-m/libgcc.a(_fixunsdfdi.o)
 .data          0x0000000000000000        0x0 /Users/lgcampos/Library/Arduino15/packages/arduino/tools/arm-none-eabi-gcc/7-2017q4/bin/../lib/gcc/arm-none-eabi/7.2.1/thumb/v7-m/libgcc.a(_udivmoddi4.o)
 .bss           0x0000000000000000        0x0 /Users/lgcampos/Library/Arduino15/packages/arduino/tools/arm-none-eabi-gcc/7-2017q4/bin/../lib/gcc/arm-none-eabi/7.2.1/thumb/v7-m/libgcc.a(_udivmoddi4.o)
 .ARM.extab     0x0000000000000000        0x0 /Users/lgcampos/Library/Arduino15/packages/arduino/tools/arm-none-eabi-gcc/7-2017q4/bin/../lib/gcc/arm-none-eabi/7.2.1/thumb/v7-m/libgcc.a(_udivmoddi4.o)
 .data          0x0000000000000000        0x0 /Users/lgcampos/Library/Arduino15/packages/arduino/tools/arm-none-eabi-gcc/7-2017q4/bin/../lib/gcc/arm-none-eabi/7.2.1/thumb/v7-m/libgcc.a(_dvmd_tls.o)
 .bss           0x0000000000000000        0x0 /Users/lgcampos/Library/Arduino15/packages/arduino/tools/arm-none-eabi-gcc/7-2017q4/bin/../lib/gcc/arm-none-eabi/7.2.1/thumb/v7-m/libgcc.a(_dvmd_tls.o)
 .text          0x0000000000000000       0x40 /Users/lgcampos/Library/Arduino15/packages/arduino/tools/arm-none-eabi-gcc/7-2017q4/bin/../lib/gcc/arm-none-eabi/7.2.1/thumb/v7-m/libgcc.a(_arm_fixunsdfsi.o)
 .data          0x0000000000000000        0x0 /Users/lgcampos/Library/Arduino15/packages/arduino/tools/arm-none-eabi-gcc/7-2017q4/bin/../lib/gcc/arm-none-eabi/7.2.1/thumb/v7-m/libgcc.a(_arm_fixunsdfsi.o)
 .bss           0x0000000000000000        0x0 /Users/lgcampos/Library/Arduino15/packages/arduino/tools/arm-none-eabi-gcc/7-2017q4/bin/../lib/gcc/arm-none-eabi/7.2.1/thumb/v7-m/libgcc.a(_arm_fixunsdfsi.o)
 .debug_frame   0x0000000000000000       0x24 /Users/lgcampos/Library/Arduino15/packages/arduino/tools/arm-none-eabi-gcc/7-2017q4/bin/../lib/gcc/arm-none-eabi/7.2.1/thumb/v7-m/libgcc.a(_arm_fixunsdfsi.o)
 .text          0x0000000000000000        0x0 /Users/lgcampos/Library/Arduino15/packages/arduino/tools/arm-none-eabi-gcc/7-2017q4/bin/../lib/gcc/arm-none-eabi/7.2.1/../../../../arm-none-eabi/lib/thumb/v7-m/libc.a(lib_a-calloc.o)
 .data          0x0000000000000000        0x0 /Users/lgcampos/Library/Arduino15/packages/arduino/tools/arm-none-eabi-gcc/7-2017q4/bin/../lib/gcc/arm-none-eabi/7.2.1/../../../../arm-none-eabi/lib/thumb/v7-m/libc.a(lib_a-calloc.o)
 .bss           0x0000000000000000        0x0 /Users/lgcampos/Library/Arduino15/packages/arduino/tools/arm-none-eabi-gcc/7-2017q4/bin/../lib/gcc/arm-none-eabi/7.2.1/../../../../arm-none-eabi/lib/thumb/v7-m/libc.a(lib_a-calloc.o)
 .text          0x0000000000000000        0x0 /Users/lgcampos/Library/Arduino15/packages/arduino/tools/arm-none-eabi-gcc/7-2017q4/bin/../lib/gcc/arm-none-eabi/7.2.1/../../../../arm-none-eabi/lib/thumb/v7-m/libc.a(lib_a-callocr.o)
 .data          0x0000000000000000        0x0 /Users/lgcampos/Library/Arduino15/packages/arduino/tools/arm-none-eabi-gcc/7-2017q4/bin/../lib/gcc/arm-none-eabi/7.2.1/../../../../arm-none-eabi/lib/thumb/v7-m/libc.a(lib_a-callocr.o)
 .bss           0x0000000000000000        0x0 /Users/lgcampos/Library/Arduino15/packages/arduino/tools/arm-none-eabi-gcc/7-2017q4/bin/../lib/gcc/arm-none-eabi/7.2.1/../../../../arm-none-eabi/lib/thumb/v7-m/libc.a(lib_a-callocr.o)
 .text          0x0000000000000000        0x0 /Users/lgcampos/Library/Arduino15/packages/arduino/tools/arm-none-eabi-gcc/7-2017q4/bin/../lib/gcc/arm-none-eabi/7.2.1/../../../../arm-none-eabi/lib/thumb/v7-m/libc.a(lib_a-errno.o)
 .data          0x0000000000000000        0x0 /Users/lgcampos/Library/Arduino15/packages/arduino/tools/arm-none-eabi-gcc/7-2017q4/bin/../lib/gcc/arm-none-eabi/7.2.1/../../../../arm-none-eabi/lib/thumb/v7-m/libc.a(lib_a-errno.o)
 .bss           0x0000000000000000        0x0 /Users/lgcampos/Library/Arduino15/packages/arduino/tools/arm-none-eabi-gcc/7-2017q4/bin/../lib/gcc/arm-none-eabi/7.2.1/../../../../arm-none-eabi/lib/thumb/v7-m/libc.a(lib_a-errno.o)
 .text          0x0000000000000000        0x0 /Users/lgcampos/Library/Arduino15/packages/arduino/tools/arm-none-eabi-gcc/7-2017q4/bin/../lib/gcc/arm-none-eabi/7.2.1/../../../../arm-none-eabi/lib/thumb/v7-m/libc.a(lib_a-exit.o)
 .data          0x0000000000000000        0x0 /Users/lgcampos/Library/Arduino15/packages/arduino/tools/arm-none-eabi-gcc/7-2017q4/bin/../lib/gcc/arm-none-eabi/7.2.1/../../../../arm-none-eabi/lib/thumb/v7-m/libc.a(lib_a-exit.o)
 .bss           0x0000000000000000        0x0 /Users/lgcampos/Library/Arduino15/packages/arduino/tools/arm-none-eabi-gcc/7-2017q4/bin/../lib/gcc/arm-none-eabi/7.2.1/../../../../arm-none-eabi/lib/thumb/v7-m/libc.a(lib_a-exit.o)
 .text          0x0000000000000000        0x0 /Users/lgcampos/Library/Arduino15/packages/arduino/tools/arm-none-eabi-gcc/7-2017q4/bin/../lib/gcc/arm-none-eabi/7.2.1/../../../../arm-none-eabi/lib/thumb/v7-m/libc.a(lib_a-impure.o)
 .data          0x0000000000000000        0x0 /Users/lgcampos/Library/Arduino15/packages/arduino/tools/arm-none-eabi-gcc/7-2017q4/bin/../lib/gcc/arm-none-eabi/7.2.1/../../../../arm-none-eabi/lib/thumb/v7-m/libc.a(lib_a-impure.o)
 .bss           0x0000000000000000        0x0 /Users/lgcampos/Library/Arduino15/packages/arduino/tools/arm-none-eabi-gcc/7-2017q4/bin/../lib/gcc/arm-none-eabi/7.2.1/../../../../arm-none-eabi/lib/thumb/v7-m/libc.a(lib_a-impure.o)
 .text          0x0000000000000000        0x0 /Users/lgcampos/Library/Arduino15/packages/arduino/tools/arm-none-eabi-gcc/7-2017q4/bin/../lib/gcc/arm-none-eabi/7.2.1/../../../../arm-none-eabi/lib/thumb/v7-m/libc.a(lib_a-init.o)
 .data          0x0000000000000000        0x0 /Users/lgcampos/Library/Arduino15/packages/arduino/tools/arm-none-eabi-gcc/7-2017q4/bin/../lib/gcc/arm-none-eabi/7.2.1/../../../../arm-none-eabi/lib/thumb/v7-m/libc.a(lib_a-init.o)
 .bss           0x0000000000000000        0x0 /Users/lgcampos/Library/Arduino15/packages/arduino/tools/arm-none-eabi-gcc/7-2017q4/bin/../lib/gcc/arm-none-eabi/7.2.1/../../../../arm-none-eabi/lib/thumb/v7-m/libc.a(lib_a-init.o)
 .text          0x0000000000000000        0x0 /Users/lgcampos/Library/Arduino15/packages/arduino/tools/arm-none-eabi-gcc/7-2017q4/bin/../lib/gcc/arm-none-eabi/7.2.1/../../../../arm-none-eabi/lib/thumb/v7-m/libc.a(lib_a-malloc.o)
 .data          0x0000000000000000        0x0 /Users/lgcampos/Library/Arduino15/packages/arduino/tools/arm-none-eabi-gcc/7-2017q4/bin/../lib/gcc/arm-none-eabi/7.2.1/../../../../arm-none-eabi/lib/thumb/v7-m/libc.a(lib_a-malloc.o)
 .bss           0x0000000000000000        0x0 /Users/lgcampos/Library/Arduino15/packages/arduino/tools/arm-none-eabi-gcc/7-2017q4/bin/../lib/gcc/arm-none-eabi/7.2.1/../../../../arm-none-eabi/lib/thumb/v7-m/libc.a(lib_a-malloc.o)
 .text          0x0000000000000000        0x0 /Users/lgcampos/Library/Arduino15/packages/arduino/tools/arm-none-eabi-gcc/7-2017q4/bin/../lib/gcc/arm-none-eabi/7.2.1/../../../../arm-none-eabi/lib/thumb/v7-m/libc.a(lib_a-mallocr.o)
 .data          0x0000000000000000        0x0 /Users/lgcampos/Library/Arduino15/packages/arduino/tools/arm-none-eabi-gcc/7-2017q4/bin/../lib/gcc/arm-none-eabi/7.2.1/../../../../arm-none-eabi/lib/thumb/v7-m/libc.a(lib_a-mallocr.o)
 .bss           0x0000000000000000        0x0 /Users/lgcampos/Library/Arduino15/packages/arduino/tools/arm-none-eabi-gcc/7-2017q4/bin/../lib/gcc/arm-none-eabi/7.2.1/../../../../arm-none-eabi/lib/thumb/v7-m/libc.a(lib_a-mallocr.o)
 .data          0x0000000000000000        0x0 /Users/lgcampos/Library/Arduino15/packages/arduino/tools/arm-none-eabi-gcc/7-2017q4/bin/../lib/gcc/arm-none-eabi/7.2.1/../../../../arm-none-eabi/lib/thumb/v7-m/libc.a(lib_a-memcpy.o)
 .bss           0x0000000000000000        0x0 /Users/lgcampos/Library/Arduino15/packages/arduino/tools/arm-none-eabi-gcc/7-2017q4/bin/../lib/gcc/arm-none-eabi/7.2.1/../../../../arm-none-eabi/lib/thumb/v7-m/libc.a(lib_a-memcpy.o)
 .text          0x0000000000000000        0x0 /Users/lgcampos/Library/Arduino15/packages/arduino/tools/arm-none-eabi-gcc/7-2017q4/bin/../lib/gcc/arm-none-eabi/7.2.1/../../../../arm-none-eabi/lib/thumb/v7-m/libc.a(lib_a-memset.o)
 .data          0x0000000000000000        0x0 /Users/lgcampos/Library/Arduino15/packages/arduino/tools/arm-none-eabi-gcc/7-2017q4/bin/../lib/gcc/arm-none-eabi/7.2.1/../../../../arm-none-eabi/lib/thumb/v7-m/libc.a(lib_a-memset.o)
 .bss           0x0000000000000000        0x0 /Users/lgcampos/Library/Arduino15/packages/arduino/tools/arm-none-eabi-gcc/7-2017q4/bin/../lib/gcc/arm-none-eabi/7.2.1/../../../../arm-none-eabi/lib/thumb/v7-m/libc.a(lib_a-memset.o)
 .text          0x0000000000000000        0x0 /Users/lgcampos/Library/Arduino15/packages/arduino/tools/arm-none-eabi-gcc/7-2017q4/bin/../lib/gcc/arm-none-eabi/7.2.1/../../../../arm-none-eabi/lib/thumb/v7-m/libc.a(lib_a-mlock.o)
 .data          0x0000000000000000        0x0 /Users/lgcampos/Library/Arduino15/packages/arduino/tools/arm-none-eabi-gcc/7-2017q4/bin/../lib/gcc/arm-none-eabi/7.2.1/../../../../arm-none-eabi/lib/thumb/v7-m/libc.a(lib_a-mlock.o)
 .bss           0x0000000000000000        0x0 /Users/lgcampos/Library/Arduino15/packages/arduino/tools/arm-none-eabi-gcc/7-2017q4/bin/../lib/gcc/arm-none-eabi/7.2.1/../../../../arm-none-eabi/lib/thumb/v7-m/libc.a(lib_a-mlock.o)
 .text          0x0000000000000000        0x0 /Users/lgcampos/Library/Arduino15/packages/arduino/tools/arm-none-eabi-gcc/7-2017q4/bin/../lib/gcc/arm-none-eabi/7.2.1/../../../../arm-none-eabi/lib/thumb/v7-m/libc.a(lib_a-rand.o)
 .data          0x0000000000000000        0x0 /Users/lgcampos/Library/Arduino15/packages/arduino/tools/arm-none-eabi-gcc/7-2017q4/bin/../lib/gcc/arm-none-eabi/7.2.1/../../../../arm-none-eabi/lib/thumb/v7-m/libc.a(lib_a-rand.o)
 .bss           0x0000000000000000        0x0 /Users/lgcampos/Library/Arduino15/packages/arduino/tools/arm-none-eabi-gcc/7-2017q4/bin/../lib/gcc/arm-none-eabi/7.2.1/../../../../arm-none-eabi/lib/thumb/v7-m/libc.a(lib_a-rand.o)
 .text.rand     0x0000000000000000       0x3c /Users/lgcampos/Library/Arduino15/packages/arduino/tools/arm-none-eabi-gcc/7-2017q4/bin/../lib/gcc/arm-none-eabi/7.2.1/../../../../arm-none-eabi/lib/thumb/v7-m/libc.a(lib_a-rand.o)
 .text          0x0000000000000000        0x0 /Users/lgcampos/Library/Arduino15/packages/arduino/tools/arm-none-eabi-gcc/7-2017q4/bin/../lib/gcc/arm-none-eabi/7.2.1/../../../../arm-none-eabi/lib/thumb/v7-m/libc.a(lib_a-sbrkr.o)
 .data          0x0000000000000000        0x0 /Users/lgcampos/Library/Arduino15/packages/arduino/tools/arm-none-eabi-gcc/7-2017q4/bin/../lib/gcc/arm-none-eabi/7.2.1/../../../../arm-none-eabi/lib/thumb/v7-m/libc.a(lib_a-sbrkr.o)
 .bss           0x0000000000000000        0x0 /Users/lgcampos/Library/Arduino15/packages/arduino/tools/arm-none-eabi-gcc/7-2017q4/bin/../lib/gcc/arm-none-eabi/7.2.1/../../../../arm-none-eabi/lib/thumb/v7-m/libc.a(lib_a-sbrkr.o)
 .data          0x0000000000000000        0x0 /Users/lgcampos/Library/Arduino15/packages/arduino/tools/arm-none-eabi-gcc/7-2017q4/bin/../lib/gcc/arm-none-eabi/7.2.1/../../../../arm-none-eabi/lib/thumb/v7-m/libc.a(lib_a-setjmp.o)
 .bss           0x0000000000000000        0x0 /Users/lgcampos/Library/Arduino15/packages/arduino/tools/arm-none-eabi-gcc/7-2017q4/bin/../lib/gcc/arm-none-eabi/7.2.1/../../../../arm-none-eabi/lib/thumb/v7-m/libc.a(lib_a-setjmp.o)
 .text          0x0000000000000000        0x0 /Users/lgcampos/Library/Arduino15/packages/arduino/tools/arm-none-eabi-gcc/7-2017q4/bin/../lib/gcc/arm-none-eabi/7.2.1/../../../../arm-none-eabi/lib/thumb/v7-m/libc.a(lib_a-strlen-stub.o)
 .data          0x0000000000000000        0x0 /Users/lgcampos/Library/Arduino15/packages/arduino/tools/arm-none-eabi-gcc/7-2017q4/bin/../lib/gcc/arm-none-eabi/7.2.1/../../../../arm-none-eabi/lib/thumb/v7-m/libc.a(lib_a-strlen-stub.o)
 .bss           0x0000000000000000        0x0 /Users/lgcampos/Library/Arduino15/packages/arduino/tools/arm-none-eabi-gcc/7-2017q4/bin/../lib/gcc/arm-none-eabi/7.2.1/../../../../arm-none-eabi/lib/thumb/v7-m/libc.a(lib_a-strlen-stub.o)
 .text          0x0000000000000000        0x0 /Users/lgcampos/Library/Arduino15/packages/arduino/tools/arm-none-eabi-gcc/7-2017q4/bin/../lib/gcc/arm-none-eabi/7.2.1/../../../../arm-none-eabi/lib/thumb/v7-m/libc.a(lib_a-__call_atexit.o)
 .data          0x0000000000000000        0x0 /Users/lgcampos/Library/Arduino15/packages/arduino/tools/arm-none-eabi-gcc/7-2017q4/bin/../lib/gcc/arm-none-eabi/7.2.1/../../../../arm-none-eabi/lib/thumb/v7-m/libc.a(lib_a-__call_atexit.o)
 .bss           0x0000000000000000        0x0 /Users/lgcampos/Library/Arduino15/packages/arduino/tools/arm-none-eabi-gcc/7-2017q4/bin/../lib/gcc/arm-none-eabi/7.2.1/../../../../arm-none-eabi/lib/thumb/v7-m/libc.a(lib_a-__call_atexit.o)
 .text          0x0000000000000000        0x0 /Users/lgcampos/Library/Arduino15/packages/arduino/tools/arm-none-eabi-gcc/7-2017q4/bin/../lib/gcc/arm-none-eabi/7.2.1/../../../../arm-none-eabi/lib/thumb/v7-m/libc.a(lib_a-atexit.o)
 .data          0x0000000000000000        0x0 /Users/lgcampos/Library/Arduino15/packages/arduino/tools/arm-none-eabi-gcc/7-2017q4/bin/../lib/gcc/arm-none-eabi/7.2.1/../../../../arm-none-eabi/lib/thumb/v7-m/libc.a(lib_a-atexit.o)
 .bss           0x0000000000000000        0x0 /Users/lgcampos/Library/Arduino15/packages/arduino/tools/arm-none-eabi-gcc/7-2017q4/bin/../lib/gcc/arm-none-eabi/7.2.1/../../../../arm-none-eabi/lib/thumb/v7-m/libc.a(lib_a-atexit.o)
 .text          0x0000000000000000        0x0 /Users/lgcampos/Library/Arduino15/packages/arduino/tools/arm-none-eabi-gcc/7-2017q4/bin/../lib/gcc/arm-none-eabi/7.2.1/../../../../arm-none-eabi/lib/thumb/v7-m/libc.a(lib_a-fini.o)
 .data          0x0000000000000000        0x0 /Users/lgcampos/Library/Arduino15/packages/arduino/tools/arm-none-eabi-gcc/7-2017q4/bin/../lib/gcc/arm-none-eabi/7.2.1/../../../../arm-none-eabi/lib/thumb/v7-m/libc.a(lib_a-fini.o)
 .bss           0x0000000000000000        0x0 /Users/lgcampos/Library/Arduino15/packages/arduino/tools/arm-none-eabi-gcc/7-2017q4/bin/../lib/gcc/arm-none-eabi/7.2.1/../../../../arm-none-eabi/lib/thumb/v7-m/libc.a(lib_a-fini.o)
 .text          0x0000000000000000        0x0 /Users/lgcampos/Library/Arduino15/packages/arduino/tools/arm-none-eabi-gcc/7-2017q4/bin/../lib/gcc/arm-none-eabi/7.2.1/../../../../arm-none-eabi/lib/thumb/v7-m/libc.a(lib_a-freer.o)
 .data          0x0000000000000000        0x0 /Users/lgcampos/Library/Arduino15/packages/arduino/tools/arm-none-eabi-gcc/7-2017q4/bin/../lib/gcc/arm-none-eabi/7.2.1/../../../../arm-none-eabi/lib/thumb/v7-m/libc.a(lib_a-freer.o)
 .bss           0x0000000000000000        0x0 /Users/lgcampos/Library/Arduino15/packages/arduino/tools/arm-none-eabi-gcc/7-2017q4/bin/../lib/gcc/arm-none-eabi/7.2.1/../../../../arm-none-eabi/lib/thumb/v7-m/libc.a(lib_a-freer.o)
 .text          0x0000000000000000        0x0 /Users/lgcampos/Library/Arduino15/packages/arduino/tools/arm-none-eabi-gcc/7-2017q4/bin/../lib/gcc/arm-none-eabi/7.2.1/../../../../arm-none-eabi/lib/thumb/v7-m/libc.a(lib_a-lock.o)
 .data          0x0000000000000000        0x0 /Users/lgcampos/Library/Arduino15/packages/arduino/tools/arm-none-eabi-gcc/7-2017q4/bin/../lib/gcc/arm-none-eabi/7.2.1/../../../../arm-none-eabi/lib/thumb/v7-m/libc.a(lib_a-lock.o)
 .bss           0x0000000000000000        0x0 /Users/lgcampos/Library/Arduino15/packages/arduino/tools/arm-none-eabi-gcc/7-2017q4/bin/../lib/gcc/arm-none-eabi/7.2.1/../../../../arm-none-eabi/lib/thumb/v7-m/libc.a(lib_a-lock.o)
 .text.__retarget_lock_init
                0x0000000000000000        0x4 /Users/lgcampos/Library/Arduino15/packages/arduino/tools/arm-none-eabi-gcc/7-2017q4/bin/../lib/gcc/arm-none-eabi/7.2.1/../../../../arm-none-eabi/lib/thumb/v7-m/libc.a(lib_a-lock.o)
 .text.__retarget_lock_init_recursive
                0x0000000000000000        0x4 /Users/lgcampos/Library/Arduino15/packages/arduino/tools/arm-none-eabi-gcc/7-2017q4/bin/../lib/gcc/arm-none-eabi/7.2.1/../../../../arm-none-eabi/lib/thumb/v7-m/libc.a(lib_a-lock.o)
 .text.__retarget_lock_close
                0x0000000000000000        0x4 /Users/lgcampos/Library/Arduino15/packages/arduino/tools/arm-none-eabi-gcc/7-2017q4/bin/../lib/gcc/arm-none-eabi/7.2.1/../../../../arm-none-eabi/lib/thumb/v7-m/libc.a(lib_a-lock.o)
 .text.__retarget_lock_close_recursive
                0x0000000000000000        0x4 /Users/lgcampos/Library/Arduino15/packages/arduino/tools/arm-none-eabi-gcc/7-2017q4/bin/../lib/gcc/arm-none-eabi/7.2.1/../../../../arm-none-eabi/lib/thumb/v7-m/libc.a(lib_a-lock.o)
 .text.__retarget_lock_acquire
                0x0000000000000000        0x4 /Users/lgcampos/Library/Arduino15/packages/arduino/tools/arm-none-eabi-gcc/7-2017q4/bin/../lib/gcc/arm-none-eabi/7.2.1/../../../../arm-none-eabi/lib/thumb/v7-m/libc.a(lib_a-lock.o)
 .text.__retarget_lock_try_acquire
                0x0000000000000000        0x4 /Users/lgcampos/Library/Arduino15/packages/arduino/tools/arm-none-eabi-gcc/7-2017q4/bin/../lib/gcc/arm-none-eabi/7.2.1/../../../../arm-none-eabi/lib/thumb/v7-m/libc.a(lib_a-lock.o)
 .text.__retarget_lock_try_acquire_recursive
                0x0000000000000000        0x4 /Users/lgcampos/Library/Arduino15/packages/arduino/tools/arm-none-eabi-gcc/7-2017q4/bin/../lib/gcc/arm-none-eabi/7.2.1/../../../../arm-none-eabi/lib/thumb/v7-m/libc.a(lib_a-lock.o)
 .text.__retarget_lock_release
                0x0000000000000000        0x4 /Users/lgcampos/Library/Arduino15/packages/arduino/tools/arm-none-eabi-gcc/7-2017q4/bin/../lib/gcc/arm-none-eabi/7.2.1/../../../../arm-none-eabi/lib/thumb/v7-m/libc.a(lib_a-lock.o)
 .text          0x0000000000000000        0x0 /Users/lgcampos/Library/Arduino15/packages/arduino/tools/arm-none-eabi-gcc/7-2017q4/bin/../lib/gcc/arm-none-eabi/7.2.1/../../../../arm-none-eabi/lib/thumb/v7-m/libc.a(lib_a-reent.o)
 .data          0x0000000000000000        0x0 /Users/lgcampos/Library/Arduino15/packages/arduino/tools/arm-none-eabi-gcc/7-2017q4/bin/../lib/gcc/arm-none-eabi/7.2.1/../../../../arm-none-eabi/lib/thumb/v7-m/libc.a(lib_a-reent.o)
 .bss           0x0000000000000000        0x0 /Users/lgcampos/Library/Arduino15/packages/arduino/tools/arm-none-eabi-gcc/7-2017q4/bin/../lib/gcc/arm-none-eabi/7.2.1/../../../../arm-none-eabi/lib/thumb/v7-m/libc.a(lib_a-reent.o)
 .text.cleanup_glue
                0x0000000000000000       0x28 /Users/lgcampos/Library/Arduino15/packages/arduino/tools/arm-none-eabi-gcc/7-2017q4/bin/../lib/gcc/arm-none-eabi/7.2.1/../../../../arm-none-eabi/lib/thumb/v7-m/libc.a(lib_a-reent.o)
 .text._reclaim_reent
                0x0000000000000000       0x88 /Users/lgcampos/Library/Arduino15/packages/arduino/tools/arm-none-eabi-gcc/7-2017q4/bin/../lib/gcc/arm-none-eabi/7.2.1/../../../../arm-none-eabi/lib/thumb/v7-m/libc.a(lib_a-reent.o)
 .text          0x0000000000000000        0x0 /Users/lgcampos/Library/Arduino15/packages/arduino/tools/arm-none-eabi-gcc/7-2017q4/bin/../lib/gcc/arm-none-eabi/7.2.1/../../../../arm-none-eabi/lib/thumb/v7-m/libc.a(lib_a-__atexit.o)
 .data          0x0000000000000000        0x0 /Users/lgcampos/Library/Arduino15/packages/arduino/tools/arm-none-eabi-gcc/7-2017q4/bin/../lib/gcc/arm-none-eabi/7.2.1/../../../../arm-none-eabi/lib/thumb/v7-m/libc.a(lib_a-__atexit.o)
 .bss           0x0000000000000000        0x0 /Users/lgcampos/Library/Arduino15/packages/arduino/tools/arm-none-eabi-gcc/7-2017q4/bin/../lib/gcc/arm-none-eabi/7.2.1/../../../../arm-none-eabi/lib/thumb/v7-m/libc.a(lib_a-__atexit.o)
 .text          0x0000000000000000        0x0 /Users/lgcampos/Library/Arduino15/packages/arduino/tools/arm-none-eabi-gcc/7-2017q4/bin/../lib/gcc/arm-none-eabi/7.2.1/thumb/v7-m/crtend.o
 .data          0x0000000000000000        0x0 /Users/lgcampos/Library/Arduino15/packages/arduino/tools/arm-none-eabi-gcc/7-2017q4/bin/../lib/gcc/arm-none-eabi/7.2.1/thumb/v7-m/crtend.o
 .bss           0x0000000000000000        0x0 /Users/lgcampos/Library/Arduino15/packages/arduino/tools/arm-none-eabi-gcc/7-2017q4/bin/../lib/gcc/arm-none-eabi/7.2.1/thumb/v7-m/crtend.o
 .eh_frame      0x0000000000000000        0x4 /Users/lgcampos/Library/Arduino15/packages/arduino/tools/arm-none-eabi-gcc/7-2017q4/bin/../lib/gcc/arm-none-eabi/7.2.1/thumb/v7-m/crtend.o
 .text          0x0000000000000000        0x0 /Users/lgcampos/Library/Arduino15/packages/arduino/tools/arm-none-eabi-gcc/7-2017q4/bin/../lib/gcc/arm-none-eabi/7.2.1/thumb/v7-m/crtn.o
 .data          0x0000000000000000        0x0 /Users/lgcampos/Library/Arduino15/packages/arduino/tools/arm-none-eabi-gcc/7-2017q4/bin/../lib/gcc/arm-none-eabi/7.2.1/thumb/v7-m/crtn.o
 .bss           0x0000000000000000        0x0 /Users/lgcampos/Library/Arduino15/packages/arduino/tools/arm-none-eabi-gcc/7-2017q4/bin/../lib/gcc/arm-none-eabi/7.2.1/thumb/v7-m/crtn.o

Memory Configuration

Name             Origin             Length             Attributes
ram              0x0000000020000000 0x0000000000005000 xrw
rom              0x0000000008000000 0x0000000000010000 xr
*default*        0x0000000000000000 0xffffffffffffffff

Linker script and memory map

LOAD /Users/lgcampos/Library/Arduino15/packages/arduino/tools/arm-none-eabi-gcc/7-2017q4/bin/../lib/gcc/arm-none-eabi/7.2.1/thumb/v7-m/crti.o
LOAD /Users/lgcampos/Library/Arduino15/packages/arduino/tools/arm-none-eabi-gcc/7-2017q4/bin/../lib/gcc/arm-none-eabi/7.2.1/thumb/v7-m/crtbegin.o
LOAD /Users/lgcampos/Library/Arduino15/packages/arduino/tools/arm-none-eabi-gcc/7-2017q4/bin/../lib/gcc/arm-none-eabi/7.2.1/../../../../arm-none-eabi/lib/thumb/v7-m/crt0.o
LOAD /Users/lgcampos/Library/Arduino15/packages/arduino/tools/arm-none-eabi-gcc/7-2017q4/bin/../lib/gcc/arm-none-eabi/7.2.1/thumb/v7-m/libgcc.a
START GROUP
LOAD /var/folders/hj/xvmq845d4rq0_l026j3g6x8c0000gn/T/arduino-sketch-783AC80E8B34696ACA1CC87DB6CF7DB3/sketch/LowMemoryExample.ino.cpp.o
LOAD /var/folders/hj/xvmq845d4rq0_l026j3g6x8c0000gn/T/arduino-sketch-783AC80E8B34696ACA1CC87DB6CF7DB3/libraries/CorePartition/CorePartition.c.o
LOAD /var/folders/hj/xvmq845d4rq0_l026j3g6x8c0000gn/T/arduino-sketch-783AC80E8B34696ACA1CC87DB6CF7DB3/core/wirish/start.S.o
LOAD /var/folders/hj/xvmq845d4rq0_l026j3g6x8c0000gn/T/arduino-sketch-783AC80E8B34696ACA1CC87DB6CF7DB3/core/wirish/start_c.c.o
LOAD /var/folders/hj/xvmq845d4rq0_l026j3g6x8c0000gn/T/arduino-sketch-783AC80E8B34696ACA1CC87DB6CF7DB3/core/wirish/syscalls.c.o
LOAD /var/folders/hj/xvmq845d4rq0_l026j3g6x8c0000gn/T/arduino-sketch-783AC80E8B34696ACA1CC87DB6CF7DB3/core/board.cpp.o
LOAD /var/folders/hj/xvmq845d4rq0_l026j3g6x8c0000gn/T/arduino-sketch-783AC80E8B34696ACA1CC87DB6CF7DB3/core/wirish/boards.cpp.o
LOAD /var/folders/hj/xvmq845d4rq0_l026j3g6x8c0000gn/T/arduino-sketch-783AC80E8B34696ACA1CC87DB6CF7DB3/core/wirish/boards_setup.cpp.o
LOAD /var/folders/hj/xvmq845d4rq0_l026j3g6x8c0000gn/T/arduino-core-cache/core_0bde13c9a0eea2bfdc716a2fc04bccd4.a
END GROUP
LOAD /Users/lgcampos/Library/Arduino15/packages/arduino/tools/arm-none-eabi-gcc/7-2017q4/bin/../lib/gcc/arm-none-eabi/7.2.1/../../../../arm-none-eabi/lib/thumb/v7-m/libstdc++.a
LOAD /Users/lgcampos/Library/Arduino15/packages/arduino/tools/arm-none-eabi-gcc/7-2017q4/bin/../lib/gcc/arm-none-eabi/7.2.1/../../../../arm-none-eabi/lib/thumb/v7-m/libm.a
START GROUP
LOAD /Users/lgcampos/Library/Arduino15/packages/arduino/tools/arm-none-eabi-gcc/7-2017q4/bin/../lib/gcc/arm-none-eabi/7.2.1/thumb/v7-m/libgcc.a
LOAD /Users/lgcampos/Library/Arduino15/packages/arduino/tools/arm-none-eabi-gcc/7-2017q4/bin/../lib/gcc/arm-none-eabi/7.2.1/../../../../arm-none-eabi/lib/thumb/v7-m/libc.a
END GROUP
LOAD /Users/lgcampos/Library/Arduino15/packages/arduino/tools/arm-none-eabi-gcc/7-2017q4/bin/../lib/gcc/arm-none-eabi/7.2.1/thumb/v7-m/crtend.o
LOAD /Users/lgcampos/Library/Arduino15/packages/arduino/tools/arm-none-eabi-gcc/7-2017q4/bin/../lib/gcc/arm-none-eabi/7.2.1/thumb/v7-m/crtn.o
START GROUP
LOAD /Users/lgcampos/Library/Arduino15/packages/arduino/tools/arm-none-eabi-gcc/7-2017q4/bin/../lib/gcc/arm-none-eabi/7.2.1/thumb/v7-m/libgcc.a
LOAD /Users/lgcampos/Library/Arduino15/packages/arduino/tools/arm-none-eabi-gcc/7-2017q4/bin/../lib/gcc/arm-none-eabi/7.2.1/../../../../arm-none-eabi/lib/thumb/v7-m/libc.a
LOAD /Users/lgcampos/Library/Arduino15/packages/arduino/tools/arm-none-eabi-gcc/7-2017q4/bin/../lib/gcc/arm-none-eabi/7.2.1/../../../../arm-none-eabi/lib/thumb/v7-m/libm.a
END GROUP
START GROUP
LOAD /Users/lgcampos/Library/Arduino15/packages/arduino/tools/arm-none-eabi-gcc/7-2017q4/bin/../lib/gcc/arm-none-eabi/7.2.1/../../../../arm-none-eabi/lib/thumb/v7-m/libnosys.a
END GROUP
                0x0000000020005000                PROVIDE (__msp_init, (ORIGIN (ram) + LENGTH (ram)))
                0x00000000080014a8                PROVIDE (__exc_reset, __start__)

.text           0x0000000008000000     0x594c
                0x0000000008000000                __text_start__ = .
 *(.stm32.interrupt_vector)
 .stm32.interrupt_vector
                0x0000000008000000       0xec /var/folders/hj/xvmq845d4rq0_l026j3g6x8c0000gn/T/arduino-core-cache/core_0bde13c9a0eea2bfdc716a2fc04bccd4.a(vector_table.S.o)
                0x0000000008000000                __stm32_vector_table
 *(.text .text.* .gnu.linkonce.t.*)
 .text          0x00000000080000ec       0x40 /Users/lgcampos/Library/Arduino15/packages/arduino/tools/arm-none-eabi-gcc/7-2017q4/bin/../lib/gcc/arm-none-eabi/7.2.1/thumb/v7-m/crtbegin.o
 .text._Z27ThreadCounterMessageHandlerPvPKcj13CpxMsgPayload
                0x000000000800012c       0x14 /var/folders/hj/xvmq845d4rq0_l026j3g6x8c0000gn/T/arduino-sketch-783AC80E8B34696ACA1CC87DB6CF7DB3/sketch/LowMemoryExample.ino.cpp.o
                0x000000000800012c                ThreadCounterMessageHandler(void*, char const*, unsigned int, CpxMsgPayload)
 .text._Z13CounterThreadPv
                0x0000000008000140       0x30 /var/folders/hj/xvmq845d4rq0_l026j3g6x8c0000gn/T/arduino-sketch-783AC80E8B34696ACA1CC87DB6CF7DB3/sketch/LowMemoryExample.ino.cpp.o
                0x0000000008000140                CounterThread(void*)
 .text._Z14eventualThreadPv
                0x0000000008000170      0x180 /var/folders/hj/xvmq845d4rq0_l026j3g6x8c0000gn/T/arduino-sketch-783AC80E8B34696ACA1CC87DB6CF7DB3/sketch/LowMemoryExample.ino.cpp.o
                0x0000000008000170                eventualThread(void*)
 .text._Z18ShowRunningThreadsv
                0x00000000080002f0      0x144 /var/folders/hj/xvmq845d4rq0_l026j3g6x8c0000gn/T/arduino-sketch-783AC80E8B34696ACA1CC87DB6CF7DB3/sketch/LowMemoryExample.ino.cpp.o
                0x00000000080002f0                ShowRunningThreads()
 .text.CorePartition_GetCurrentTick
                0x0000000008000434        0xc /var/folders/hj/xvmq845d4rq0_l026j3g6x8c0000gn/T/arduino-sketch-783AC80E8B34696ACA1CC87DB6CF7DB3/sketch/LowMemoryExample.ino.cpp.o
                0x0000000008000434                CorePartition_GetCurrentTick
 .text.CorePartition_SleepTicks
                0x0000000008000440        0x4 /var/folders/hj/xvmq845d4rq0_l026j3g6x8c0000gn/T/arduino-sketch-783AC80E8B34696ACA1CC87DB6CF7DB3/sketch/LowMemoryExample.ino.cpp.o
                0x0000000008000440                CorePartition_SleepTicks
 .text._Z4loopv
                0x0000000008000444        0x4 /var/folders/hj/xvmq845d4rq0_l026j3g6x8c0000gn/T/arduino-sketch-783AC80E8B34696ACA1CC87DB6CF7DB3/sketch/LowMemoryExample.ino.cpp.o
                0x0000000008000444                loop()
 .text._Z6ThreadPv
                0x0000000008000448      0x21c /var/folders/hj/xvmq845d4rq0_l026j3g6x8c0000gn/T/arduino-sketch-783AC80E8B34696ACA1CC87DB6CF7DB3/sketch/LowMemoryExample.ino.cpp.o
                0x0000000008000448                Thread(void*)
 .text._Z20StackOverflowHandlerv
                0x0000000008000664       0x4c /var/folders/hj/xvmq845d4rq0_l026j3g6x8c0000gn/T/arduino-sketch-783AC80E8B34696ACA1CC87DB6CF7DB3/sketch/LowMemoryExample.ino.cpp.o
                0x0000000008000664                StackOverflowHandler()
 .text._Z5setupv
                0x00000000080006b0      0x194 /var/folders/hj/xvmq845d4rq0_l026j3g6x8c0000gn/T/arduino-sketch-783AC80E8B34696ACA1CC87DB6CF7DB3/sketch/LowMemoryExample.ino.cpp.o
                0x00000000080006b0                setup()
 .text.CorePartition_SetStackOverflowHandler
                0x0000000008000844       0x18 /var/folders/hj/xvmq845d4rq0_l026j3g6x8c0000gn/T/arduino-sketch-783AC80E8B34696ACA1CC87DB6CF7DB3/libraries/CorePartition/CorePartition.c.o
                0x0000000008000844                CorePartition_SetStackOverflowHandler
 .text.CorePartition_Start
                0x000000000800085c       0x30 /var/folders/hj/xvmq845d4rq0_l026j3g6x8c0000gn/T/arduino-sketch-783AC80E8B34696ACA1CC87DB6CF7DB3/libraries/CorePartition/CorePartition.c.o
                0x000000000800085c                CorePartition_Start
 .text.CorePartition_EnableBroker
                0x000000000800088c       0x58 /var/folders/hj/xvmq845d4rq0_l026j3g6x8c0000gn/T/arduino-sketch-783AC80E8B34696ACA1CC87DB6CF7DB3/libraries/CorePartition/CorePartition.c.o
                0x000000000800088c                CorePartition_EnableBroker
 .text.CorePartition_IsSubscribed
                0x00000000080008e4      0x190 /var/folders/hj/xvmq845d4rq0_l026j3g6x8c0000gn/T/arduino-sketch-783AC80E8B34696ACA1CC87DB6CF7DB3/libraries/CorePartition/CorePartition.c.o
                0x00000000080008e4                CorePartition_IsSubscribed
 .text.CorePartition_SubscribeTopic
                0x0000000008000a74      0x19c /var/folders/hj/xvmq845d4rq0_l026j3g6x8c0000gn/T/arduino-sketch-783AC80E8B34696ACA1CC87DB6CF7DB3/libraries/CorePartition/CorePartition.c.o
                0x0000000008000a74                CorePartition_SubscribeTopic
 .text.CorePartition_CreateSecureThread
                0x0000000008000c10       0xe4 /var/folders/hj/xvmq845d4rq0_l026j3g6x8c0000gn/T/arduino-sketch-783AC80E8B34696ACA1CC87DB6CF7DB3/libraries/CorePartition/CorePartition.c.o
                0x0000000008000c10                CorePartition_CreateSecureThread
 .text.CorePartition_CreateThread
                0x0000000008000cf4       0xe4 /var/folders/hj/xvmq845d4rq0_l026j3g6x8c0000gn/T/arduino-sketch-783AC80E8B34696ACA1CC87DB6CF7DB3/libraries/CorePartition/CorePartition.c.o
                0x0000000008000cf4                CorePartition_CreateThread
 .text.CorePartition_Join
                0x0000000008000dd8      0x1a4 /var/folders/hj/xvmq845d4rq0_l026j3g6x8c0000gn/T/arduino-sketch-783AC80E8B34696ACA1CC87DB6CF7DB3/libraries/CorePartition/CorePartition.c.o
                0x0000000008000dd8                CorePartition_Join
 .text.CorePartition_Yield
                0x0000000008000f7c      0x1b4 /var/folders/hj/xvmq845d4rq0_l026j3g6x8c0000gn/T/arduino-sketch-783AC80E8B34696ACA1CC87DB6CF7DB3/libraries/CorePartition/CorePartition.c.o
                0x0000000008000f7c                CorePartition_Yield
 .text.CorePartition_PublishTopic
                0x0000000008001130      0x214 /var/folders/hj/xvmq845d4rq0_l026j3g6x8c0000gn/T/arduino-sketch-783AC80E8B34696ACA1CC87DB6CF7DB3/libraries/CorePartition/CorePartition.c.o
                0x0000000008001130                CorePartition_PublishTopic
 .text.CorePartition_GetID
                0x0000000008001344        0xc /var/folders/hj/xvmq845d4rq0_l026j3g6x8c0000gn/T/arduino-sketch-783AC80E8B34696ACA1CC87DB6CF7DB3/libraries/CorePartition/CorePartition.c.o
                0x0000000008001344                CorePartition_GetID
 .text.CorePartition_GetStackSizeByID
                0x0000000008001350       0x24 /var/folders/hj/xvmq845d4rq0_l026j3g6x8c0000gn/T/arduino-sketch-783AC80E8B34696ACA1CC87DB6CF7DB3/libraries/CorePartition/CorePartition.c.o
                0x0000000008001350                CorePartition_GetStackSizeByID
 .text.CorePartition_GetMaxStackSizeByID
                0x0000000008001374       0x24 /var/folders/hj/xvmq845d4rq0_l026j3g6x8c0000gn/T/arduino-sketch-783AC80E8B34696ACA1CC87DB6CF7DB3/libraries/CorePartition/CorePartition.c.o
                0x0000000008001374                CorePartition_GetMaxStackSizeByID
 .text.CorePartition_GetNiceByID
                0x0000000008001398       0x24 /var/folders/hj/xvmq845d4rq0_l026j3g6x8c0000gn/T/arduino-sketch-783AC80E8B34696ACA1CC87DB6CF7DB3/libraries/CorePartition/CorePartition.c.o
                0x0000000008001398                CorePartition_GetNiceByID
 .text.CorePartition_GetStatusByID
                0x00000000080013bc       0x24 /var/folders/hj/xvmq845d4rq0_l026j3g6x8c0000gn/T/arduino-sketch-783AC80E8B34696ACA1CC87DB6CF7DB3/libraries/CorePartition/CorePartition.c.o
                0x00000000080013bc                CorePartition_GetStatusByID
 .text.CorePartition_GetLastDutyCycleByID
                0x00000000080013e0       0x24 /var/folders/hj/xvmq845d4rq0_l026j3g6x8c0000gn/T/arduino-sketch-783AC80E8B34696ACA1CC87DB6CF7DB3/libraries/CorePartition/CorePartition.c.o
                0x00000000080013e0                CorePartition_GetLastDutyCycleByID
 .text.CorePartition_GetLastMomentumByID
                0x0000000008001404       0x24 /var/folders/hj/xvmq845d4rq0_l026j3g6x8c0000gn/T/arduino-sketch-783AC80E8B34696ACA1CC87DB6CF7DB3/libraries/CorePartition/CorePartition.c.o
                0x0000000008001404                CorePartition_GetLastMomentumByID
 .text.CorePartition_GetNumberOfActiveThreads
                0x0000000008001428        0xc /var/folders/hj/xvmq845d4rq0_l026j3g6x8c0000gn/T/arduino-sketch-783AC80E8B34696ACA1CC87DB6CF7DB3/libraries/CorePartition/CorePartition.c.o
                0x0000000008001428                CorePartition_GetNumberOfActiveThreads
 .text.CorePartition_GetMaxNumberOfThreads
                0x0000000008001434        0xc /var/folders/hj/xvmq845d4rq0_l026j3g6x8c0000gn/T/arduino-sketch-783AC80E8B34696ACA1CC87DB6CF7DB3/libraries/CorePartition/CorePartition.c.o
                0x0000000008001434                CorePartition_GetMaxNumberOfThreads
 .text.CorePartition_GetThreadContextSize
                0x0000000008001440        0x4 /var/folders/hj/xvmq845d4rq0_l026j3g6x8c0000gn/T/arduino-sketch-783AC80E8B34696ACA1CC87DB6CF7DB3/libraries/CorePartition/CorePartition.c.o
                0x0000000008001440                CorePartition_GetThreadContextSize
 .text.CorePartition_SetThreadNameByID
                0x0000000008001444       0x3c /var/folders/hj/xvmq845d4rq0_l026j3g6x8c0000gn/T/arduino-sketch-783AC80E8B34696ACA1CC87DB6CF7DB3/libraries/CorePartition/CorePartition.c.o
                0x0000000008001444                CorePartition_SetThreadNameByID
 .text.CorePartition_GetThreadNameByID
                0x0000000008001480       0x28 /var/folders/hj/xvmq845d4rq0_l026j3g6x8c0000gn/T/arduino-sketch-783AC80E8B34696ACA1CC87DB6CF7DB3/libraries/CorePartition/CorePartition.c.o
                0x0000000008001480                CorePartition_GetThreadNameByID
 .text          0x00000000080014a8       0x10 /var/folders/hj/xvmq845d4rq0_l026j3g6x8c0000gn/T/arduino-sketch-783AC80E8B34696ACA1CC87DB6CF7DB3/core/wirish/start.S.o
                0x00000000080014a8                __start__
 .text.start_c  0x00000000080014b8       0x68 /var/folders/hj/xvmq845d4rq0_l026j3g6x8c0000gn/T/arduino-sketch-783AC80E8B34696ACA1CC87DB6CF7DB3/core/wirish/start_c.c.o
                0x00000000080014b8                start_c
 .text._sbrk    0x0000000008001520       0x48 /var/folders/hj/xvmq845d4rq0_l026j3g6x8c0000gn/T/arduino-sketch-783AC80E8B34696ACA1CC87DB6CF7DB3/core/wirish/syscalls.c.o
                0x0000000008001520                _sbrk
 .text._exit    0x0000000008001568        0x4 /var/folders/hj/xvmq845d4rq0_l026j3g6x8c0000gn/T/arduino-sketch-783AC80E8B34696ACA1CC87DB6CF7DB3/core/wirish/syscalls.c.o
                0x0000000008001568                _exit
 .text._Z9boardInitv
                0x000000000800156c        0x4 /var/folders/hj/xvmq845d4rq0_l026j3g6x8c0000gn/T/arduino-sketch-783AC80E8B34696ACA1CC87DB6CF7DB3/core/board.cpp.o
                0x000000000800156c                boardInit()
 .text.startup._GLOBAL__sub_I__Z9boardInitv
                0x0000000008001570       0x48 /var/folders/hj/xvmq845d4rq0_l026j3g6x8c0000gn/T/arduino-sketch-783AC80E8B34696ACA1CC87DB6CF7DB3/core/board.cpp.o
 .text._ZL18adc_default_configP7adc_dev
                0x00000000080015b8       0x1c /var/folders/hj/xvmq845d4rq0_l026j3g6x8c0000gn/T/arduino-sketch-783AC80E8B34696ACA1CC87DB6CF7DB3/core/wirish/boards.cpp.o
 .text._ZL20timer_default_configP9timer_dev
                0x00000000080015d4       0xa0 /var/folders/hj/xvmq845d4rq0_l026j3g6x8c0000gn/T/arduino-sketch-783AC80E8B34696ACA1CC87DB6CF7DB3/core/wirish/boards.cpp.o
 .text._Z4initv
                0x0000000008001674       0xbc /var/folders/hj/xvmq845d4rq0_l026j3g6x8c0000gn/T/arduino-sketch-783AC80E8B34696ACA1CC87DB6CF7DB3/core/wirish/boards.cpp.o
                0x0000000008001674                init()
 .text._ZN6wirish4priv15board_reset_pllEv
                0x0000000008001730        0x4 /var/folders/hj/xvmq845d4rq0_l026j3g6x8c0000gn/T/arduino-sketch-783AC80E8B34696ACA1CC87DB6CF7DB3/core/wirish/boards_setup.cpp.o
                0x0000000008001730                wirish::priv::board_reset_pll()
 .text._ZN6wirish4priv28board_setup_clock_prescalersEv
                0x0000000008001734       0x30 /var/folders/hj/xvmq845d4rq0_l026j3g6x8c0000gn/T/arduino-sketch-783AC80E8B34696ACA1CC87DB6CF7DB3/core/wirish/boards_setup.cpp.o
                0x0000000008001734                wirish::priv::board_setup_clock_prescalers()
 .text._ZN6wirish4priv16board_setup_gpioEv
                0x0000000008001764        0x4 /var/folders/hj/xvmq845d4rq0_l026j3g6x8c0000gn/T/arduino-sketch-783AC80E8B34696ACA1CC87DB6CF7DB3/core/wirish/boards_setup.cpp.o
                0x0000000008001764                wirish::priv::board_setup_gpio()
 .text._ZN6wirish4priv15board_setup_usbEv
                0x0000000008001768       0x5c /var/folders/hj/xvmq845d4rq0_l026j3g6x8c0000gn/T/arduino-sketch-783AC80E8B34696ACA1CC87DB6CF7DB3/core/wirish/boards_setup.cpp.o
                0x0000000008001768                wirish::priv::board_setup_usb()
 .text._ZN6wirish4priv11series_initEv
                0x00000000080017c4        0x4 /var/folders/hj/xvmq845d4rq0_l026j3g6x8c0000gn/T/arduino-sketch-783AC80E8B34696ACA1CC87DB6CF7DB3/core/wirish/boards_setup.cpp.o
                0x00000000080017c4                wirish::priv::series_init()
 *fill*         0x00000000080017c8        0x8 
 .text          0x00000000080017d0       0x54 /var/folders/hj/xvmq845d4rq0_l026j3g6x8c0000gn/T/arduino-core-cache/core_0bde13c9a0eea2bfdc716a2fc04bccd4.a(exc.S.o)
                0x00000000080017d0                __exc_nmi
                0x00000000080017d4                __exc_hardfault
                0x00000000080017d8                __exc_memmanage
                0x00000000080017dc                __exc_busfault
                0x00000000080017e0                __exc_usagefault
 .text          0x0000000008001824        0x2 /var/folders/hj/xvmq845d4rq0_l026j3g6x8c0000gn/T/arduino-core-cache/core_0bde13c9a0eea2bfdc716a2fc04bccd4.a(isrs.S.o)
                0x0000000008001824                __irq_rcc
                0x0000000008001824                __exc_debug_monitor
                0x0000000008001824                __exc_svc
                0x0000000008001824                __irq_can_rx1
                0x0000000008001824                __irq_spi2
                0x0000000008001824                __irq_can_sce
                0x0000000008001824                __irq_pvd
                0x0000000008001824                __irq_tamper
                0x0000000008001824                __default_handler
                0x0000000008001824                __irq_wwdg
                0x0000000008001824                __stm32reservedexception10
                0x0000000008001824                __irq_flash
                0x0000000008001824                __stm32reservedexception13
                0x0000000008001824                __irq_rtc
                0x0000000008001824                __irq_spi1
                0x0000000008001824                __stm32reservedexception7
                0x0000000008001824                __irq_usb_hp_can_tx
                0x0000000008001824                __irq_rtcalarm
                0x0000000008001824                __stm32reservedexception8
                0x0000000008001824                __exc_pendsv
                0x0000000008001824                __irq_usbwakeup
                0x0000000008001824                __stm32reservedexception9
 *fill*         0x0000000008001826        0x2 
 .text.adc_init
                0x0000000008001828       0x14 /var/folders/hj/xvmq845d4rq0_l026j3g6x8c0000gn/T/arduino-core-cache/core_0bde13c9a0eea2bfdc716a2fc04bccd4.a(adc.c.o)
                0x0000000008001828                adc_init
 .text.adc_set_extsel
                0x000000000800183c       0x14 /var/folders/hj/xvmq845d4rq0_l026j3g6x8c0000gn/T/arduino-core-cache/core_0bde13c9a0eea2bfdc716a2fc04bccd4.a(adc.c.o)
                0x000000000800183c                adc_set_extsel
 .text.adc_set_sample_rate
                0x0000000008001850       0x40 /var/folders/hj/xvmq845d4rq0_l026j3g6x8c0000gn/T/arduino-core-cache/core_0bde13c9a0eea2bfdc716a2fc04bccd4.a(adc.c.o)
                0x0000000008001850                adc_set_sample_rate
 .text.__irq_adc
                0x0000000008001890       0x54 /var/folders/hj/xvmq845d4rq0_l026j3g6x8c0000gn/T/arduino-core-cache/core_0bde13c9a0eea2bfdc716a2fc04bccd4.a(adc_f1.c.o)
                0x0000000008001890                __irq_adc
 .text.adc_set_prescaler
                0x00000000080018e4        0x8 /var/folders/hj/xvmq845d4rq0_l026j3g6x8c0000gn/T/arduino-core-cache/core_0bde13c9a0eea2bfdc716a2fc04bccd4.a(adc_f1.c.o)
                0x00000000080018e4                adc_set_prescaler
 .text.adc_foreach
                0x00000000080018ec       0x20 /var/folders/hj/xvmq845d4rq0_l026j3g6x8c0000gn/T/arduino-core-cache/core_0bde13c9a0eea2bfdc716a2fc04bccd4.a(adc_f1.c.o)
                0x00000000080018ec                adc_foreach
 .text.adc_enable_single_swstart
                0x000000000800190c       0x50 /var/folders/hj/xvmq845d4rq0_l026j3g6x8c0000gn/T/arduino-core-cache/core_0bde13c9a0eea2bfdc716a2fc04bccd4.a(adc_f1.c.o)
                0x000000000800190c                adc_enable_single_swstart
 .text.__irq_dma1_channel1
                0x000000000800195c       0x18 /var/folders/hj/xvmq845d4rq0_l026j3g6x8c0000gn/T/arduino-core-cache/core_0bde13c9a0eea2bfdc716a2fc04bccd4.a(dma_f1.c.o)
                0x000000000800195c                __irq_dma1_channel1
 .text.__irq_dma1_channel2
                0x0000000008001974       0x18 /var/folders/hj/xvmq845d4rq0_l026j3g6x8c0000gn/T/arduino-core-cache/core_0bde13c9a0eea2bfdc716a2fc04bccd4.a(dma_f1.c.o)
                0x0000000008001974                __irq_dma1_channel2
 .text.__irq_dma1_channel3
                0x000000000800198c       0x1c /var/folders/hj/xvmq845d4rq0_l026j3g6x8c0000gn/T/arduino-core-cache/core_0bde13c9a0eea2bfdc716a2fc04bccd4.a(dma_f1.c.o)
                0x000000000800198c                __irq_dma1_channel3
 .text.__irq_dma1_channel4
                0x00000000080019a8       0x1c /var/folders/hj/xvmq845d4rq0_l026j3g6x8c0000gn/T/arduino-core-cache/core_0bde13c9a0eea2bfdc716a2fc04bccd4.a(dma_f1.c.o)
                0x00000000080019a8                __irq_dma1_channel4
 .text.__irq_dma1_channel5
                0x00000000080019c4       0x1c /var/folders/hj/xvmq845d4rq0_l026j3g6x8c0000gn/T/arduino-core-cache/core_0bde13c9a0eea2bfdc716a2fc04bccd4.a(dma_f1.c.o)
                0x00000000080019c4                __irq_dma1_channel5
 .text.__irq_dma1_channel6
                0x00000000080019e0       0x1c /var/folders/hj/xvmq845d4rq0_l026j3g6x8c0000gn/T/arduino-core-cache/core_0bde13c9a0eea2bfdc716a2fc04bccd4.a(dma_f1.c.o)
                0x00000000080019e0                __irq_dma1_channel6
 .text.__irq_dma1_channel7
                0x00000000080019fc       0x1c /var/folders/hj/xvmq845d4rq0_l026j3g6x8c0000gn/T/arduino-core-cache/core_0bde13c9a0eea2bfdc716a2fc04bccd4.a(dma_f1.c.o)
                0x00000000080019fc                __irq_dma1_channel7
 .text.__irq_exti0
                0x0000000008001a18       0x20 /var/folders/hj/xvmq845d4rq0_l026j3g6x8c0000gn/T/arduino-core-cache/core_0bde13c9a0eea2bfdc716a2fc04bccd4.a(exti.c.o)
                0x0000000008001a18                __irq_exti0
 .text.__irq_exti1
                0x0000000008001a38       0x20 /var/folders/hj/xvmq845d4rq0_l026j3g6x8c0000gn/T/arduino-core-cache/core_0bde13c9a0eea2bfdc716a2fc04bccd4.a(exti.c.o)
                0x0000000008001a38                __irq_exti1
 .text.__irq_exti2
                0x0000000008001a58       0x20 /var/folders/hj/xvmq845d4rq0_l026j3g6x8c0000gn/T/arduino-core-cache/core_0bde13c9a0eea2bfdc716a2fc04bccd4.a(exti.c.o)
                0x0000000008001a58                __irq_exti2
 .text.__irq_exti3
                0x0000000008001a78       0x20 /var/folders/hj/xvmq845d4rq0_l026j3g6x8c0000gn/T/arduino-core-cache/core_0bde13c9a0eea2bfdc716a2fc04bccd4.a(exti.c.o)
                0x0000000008001a78                __irq_exti3
 .text.__irq_exti4
                0x0000000008001a98       0x20 /var/folders/hj/xvmq845d4rq0_l026j3g6x8c0000gn/T/arduino-core-cache/core_0bde13c9a0eea2bfdc716a2fc04bccd4.a(exti.c.o)
                0x0000000008001a98                __irq_exti4
 .text.__irq_exti9_5
                0x0000000008001ab8       0x48 /var/folders/hj/xvmq845d4rq0_l026j3g6x8c0000gn/T/arduino-core-cache/core_0bde13c9a0eea2bfdc716a2fc04bccd4.a(exti.c.o)
                0x0000000008001ab8                __irq_exti9_5
 .text.__irq_exti15_10
                0x0000000008001b00       0x48 /var/folders/hj/xvmq845d4rq0_l026j3g6x8c0000gn/T/arduino-core-cache/core_0bde13c9a0eea2bfdc716a2fc04bccd4.a(exti.c.o)
                0x0000000008001b00                __irq_exti15_10
 .text.flash_set_latency
                0x0000000008001b48       0x14 /var/folders/hj/xvmq845d4rq0_l026j3g6x8c0000gn/T/arduino-core-cache/core_0bde13c9a0eea2bfdc716a2fc04bccd4.a(flash.c.o)
                0x0000000008001b48                flash_set_latency
 .text.gpio_init_all
                0x0000000008001b5c       0x30 /var/folders/hj/xvmq845d4rq0_l026j3g6x8c0000gn/T/arduino-core-cache/core_0bde13c9a0eea2bfdc716a2fc04bccd4.a(gpio_f1.c.o)
                0x0000000008001b5c                gpio_init_all
 .text.gpio_set_mode
                0x0000000008001b8c       0x5c /var/folders/hj/xvmq845d4rq0_l026j3g6x8c0000gn/T/arduino-core-cache/core_0bde13c9a0eea2bfdc716a2fc04bccd4.a(gpio_f1.c.o)
                0x0000000008001b8c                gpio_set_mode
 .text.afio_init
                0x0000000008001be8       0x14 /var/folders/hj/xvmq845d4rq0_l026j3g6x8c0000gn/T/arduino-core-cache/core_0bde13c9a0eea2bfdc716a2fc04bccd4.a(gpio_f1.c.o)
                0x0000000008001be8                afio_init
 .text.__irq_i2c1_ev
                0x0000000008001bfc        0xc /var/folders/hj/xvmq845d4rq0_l026j3g6x8c0000gn/T/arduino-core-cache/core_0bde13c9a0eea2bfdc716a2fc04bccd4.a(i2c_f1.c.o)
                0x0000000008001bfc                __irq_i2c1_ev
 .text.__irq_i2c2_ev
                0x0000000008001c08        0xc /var/folders/hj/xvmq845d4rq0_l026j3g6x8c0000gn/T/arduino-core-cache/core_0bde13c9a0eea2bfdc716a2fc04bccd4.a(i2c_f1.c.o)
                0x0000000008001c08                __irq_i2c2_ev
 .text.__irq_i2c1_er
                0x0000000008001c14        0xc /var/folders/hj/xvmq845d4rq0_l026j3g6x8c0000gn/T/arduino-core-cache/core_0bde13c9a0eea2bfdc716a2fc04bccd4.a(i2c_f1.c.o)
                0x0000000008001c14                __irq_i2c1_er
 .text.__irq_i2c2_er
                0x0000000008001c20        0xc /var/folders/hj/xvmq845d4rq0_l026j3g6x8c0000gn/T/arduino-core-cache/core_0bde13c9a0eea2bfdc716a2fc04bccd4.a(i2c_f1.c.o)
                0x0000000008001c20                __irq_i2c2_er
 .text.nvic_init
                0x0000000008001c2c       0x34 /var/folders/hj/xvmq845d4rq0_l026j3g6x8c0000gn/T/arduino-core-cache/core_0bde13c9a0eea2bfdc716a2fc04bccd4.a(nvic.c.o)
                0x0000000008001c2c                nvic_init
 .text.nvic_sys_reset
                0x0000000008001c60       0x1c /var/folders/hj/xvmq845d4rq0_l026j3g6x8c0000gn/T/arduino-core-cache/core_0bde13c9a0eea2bfdc716a2fc04bccd4.a(nvic.c.o)
                0x0000000008001c60                nvic_sys_reset
 .text.rcc_dev_clk
                0x0000000008001c7c        0xc /var/folders/hj/xvmq845d4rq0_l026j3g6x8c0000gn/T/arduino-core-cache/core_0bde13c9a0eea2bfdc716a2fc04bccd4.a(rcc.c.o)
                0x0000000008001c7c                rcc_dev_clk
 .text.rcc_switch_sysclk
                0x0000000008001c88       0x24 /var/folders/hj/xvmq845d4rq0_l026j3g6x8c0000gn/T/arduino-core-cache/core_0bde13c9a0eea2bfdc716a2fc04bccd4.a(rcc.c.o)
                0x0000000008001c88                rcc_switch_sysclk
 .text.rcc_turn_on_clk
                0x0000000008001cac       0x1c /var/folders/hj/xvmq845d4rq0_l026j3g6x8c0000gn/T/arduino-core-cache/core_0bde13c9a0eea2bfdc716a2fc04bccd4.a(rcc.c.o)
                0x0000000008001cac                rcc_turn_on_clk
 .text.rcc_turn_off_clk
                0x0000000008001cc8       0x1c /var/folders/hj/xvmq845d4rq0_l026j3g6x8c0000gn/T/arduino-core-cache/core_0bde13c9a0eea2bfdc716a2fc04bccd4.a(rcc.c.o)
                0x0000000008001cc8                rcc_turn_off_clk
 .text.rcc_is_clk_ready
                0x0000000008001ce4       0x18 /var/folders/hj/xvmq845d4rq0_l026j3g6x8c0000gn/T/arduino-core-cache/core_0bde13c9a0eea2bfdc716a2fc04bccd4.a(rcc.c.o)
                0x0000000008001ce4                rcc_is_clk_ready
 .text.rcc_configure_pll
                0x0000000008001cfc       0x1c /var/folders/hj/xvmq845d4rq0_l026j3g6x8c0000gn/T/arduino-core-cache/core_0bde13c9a0eea2bfdc716a2fc04bccd4.a(rcc_f1.c.o)
                0x0000000008001cfc                rcc_configure_pll
 .text.rcc_clk_enable
                0x0000000008001d18       0x30 /var/folders/hj/xvmq845d4rq0_l026j3g6x8c0000gn/T/arduino-core-cache/core_0bde13c9a0eea2bfdc716a2fc04bccd4.a(rcc_f1.c.o)
                0x0000000008001d18                rcc_clk_enable
 .text.rcc_reset_dev
                0x0000000008001d48       0x34 /var/folders/hj/xvmq845d4rq0_l026j3g6x8c0000gn/T/arduino-core-cache/core_0bde13c9a0eea2bfdc716a2fc04bccd4.a(rcc_f1.c.o)
                0x0000000008001d48                rcc_reset_dev
 .text.rcc_set_prescaler
                0x0000000008001d7c       0x20 /var/folders/hj/xvmq845d4rq0_l026j3g6x8c0000gn/T/arduino-core-cache/core_0bde13c9a0eea2bfdc716a2fc04bccd4.a(rcc_f1.c.o)
                0x0000000008001d7c                rcc_set_prescaler
 .text.rcc_clk_disable
                0x0000000008001d9c       0x30 /var/folders/hj/xvmq845d4rq0_l026j3g6x8c0000gn/T/arduino-core-cache/core_0bde13c9a0eea2bfdc716a2fc04bccd4.a(rcc_f1.c.o)
                0x0000000008001d9c                rcc_clk_disable
 .text.systick_init
                0x0000000008001dcc       0x10 /var/folders/hj/xvmq845d4rq0_l026j3g6x8c0000gn/T/arduino-core-cache/core_0bde13c9a0eea2bfdc716a2fc04bccd4.a(systick.c.o)
                0x0000000008001dcc                systick_init
 .text.__exc_systick
                0x0000000008001ddc       0x1c /var/folders/hj/xvmq845d4rq0_l026j3g6x8c0000gn/T/arduino-core-cache/core_0bde13c9a0eea2bfdc716a2fc04bccd4.a(systick.c.o)
                0x0000000008001ddc                __exc_systick
 .text.timer_foreach
                0x0000000008001df8       0x2c /var/folders/hj/xvmq845d4rq0_l026j3g6x8c0000gn/T/arduino-core-cache/core_0bde13c9a0eea2bfdc716a2fc04bccd4.a(timer.c.o)
                0x0000000008001df8                timer_foreach
 .text.timer_init
                0x0000000008001e24       0x14 /var/folders/hj/xvmq845d4rq0_l026j3g6x8c0000gn/T/arduino-core-cache/core_0bde13c9a0eea2bfdc716a2fc04bccd4.a(timer.c.o)
                0x0000000008001e24                timer_init
 .text.timer_has_cc_channel
                0x0000000008001e38       0x34 /var/folders/hj/xvmq845d4rq0_l026j3g6x8c0000gn/T/arduino-core-cache/core_0bde13c9a0eea2bfdc716a2fc04bccd4.a(timer.c.o)
                0x0000000008001e38                timer_has_cc_channel
 .text.__irq_tim1_brk
                0x0000000008001e6c       0x24 /var/folders/hj/xvmq845d4rq0_l026j3g6x8c0000gn/T/arduino-core-cache/core_0bde13c9a0eea2bfdc716a2fc04bccd4.a(timer.c.o)
                0x0000000008001e6c                __irq_tim1_brk
 .text.__irq_tim1_up
                0x0000000008001e90       0x24 /var/folders/hj/xvmq845d4rq0_l026j3g6x8c0000gn/T/arduino-core-cache/core_0bde13c9a0eea2bfdc716a2fc04bccd4.a(timer.c.o)
                0x0000000008001e90                __irq_tim1_up
 .text.__irq_tim1_trg_com
                0x0000000008001eb4       0x3c /var/folders/hj/xvmq845d4rq0_l026j3g6x8c0000gn/T/arduino-core-cache/core_0bde13c9a0eea2bfdc716a2fc04bccd4.a(timer.c.o)
                0x0000000008001eb4                __irq_tim1_trg_com
 .text.__irq_tim1_cc
                0x0000000008001ef0       0x64 /var/folders/hj/xvmq845d4rq0_l026j3g6x8c0000gn/T/arduino-core-cache/core_0bde13c9a0eea2bfdc716a2fc04bccd4.a(timer.c.o)
                0x0000000008001ef0                __irq_tim1_cc
 .text.__irq_tim2
                0x0000000008001f54       0x80 /var/folders/hj/xvmq845d4rq0_l026j3g6x8c0000gn/T/arduino-core-cache/core_0bde13c9a0eea2bfdc716a2fc04bccd4.a(timer.c.o)
                0x0000000008001f54                __irq_tim2
 .text.__irq_tim3
                0x0000000008001fd4       0x80 /var/folders/hj/xvmq845d4rq0_l026j3g6x8c0000gn/T/arduino-core-cache/core_0bde13c9a0eea2bfdc716a2fc04bccd4.a(timer.c.o)
                0x0000000008001fd4                __irq_tim3
 .text.__irq_tim4
                0x0000000008002054       0x80 /var/folders/hj/xvmq845d4rq0_l026j3g6x8c0000gn/T/arduino-core-cache/core_0bde13c9a0eea2bfdc716a2fc04bccd4.a(timer.c.o)
                0x0000000008002054                __irq_tim4
 .text.__irq_usart1
                0x00000000080020d4       0xd4 /var/folders/hj/xvmq845d4rq0_l026j3g6x8c0000gn/T/arduino-core-cache/core_0bde13c9a0eea2bfdc716a2fc04bccd4.a(usart_f1.c.o)
                0x00000000080020d4                __irq_usart1
 .text.__irq_usart2
                0x00000000080021a8       0xd4 /var/folders/hj/xvmq845d4rq0_l026j3g6x8c0000gn/T/arduino-core-cache/core_0bde13c9a0eea2bfdc716a2fc04bccd4.a(usart_f1.c.o)
                0x00000000080021a8                __irq_usart2
 .text.__irq_usart3
                0x000000000800227c       0xd4 /var/folders/hj/xvmq845d4rq0_l026j3g6x8c0000gn/T/arduino-core-cache/core_0bde13c9a0eea2bfdc716a2fc04bccd4.a(usart_f1.c.o)
                0x000000000800227c                __irq_usart3
 .text.usb_resume
                0x0000000008002350       0xcc /var/folders/hj/xvmq845d4rq0_l026j3g6x8c0000gn/T/arduino-core-cache/core_0bde13c9a0eea2bfdc716a2fc04bccd4.a(usb.c.o)
 .text.usb_init_usblib
                0x000000000800241c       0x4c /var/folders/hj/xvmq845d4rq0_l026j3g6x8c0000gn/T/arduino-core-cache/core_0bde13c9a0eea2bfdc716a2fc04bccd4.a(usb.c.o)
                0x000000000800241c                usb_init_usblib
 .text.__irq_usb_lp_can_rx0
                0x0000000008002468      0x1dc /var/folders/hj/xvmq845d4rq0_l026j3g6x8c0000gn/T/arduino-core-cache/core_0bde13c9a0eea2bfdc716a2fc04bccd4.a(usb.c.o)
                0x0000000008002468                __irq_usb_lp_can_rx0
 .text.vcomDataTxCb
                0x0000000008002644       0xac /var/folders/hj/xvmq845d4rq0_l026j3g6x8c0000gn/T/arduino-core-cache/core_0bde13c9a0eea2bfdc716a2fc04bccd4.a(usb_cdcacm.c.o)
 .text.vcomDataRxCb
                0x00000000080026f0       0xb4 /var/folders/hj/xvmq845d4rq0_l026j3g6x8c0000gn/T/arduino-core-cache/core_0bde13c9a0eea2bfdc716a2fc04bccd4.a(usb_cdcacm.c.o)
 .text.vcomGetSetLineCoding
                0x00000000080027a4       0x18 /var/folders/hj/xvmq845d4rq0_l026j3g6x8c0000gn/T/arduino-core-cache/core_0bde13c9a0eea2bfdc716a2fc04bccd4.a(usb_cdcacm.c.o)
 .text.usbInit  0x00000000080027bc       0x48 /var/folders/hj/xvmq845d4rq0_l026j3g6x8c0000gn/T/arduino-core-cache/core_0bde13c9a0eea2bfdc716a2fc04bccd4.a(usb_cdcacm.c.o)
 .text.usbNoDataSetup
                0x0000000008002804       0x54 /var/folders/hj/xvmq845d4rq0_l026j3g6x8c0000gn/T/arduino-core-cache/core_0bde13c9a0eea2bfdc716a2fc04bccd4.a(usb_cdcacm.c.o)
 .text.usbGetInterfaceSetting
                0x0000000008002858       0x10 /var/folders/hj/xvmq845d4rq0_l026j3g6x8c0000gn/T/arduino-core-cache/core_0bde13c9a0eea2bfdc716a2fc04bccd4.a(usb_cdcacm.c.o)
 .text.usbSetConfiguration
                0x0000000008002868       0x1c /var/folders/hj/xvmq845d4rq0_l026j3g6x8c0000gn/T/arduino-core-cache/core_0bde13c9a0eea2bfdc716a2fc04bccd4.a(usb_cdcacm.c.o)
 .text.usbSetDeviceAddress
                0x0000000008002884       0x10 /var/folders/hj/xvmq845d4rq0_l026j3g6x8c0000gn/T/arduino-core-cache/core_0bde13c9a0eea2bfdc716a2fc04bccd4.a(usb_cdcacm.c.o)
 .text.usbGetStringDescriptor
                0x0000000008002894       0x20 /var/folders/hj/xvmq845d4rq0_l026j3g6x8c0000gn/T/arduino-core-cache/core_0bde13c9a0eea2bfdc716a2fc04bccd4.a(usb_cdcacm.c.o)
 .text.usbGetConfigDescriptor
                0x00000000080028b4        0xc /var/folders/hj/xvmq845d4rq0_l026j3g6x8c0000gn/T/arduino-core-cache/core_0bde13c9a0eea2bfdc716a2fc04bccd4.a(usb_cdcacm.c.o)
 .text.usbGetDeviceDescriptor
                0x00000000080028c0        0xc /var/folders/hj/xvmq845d4rq0_l026j3g6x8c0000gn/T/arduino-core-cache/core_0bde13c9a0eea2bfdc716a2fc04bccd4.a(usb_cdcacm.c.o)
 .text.usbReset
                0x00000000080028cc      0x174 /var/folders/hj/xvmq845d4rq0_l026j3g6x8c0000gn/T/arduino-core-cache/core_0bde13c9a0eea2bfdc716a2fc04bccd4.a(usb_cdcacm.c.o)
 .text.usbDataSetup
                0x0000000008002a40       0x68 /var/folders/hj/xvmq845d4rq0_l026j3g6x8c0000gn/T/arduino-core-cache/core_0bde13c9a0eea2bfdc716a2fc04bccd4.a(usb_cdcacm.c.o)
 .text.usb_cdcacm_set_hooks
                0x0000000008002aa8       0x1c /var/folders/hj/xvmq845d4rq0_l026j3g6x8c0000gn/T/arduino-core-cache/core_0bde13c9a0eea2bfdc716a2fc04bccd4.a(usb_cdcacm.c.o)
                0x0000000008002aa8                usb_cdcacm_set_hooks
 .text.usb_cdcacm_enable
                0x0000000008002ac4       0x34 /var/folders/hj/xvmq845d4rq0_l026j3g6x8c0000gn/T/arduino-core-cache/core_0bde13c9a0eea2bfdc716a2fc04bccd4.a(usb_cdcacm.c.o)
                0x0000000008002ac4                usb_cdcacm_enable
 .text.usb_cdcacm_tx
                0x0000000008002af8       0x6c /var/folders/hj/xvmq845d4rq0_l026j3g6x8c0000gn/T/arduino-core-cache/core_0bde13c9a0eea2bfdc716a2fc04bccd4.a(usb_cdcacm.c.o)
                0x0000000008002af8                usb_cdcacm_tx
 .text.usb_cdcacm_data_available
                0x0000000008002b64       0x18 /var/folders/hj/xvmq845d4rq0_l026j3g6x8c0000gn/T/arduino-core-cache/core_0bde13c9a0eea2bfdc716a2fc04bccd4.a(usb_cdcacm.c.o)
                0x0000000008002b64                usb_cdcacm_data_available
 .text.usb_cdcacm_rx
                0x0000000008002b7c       0x70 /var/folders/hj/xvmq845d4rq0_l026j3g6x8c0000gn/T/arduino-core-cache/core_0bde13c9a0eea2bfdc716a2fc04bccd4.a(usb_cdcacm.c.o)
                0x0000000008002b7c                usb_cdcacm_rx
 .text.usb_cdcacm_peek
                0x0000000008002bec       0x3c /var/folders/hj/xvmq845d4rq0_l026j3g6x8c0000gn/T/arduino-core-cache/core_0bde13c9a0eea2bfdc716a2fc04bccd4.a(usb_cdcacm.c.o)
                0x0000000008002bec                usb_cdcacm_peek
 .text.usb_cdcacm_peek_ex
                0x0000000008002c28       0x44 /var/folders/hj/xvmq845d4rq0_l026j3g6x8c0000gn/T/arduino-core-cache/core_0bde13c9a0eea2bfdc716a2fc04bccd4.a(usb_cdcacm.c.o)
                0x0000000008002c28                usb_cdcacm_peek_ex
 .text.usb_cdcacm_get_dtr
                0x0000000008002c6c       0x10 /var/folders/hj/xvmq845d4rq0_l026j3g6x8c0000gn/T/arduino-core-cache/core_0bde13c9a0eea2bfdc716a2fc04bccd4.a(usb_cdcacm.c.o)
                0x0000000008002c6c                usb_cdcacm_get_dtr
 .text.usb_set_ep_rx_count
                0x0000000008002c7c       0x40 /var/folders/hj/xvmq845d4rq0_l026j3g6x8c0000gn/T/arduino-core-cache/core_0bde13c9a0eea2bfdc716a2fc04bccd4.a(usb_reg_map.c.o)
                0x0000000008002c7c                usb_set_ep_rx_count
 .text.Standard_GetConfiguration
                0x0000000008002cbc       0x28 /var/folders/hj/xvmq845d4rq0_l026j3g6x8c0000gn/T/arduino-core-cache/core_0bde13c9a0eea2bfdc716a2fc04bccd4.a(usb_core.c.o)
                0x0000000008002cbc                Standard_GetConfiguration
 .text.Standard_GetInterface
                0x0000000008002ce4       0x28 /var/folders/hj/xvmq845d4rq0_l026j3g6x8c0000gn/T/arduino-core-cache/core_0bde13c9a0eea2bfdc716a2fc04bccd4.a(usb_core.c.o)
                0x0000000008002ce4                Standard_GetInterface
 .text.Standard_GetStatus
                0x0000000008002d0c       0x8c /var/folders/hj/xvmq845d4rq0_l026j3g6x8c0000gn/T/arduino-core-cache/core_0bde13c9a0eea2bfdc716a2fc04bccd4.a(usb_core.c.o)
                0x0000000008002d0c                Standard_GetStatus
 .text.DataStageIn
                0x0000000008002d98       0xb0 /var/folders/hj/xvmq845d4rq0_l026j3g6x8c0000gn/T/arduino-core-cache/core_0bde13c9a0eea2bfdc716a2fc04bccd4.a(usb_core.c.o)
 .text.Standard_ClearFeature
                0x0000000008002e48       0xc4 /var/folders/hj/xvmq845d4rq0_l026j3g6x8c0000gn/T/arduino-core-cache/core_0bde13c9a0eea2bfdc716a2fc04bccd4.a(usb_core.c.o)
                0x0000000008002e48                Standard_ClearFeature
 .text.Standard_SetEndPointFeature
                0x0000000008002f0c       0x7c /var/folders/hj/xvmq845d4rq0_l026j3g6x8c0000gn/T/arduino-core-cache/core_0bde13c9a0eea2bfdc716a2fc04bccd4.a(usb_core.c.o)
                0x0000000008002f0c                Standard_SetEndPointFeature
 .text.Standard_GetDescriptorData
                0x0000000008002f88       0x1c /var/folders/hj/xvmq845d4rq0_l026j3g6x8c0000gn/T/arduino-core-cache/core_0bde13c9a0eea2bfdc716a2fc04bccd4.a(usb_core.c.o)
                0x0000000008002f88                Standard_GetDescriptorData
 .text.Setup0_Process
                0x0000000008002fa4      0x3bc /var/folders/hj/xvmq845d4rq0_l026j3g6x8c0000gn/T/arduino-core-cache/core_0bde13c9a0eea2bfdc716a2fc04bccd4.a(usb_core.c.o)
                0x0000000008002fa4                Setup0_Process
 .text.In0_Process
                0x0000000008003360       0xc0 /var/folders/hj/xvmq845d4rq0_l026j3g6x8c0000gn/T/arduino-core-cache/core_0bde13c9a0eea2bfdc716a2fc04bccd4.a(usb_core.c.o)
                0x0000000008003360                In0_Process
 .text.Out0_Process
                0x0000000008003420      0x108 /var/folders/hj/xvmq845d4rq0_l026j3g6x8c0000gn/T/arduino-core-cache/core_0bde13c9a0eea2bfdc716a2fc04bccd4.a(usb_core.c.o)
                0x0000000008003420                Out0_Process
 .text.SetDeviceAddress
                0x0000000008003528       0x38 /var/folders/hj/xvmq845d4rq0_l026j3g6x8c0000gn/T/arduino-core-cache/core_0bde13c9a0eea2bfdc716a2fc04bccd4.a(usb_core.c.o)
                0x0000000008003528                SetDeviceAddress
 .text.NOP_Process
                0x0000000008003560        0x4 /var/folders/hj/xvmq845d4rq0_l026j3g6x8c0000gn/T/arduino-core-cache/core_0bde13c9a0eea2bfdc716a2fc04bccd4.a(usb_core.c.o)
                0x0000000008003560                NOP_Process
 .text.UserToPMABufferCopy
                0x0000000008003564       0x20 /var/folders/hj/xvmq845d4rq0_l026j3g6x8c0000gn/T/arduino-core-cache/core_0bde13c9a0eea2bfdc716a2fc04bccd4.a(usb_mem.c.o)
                0x0000000008003564                UserToPMABufferCopy
 .text.PMAToUserBufferCopy
                0x0000000008003584       0x44 /var/folders/hj/xvmq845d4rq0_l026j3g6x8c0000gn/T/arduino-core-cache/core_0bde13c9a0eea2bfdc716a2fc04bccd4.a(usb_mem.c.o)
                0x0000000008003584                PMAToUserBufferCopy
 .text.SetEPTxStatus
                0x00000000080035c8       0x2c /var/folders/hj/xvmq845d4rq0_l026j3g6x8c0000gn/T/arduino-core-cache/core_0bde13c9a0eea2bfdc716a2fc04bccd4.a(usb_regs.c.o)
                0x00000000080035c8                SetEPTxStatus
 .text.ClearDTOG_RX
                0x00000000080035f4       0x20 /var/folders/hj/xvmq845d4rq0_l026j3g6x8c0000gn/T/arduino-core-cache/core_0bde13c9a0eea2bfdc716a2fc04bccd4.a(usb_regs.c.o)
                0x00000000080035f4                ClearDTOG_RX
 .text.ClearDTOG_TX
                0x0000000008003614       0x20 /var/folders/hj/xvmq845d4rq0_l026j3g6x8c0000gn/T/arduino-core-cache/core_0bde13c9a0eea2bfdc716a2fc04bccd4.a(usb_regs.c.o)
                0x0000000008003614                ClearDTOG_TX
 .text.GetEPTxAddr
                0x0000000008003634       0x1c /var/folders/hj/xvmq845d4rq0_l026j3g6x8c0000gn/T/arduino-core-cache/core_0bde13c9a0eea2bfdc716a2fc04bccd4.a(usb_regs.c.o)
                0x0000000008003634                GetEPTxAddr
 .text.GetEPRxAddr
                0x0000000008003650       0x1c /var/folders/hj/xvmq845d4rq0_l026j3g6x8c0000gn/T/arduino-core-cache/core_0bde13c9a0eea2bfdc716a2fc04bccd4.a(usb_regs.c.o)
                0x0000000008003650                GetEPRxAddr
 .text.SetEPTxCount
                0x000000000800366c       0x1c /var/folders/hj/xvmq845d4rq0_l026j3g6x8c0000gn/T/arduino-core-cache/core_0bde13c9a0eea2bfdc716a2fc04bccd4.a(usb_regs.c.o)
                0x000000000800366c                SetEPTxCount
 .text.SetEPRxCount
                0x0000000008003688       0x44 /var/folders/hj/xvmq845d4rq0_l026j3g6x8c0000gn/T/arduino-core-cache/core_0bde13c9a0eea2bfdc716a2fc04bccd4.a(usb_regs.c.o)
                0x0000000008003688                SetEPRxCount
 .text.usart_putstr
                0x00000000080036cc       0x30 /var/folders/hj/xvmq845d4rq0_l026j3g6x8c0000gn/T/arduino-core-cache/core_0bde13c9a0eea2bfdc716a2fc04bccd4.a(util.c.o)
 .text.throb    0x00000000080036fc       0x64 /var/folders/hj/xvmq845d4rq0_l026j3g6x8c0000gn/T/arduino-core-cache/core_0bde13c9a0eea2bfdc716a2fc04bccd4.a(util.c.o)
                0x00000000080036fc                throb
 .text.__error  0x0000000008003760       0x14 /var/folders/hj/xvmq845d4rq0_l026j3g6x8c0000gn/T/arduino-core-cache/core_0bde13c9a0eea2bfdc716a2fc04bccd4.a(util.c.o)
                0x0000000008003760                __error
 .text._fail    0x0000000008003774       0x84 /var/folders/hj/xvmq845d4rq0_l026j3g6x8c0000gn/T/arduino-core-cache/core_0bde13c9a0eea2bfdc716a2fc04bccd4.a(util.c.o)
                0x0000000008003774                _fail
 .text.__assert_func
                0x00000000080037f8        0x8 /var/folders/hj/xvmq845d4rq0_l026j3g6x8c0000gn/T/arduino-core-cache/core_0bde13c9a0eea2bfdc716a2fc04bccd4.a(util.c.o)
                0x00000000080037f8                __assert_func
 .text._ZN14HardwareSerial4readEv
                0x0000000008003800       0x48 /var/folders/hj/xvmq845d4rq0_l026j3g6x8c0000gn/T/arduino-core-cache/core_0bde13c9a0eea2bfdc716a2fc04bccd4.a(HardwareSerial.cpp.o)
                0x0000000008003800                HardwareSerial::read()
 .text._ZN14HardwareSerial9availableEv
                0x0000000008003848       0x20 /var/folders/hj/xvmq845d4rq0_l026j3g6x8c0000gn/T/arduino-core-cache/core_0bde13c9a0eea2bfdc716a2fc04bccd4.a(HardwareSerial.cpp.o)
                0x0000000008003848                HardwareSerial::available()
 .text._ZN14HardwareSerial4peekEv
                0x0000000008003868       0x20 /var/folders/hj/xvmq845d4rq0_l026j3g6x8c0000gn/T/arduino-core-cache/core_0bde13c9a0eea2bfdc716a2fc04bccd4.a(HardwareSerial.cpp.o)
                0x0000000008003868                HardwareSerial::peek()
 .text._ZN14HardwareSerial5flushEv
                0x0000000008003888       0x18 /var/folders/hj/xvmq845d4rq0_l026j3g6x8c0000gn/T/arduino-core-cache/core_0bde13c9a0eea2bfdc716a2fc04bccd4.a(HardwareSerial.cpp.o)
                0x0000000008003888                HardwareSerial::flush()
 .text._ZN14HardwareSerial5writeEh
                0x00000000080038a0       0x20 /var/folders/hj/xvmq845d4rq0_l026j3g6x8c0000gn/T/arduino-core-cache/core_0bde13c9a0eea2bfdc716a2fc04bccd4.a(HardwareSerial.cpp.o)
                0x00000000080038a0                HardwareSerial::write(unsigned char)
 .text._ZN14HardwareSerialC2EP9usart_devhh
                0x00000000080038c0       0x20 /var/folders/hj/xvmq845d4rq0_l026j3g6x8c0000gn/T/arduino-core-cache/core_0bde13c9a0eea2bfdc716a2fc04bccd4.a(HardwareSerial.cpp.o)
                0x00000000080038c0                HardwareSerial::HardwareSerial(usart_dev*, unsigned char, unsigned char)
                0x00000000080038c0                HardwareSerial::HardwareSerial(usart_dev*, unsigned char, unsigned char)
 .text._ZN5Print5writeEPKvm
                0x00000000080038e0       0x20 /var/folders/hj/xvmq845d4rq0_l026j3g6x8c0000gn/T/arduino-core-cache/core_0bde13c9a0eea2bfdc716a2fc04bccd4.a(Print.cpp.o)
                0x00000000080038e0                Print::write(void const*, unsigned long)
 .text._ZN5Print5writeEPKc
                0x0000000008003900       0x50 /var/folders/hj/xvmq845d4rq0_l026j3g6x8c0000gn/T/arduino-core-cache/core_0bde13c9a0eea2bfdc716a2fc04bccd4.a(Print.cpp.o)
                0x0000000008003900                Print::write(char const*)
 .text._ZN5Print5printEhi
                0x0000000008003950       0x84 /var/folders/hj/xvmq845d4rq0_l026j3g6x8c0000gn/T/arduino-core-cache/core_0bde13c9a0eea2bfdc716a2fc04bccd4.a(Print.cpp.o)
                0x0000000008003950                Print::print(unsigned char, int)
 .text._ZN5Print5printEPKc
                0x00000000080039d4       0x64 /var/folders/hj/xvmq845d4rq0_l026j3g6x8c0000gn/T/arduino-core-cache/core_0bde13c9a0eea2bfdc716a2fc04bccd4.a(Print.cpp.o)
                0x00000000080039d4                Print::print(char const*)
 .text._ZN5Print5printEii
                0x0000000008003a38       0x98 /var/folders/hj/xvmq845d4rq0_l026j3g6x8c0000gn/T/arduino-core-cache/core_0bde13c9a0eea2bfdc716a2fc04bccd4.a(Print.cpp.o)
                0x0000000008003a38                Print::print(int, int)
 .text._ZN5Print5printEji
                0x0000000008003ad0       0x7c /var/folders/hj/xvmq845d4rq0_l026j3g6x8c0000gn/T/arduino-core-cache/core_0bde13c9a0eea2bfdc716a2fc04bccd4.a(Print.cpp.o)
                0x0000000008003ad0                Print::print(unsigned int, int)
 .text._ZN5Print5printEmi
                0x0000000008003b4c       0x7c /var/folders/hj/xvmq845d4rq0_l026j3g6x8c0000gn/T/arduino-core-cache/core_0bde13c9a0eea2bfdc716a2fc04bccd4.a(Print.cpp.o)
                0x0000000008003b4c                Print::print(unsigned long, int)
 .text._ZN5Print5printEPK19__FlashStringHelper
                0x0000000008003bc8       0x64 /var/folders/hj/xvmq845d4rq0_l026j3g6x8c0000gn/T/arduino-core-cache/core_0bde13c9a0eea2bfdc716a2fc04bccd4.a(Print.cpp.o)
                0x0000000008003bc8                Print::print(__FlashStringHelper const*)
 .text._ZN5Print7printlnEv
                0x0000000008003c2c       0x1c /var/folders/hj/xvmq845d4rq0_l026j3g6x8c0000gn/T/arduino-core-cache/core_0bde13c9a0eea2bfdc716a2fc04bccd4.a(Print.cpp.o)
                0x0000000008003c2c                Print::println()
 .text._ZN5Print7printlnEPKc
                0x0000000008003c48       0x78 /var/folders/hj/xvmq845d4rq0_l026j3g6x8c0000gn/T/arduino-core-cache/core_0bde13c9a0eea2bfdc716a2fc04bccd4.a(Print.cpp.o)
                0x0000000008003c48                Print::println(char const*)
 .text._ZN5Print7printlnEji
                0x0000000008003cc0       0x98 /var/folders/hj/xvmq845d4rq0_l026j3g6x8c0000gn/T/arduino-core-cache/core_0bde13c9a0eea2bfdc716a2fc04bccd4.a(Print.cpp.o)
                0x0000000008003cc0                Print::println(unsigned int, int)
 .text._ZN5Print7printlnEPK19__FlashStringHelper
                0x0000000008003d58       0x78 /var/folders/hj/xvmq845d4rq0_l026j3g6x8c0000gn/T/arduino-core-cache/core_0bde13c9a0eea2bfdc716a2fc04bccd4.a(Print.cpp.o)
                0x0000000008003d58                Print::println(__FlashStringHelper const*)
 .text.startup._Z7premainv
                0x0000000008003dd0        0x4 /var/folders/hj/xvmq845d4rq0_l026j3g6x8c0000gn/T/arduino-core-cache/core_0bde13c9a0eea2bfdc716a2fc04bccd4.a(main.cpp.o)
                0x0000000008003dd0                premain()
 .text.startup.main
                0x0000000008003dd4        0xc /var/folders/hj/xvmq845d4rq0_l026j3g6x8c0000gn/T/arduino-core-cache/core_0bde13c9a0eea2bfdc716a2fc04bccd4.a(main.cpp.o)
                0x0000000008003dd4                main
 .text._ZN9USBSerial9availableEv
                0x0000000008003de0        0x4 /var/folders/hj/xvmq845d4rq0_l026j3g6x8c0000gn/T/arduino-core-cache/core_0bde13c9a0eea2bfdc716a2fc04bccd4.a(usb_serial.cpp.o)
                0x0000000008003de0                USBSerial::available()
 .text._ZN9USBSerial4peekEv
                0x0000000008003de4       0x20 /var/folders/hj/xvmq845d4rq0_l026j3g6x8c0000gn/T/arduino-core-cache/core_0bde13c9a0eea2bfdc716a2fc04bccd4.a(usb_serial.cpp.o)
                0x0000000008003de4                USBSerial::peek()
 .text._ZN9USBSerial4readEv
                0x0000000008003e04       0x20 /var/folders/hj/xvmq845d4rq0_l026j3g6x8c0000gn/T/arduino-core-cache/core_0bde13c9a0eea2bfdc716a2fc04bccd4.a(usb_serial.cpp.o)
                0x0000000008003e04                USBSerial::read()
 .text._ZN9USBSerial5flushEv
                0x0000000008003e24       0x28 /var/folders/hj/xvmq845d4rq0_l026j3g6x8c0000gn/T/arduino-core-cache/core_0bde13c9a0eea2bfdc716a2fc04bccd4.a(usb_serial.cpp.o)
                0x0000000008003e24                USBSerial::flush()
 .text._ZL14ifaceSetupHookjPv
                0x0000000008003e4c       0x3c /var/folders/hj/xvmq845d4rq0_l026j3g6x8c0000gn/T/arduino-core-cache/core_0bde13c9a0eea2bfdc716a2fc04bccd4.a(usb_serial.cpp.o)
 .text._ZL6rxHookjPv
                0x0000000008003e88       0x70 /var/folders/hj/xvmq845d4rq0_l026j3g6x8c0000gn/T/arduino-core-cache/core_0bde13c9a0eea2bfdc716a2fc04bccd4.a(usb_serial.cpp.o)
 .text._ZN9USBSerial5writeEh
                0x0000000008003ef8       0x54 /var/folders/hj/xvmq845d4rq0_l026j3g6x8c0000gn/T/arduino-core-cache/core_0bde13c9a0eea2bfdc716a2fc04bccd4.a(usb_serial.cpp.o)
                0x0000000008003ef8                USBSerial::write(unsigned char)
 .text._ZN9USBSerial5writeEPKc
                0x0000000008003f4c       0x50 /var/folders/hj/xvmq845d4rq0_l026j3g6x8c0000gn/T/arduino-core-cache/core_0bde13c9a0eea2bfdc716a2fc04bccd4.a(usb_serial.cpp.o)
                0x0000000008003f4c                USBSerial::write(char const*)
 .text._ZN9USBSerial5beginEv
                0x0000000008003f9c       0x34 /var/folders/hj/xvmq845d4rq0_l026j3g6x8c0000gn/T/arduino-core-cache/core_0bde13c9a0eea2bfdc716a2fc04bccd4.a(usb_serial.cpp.o)
                0x0000000008003f9c                USBSerial::begin()
 .text._ZN9USBSerial5beginEm
                0x0000000008003fd0       0x40 /var/folders/hj/xvmq845d4rq0_l026j3g6x8c0000gn/T/arduino-core-cache/core_0bde13c9a0eea2bfdc716a2fc04bccd4.a(usb_serial.cpp.o)
                0x0000000008003fd0                USBSerial::begin(unsigned long)
 .text._ZN9USBSerialcvbEv
                0x0000000008004010       0x24 /var/folders/hj/xvmq845d4rq0_l026j3g6x8c0000gn/T/arduino-core-cache/core_0bde13c9a0eea2bfdc716a2fc04bccd4.a(usb_serial.cpp.o)
                0x0000000008004010                USBSerial::operator bool()
 .text.startup._GLOBAL__sub_I__ZN9USBSerial9_hasBegunE
                0x0000000008004034       0x1c /var/folders/hj/xvmq845d4rq0_l026j3g6x8c0000gn/T/arduino-core-cache/core_0bde13c9a0eea2bfdc716a2fc04bccd4.a(usb_serial.cpp.o)
 .text._Z5delaym
                0x0000000008004050       0x80 /var/folders/hj/xvmq845d4rq0_l026j3g6x8c0000gn/T/arduino-core-cache/core_0bde13c9a0eea2bfdc716a2fc04bccd4.a(wirish_time.cpp.o)
                0x0000000008004050                delay(unsigned long)
 .text.__empty  0x00000000080040d0        0x4 /var/folders/hj/xvmq845d4rq0_l026j3g6x8c0000gn/T/arduino-core-cache/core_0bde13c9a0eea2bfdc716a2fc04bccd4.a(hooks.c.o)
                0x00000000080040d0                yield
 .text.bkp_init
                0x00000000080040d4       0x18 /var/folders/hj/xvmq845d4rq0_l026j3g6x8c0000gn/T/arduino-core-cache/core_0bde13c9a0eea2bfdc716a2fc04bccd4.a(bkp_f1.c.o)
                0x00000000080040d4                bkp_init
 .text.bkp_enable_writes
                0x00000000080040ec        0xc /var/folders/hj/xvmq845d4rq0_l026j3g6x8c0000gn/T/arduino-core-cache/core_0bde13c9a0eea2bfdc716a2fc04bccd4.a(bkp_f1.c.o)
                0x00000000080040ec                bkp_enable_writes
 .text.bkp_disable_writes
                0x00000000080040f8        0xc /var/folders/hj/xvmq845d4rq0_l026j3g6x8c0000gn/T/arduino-core-cache/core_0bde13c9a0eea2bfdc716a2fc04bccd4.a(bkp_f1.c.o)
                0x00000000080040f8                bkp_disable_writes
 .text.bkp_write
                0x0000000008004104       0x14 /var/folders/hj/xvmq845d4rq0_l026j3g6x8c0000gn/T/arduino-core-cache/core_0bde13c9a0eea2bfdc716a2fc04bccd4.a(bkp_f1.c.o)
                0x0000000008004104                bkp_write
 .text.gpio_init
                0x0000000008004118       0x14 /var/folders/hj/xvmq845d4rq0_l026j3g6x8c0000gn/T/arduino-core-cache/core_0bde13c9a0eea2bfdc716a2fc04bccd4.a(gpio.c.o)
                0x0000000008004118                gpio_init
 .text._i2c_irq_handler
                0x000000000800412c      0x488 /var/folders/hj/xvmq845d4rq0_l026j3g6x8c0000gn/T/arduino-core-cache/core_0bde13c9a0eea2bfdc716a2fc04bccd4.a(i2c.c.o)
                0x000000000800412c                _i2c_irq_handler
 .text._i2c_irq_error_handler
                0x00000000080045b4       0x74 /var/folders/hj/xvmq845d4rq0_l026j3g6x8c0000gn/T/arduino-core-cache/core_0bde13c9a0eea2bfdc716a2fc04bccd4.a(i2c.c.o)
                0x00000000080045b4                _i2c_irq_error_handler
 .text.usart_tx
                0x0000000008004628       0xd0 /var/folders/hj/xvmq845d4rq0_l026j3g6x8c0000gn/T/arduino-core-cache/core_0bde13c9a0eea2bfdc716a2fc04bccd4.a(usart.c.o)
                0x0000000008004628                usart_tx
 .text.usart_putudec
                0x00000000080046f8      0x21c /var/folders/hj/xvmq845d4rq0_l026j3g6x8c0000gn/T/arduino-core-cache/core_0bde13c9a0eea2bfdc716a2fc04bccd4.a(usart.c.o)
                0x00000000080046f8                usart_putudec
 .text          0x0000000008004914       0x30 /Users/lgcampos/Library/Arduino15/packages/arduino/tools/arm-none-eabi-gcc/7-2017q4/bin/../lib/gcc/arm-none-eabi/7.2.1/thumb/v7-m/libgcc.a(_aeabi_uldivmod.o)
                0x0000000008004914                __aeabi_uldivmod
 .text          0x0000000008004944      0x2d0 /Users/lgcampos/Library/Arduino15/packages/arduino/tools/arm-none-eabi-gcc/7-2017q4/bin/../lib/gcc/arm-none-eabi/7.2.1/thumb/v7-m/libgcc.a(_udivmoddi4.o)
                0x0000000008004944                __udivmoddi4
 .text          0x0000000008004c14        0x4 /Users/lgcampos/Library/Arduino15/packages/arduino/tools/arm-none-eabi-gcc/7-2017q4/bin/../lib/gcc/arm-none-eabi/7.2.1/thumb/v7-m/libgcc.a(_dvmd_tls.o)
                0x0000000008004c14                __aeabi_ldiv0
                0x0000000008004c14                __aeabi_idiv0
 .text.calloc   0x0000000008004c18       0x10 /Users/lgcampos/Library/Arduino15/packages/arduino/tools/arm-none-eabi-gcc/7-2017q4/bin/../lib/gcc/arm-none-eabi/7.2.1/../../../../arm-none-eabi/lib/thumb/v7-m/libc.a(lib_a-calloc.o)
                0x0000000008004c18                calloc
 .text._calloc_r
                0x0000000008004c28       0x6c /Users/lgcampos/Library/Arduino15/packages/arduino/tools/arm-none-eabi-gcc/7-2017q4/bin/../lib/gcc/arm-none-eabi/7.2.1/../../../../arm-none-eabi/lib/thumb/v7-m/libc.a(lib_a-callocr.o)
                0x0000000008004c28                _calloc_r
 .text.__errno  0x0000000008004c94        0xc /Users/lgcampos/Library/Arduino15/packages/arduino/tools/arm-none-eabi-gcc/7-2017q4/bin/../lib/gcc/arm-none-eabi/7.2.1/../../../../arm-none-eabi/lib/thumb/v7-m/libc.a(lib_a-errno.o)
                0x0000000008004c94                __errno
 .text.exit     0x0000000008004ca0       0x20 /Users/lgcampos/Library/Arduino15/packages/arduino/tools/arm-none-eabi-gcc/7-2017q4/bin/../lib/gcc/arm-none-eabi/7.2.1/../../../../arm-none-eabi/lib/thumb/v7-m/libc.a(lib_a-exit.o)
                0x0000000008004ca0                exit
 .text.__libc_init_array
                0x0000000008004cc0       0x48 /Users/lgcampos/Library/Arduino15/packages/arduino/tools/arm-none-eabi-gcc/7-2017q4/bin/../lib/gcc/arm-none-eabi/7.2.1/../../../../arm-none-eabi/lib/thumb/v7-m/libc.a(lib_a-init.o)
                0x0000000008004cc0                __libc_init_array
 .text.malloc   0x0000000008004d08       0x10 /Users/lgcampos/Library/Arduino15/packages/arduino/tools/arm-none-eabi-gcc/7-2017q4/bin/../lib/gcc/arm-none-eabi/7.2.1/../../../../arm-none-eabi/lib/thumb/v7-m/libc.a(lib_a-malloc.o)
                0x0000000008004d08                malloc
 .text.free     0x0000000008004d18       0x10 /Users/lgcampos/Library/Arduino15/packages/arduino/tools/arm-none-eabi-gcc/7-2017q4/bin/../lib/gcc/arm-none-eabi/7.2.1/../../../../arm-none-eabi/lib/thumb/v7-m/libc.a(lib_a-malloc.o)
                0x0000000008004d18                free
 .text._malloc_r
                0x0000000008004d28      0x524 /Users/lgcampos/Library/Arduino15/packages/arduino/tools/arm-none-eabi-gcc/7-2017q4/bin/../lib/gcc/arm-none-eabi/7.2.1/../../../../arm-none-eabi/lib/thumb/v7-m/libc.a(lib_a-mallocr.o)
                0x0000000008004d28                _malloc_r
 .text          0x000000000800524c       0xec /Users/lgcampos/Library/Arduino15/packages/arduino/tools/arm-none-eabi-gcc/7-2017q4/bin/../lib/gcc/arm-none-eabi/7.2.1/../../../../arm-none-eabi/lib/thumb/v7-m/libc.a(lib_a-memcpy.o)
                0x000000000800524c                memcpy
 .text.memset   0x0000000008005338       0x94 /Users/lgcampos/Library/Arduino15/packages/arduino/tools/arm-none-eabi-gcc/7-2017q4/bin/../lib/gcc/arm-none-eabi/7.2.1/../../../../arm-none-eabi/lib/thumb/v7-m/libc.a(lib_a-memset.o)
                0x0000000008005338                memset
 .text.__malloc_lock
                0x00000000080053cc        0xc /Users/lgcampos/Library/Arduino15/packages/arduino/tools/arm-none-eabi-gcc/7-2017q4/bin/../lib/gcc/arm-none-eabi/7.2.1/../../../../arm-none-eabi/lib/thumb/v7-m/libc.a(lib_a-mlock.o)
                0x00000000080053cc                __malloc_lock
 .text.__malloc_unlock
                0x00000000080053d8        0xc /Users/lgcampos/Library/Arduino15/packages/arduino/tools/arm-none-eabi-gcc/7-2017q4/bin/../lib/gcc/arm-none-eabi/7.2.1/../../../../arm-none-eabi/lib/thumb/v7-m/libc.a(lib_a-mlock.o)
                0x00000000080053d8                __malloc_unlock
 .text.srand    0x00000000080053e4       0x10 /Users/lgcampos/Library/Arduino15/packages/arduino/tools/arm-none-eabi-gcc/7-2017q4/bin/../lib/gcc/arm-none-eabi/7.2.1/../../../../arm-none-eabi/lib/thumb/v7-m/libc.a(lib_a-rand.o)
                0x00000000080053e4                srand
 .text._sbrk_r  0x00000000080053f4       0x24 /Users/lgcampos/Library/Arduino15/packages/arduino/tools/arm-none-eabi-gcc/7-2017q4/bin/../lib/gcc/arm-none-eabi/7.2.1/../../../../arm-none-eabi/lib/thumb/v7-m/libc.a(lib_a-sbrkr.o)
                0x00000000080053f4                _sbrk_r
 .text          0x0000000008005418       0x1c /Users/lgcampos/Library/Arduino15/packages/arduino/tools/arm-none-eabi-gcc/7-2017q4/bin/../lib/gcc/arm-none-eabi/7.2.1/../../../../arm-none-eabi/lib/thumb/v7-m/libc.a(lib_a-setjmp.o)
                0x0000000008005418                setjmp
                0x0000000008005424                longjmp
 .text.strlen   0x0000000008005434       0x5c /Users/lgcampos/Library/Arduino15/packages/arduino/tools/arm-none-eabi-gcc/7-2017q4/bin/../lib/gcc/arm-none-eabi/7.2.1/../../../../arm-none-eabi/lib/thumb/v7-m/libc.a(lib_a-strlen-stub.o)
                0x0000000008005434                strlen
 .text.startup.register_fini
                0x0000000008005490       0x14 /Users/lgcampos/Library/Arduino15/packages/arduino/tools/arm-none-eabi-gcc/7-2017q4/bin/../lib/gcc/arm-none-eabi/7.2.1/../../../../arm-none-eabi/lib/thumb/v7-m/libc.a(lib_a-__call_atexit.o)
 .text.__call_exitprocs
                0x00000000080054a4       0xe8 /Users/lgcampos/Library/Arduino15/packages/arduino/tools/arm-none-eabi-gcc/7-2017q4/bin/../lib/gcc/arm-none-eabi/7.2.1/../../../../arm-none-eabi/lib/thumb/v7-m/libc.a(lib_a-__call_atexit.o)
                0x00000000080054a4                __call_exitprocs
 .text.atexit   0x000000000800558c        0xc /Users/lgcampos/Library/Arduino15/packages/arduino/tools/arm-none-eabi-gcc/7-2017q4/bin/../lib/gcc/arm-none-eabi/7.2.1/../../../../arm-none-eabi/lib/thumb/v7-m/libc.a(lib_a-atexit.o)
                0x000000000800558c                atexit
 .text.__libc_fini_array
                0x0000000008005598       0x34 /Users/lgcampos/Library/Arduino15/packages/arduino/tools/arm-none-eabi-gcc/7-2017q4/bin/../lib/gcc/arm-none-eabi/7.2.1/../../../../arm-none-eabi/lib/thumb/v7-m/libc.a(lib_a-fini.o)
                0x0000000008005598                __libc_fini_array
 .text._malloc_trim_r
                0x00000000080055cc       0xa0 /Users/lgcampos/Library/Arduino15/packages/arduino/tools/arm-none-eabi-gcc/7-2017q4/bin/../lib/gcc/arm-none-eabi/7.2.1/../../../../arm-none-eabi/lib/thumb/v7-m/libc.a(lib_a-freer.o)
                0x00000000080055cc                _malloc_trim_r
 .text._free_r  0x000000000800566c      0x1e8 /Users/lgcampos/Library/Arduino15/packages/arduino/tools/arm-none-eabi-gcc/7-2017q4/bin/../lib/gcc/arm-none-eabi/7.2.1/../../../../arm-none-eabi/lib/thumb/v7-m/libc.a(lib_a-freer.o)
                0x000000000800566c                _free_r
 .text.__retarget_lock_acquire_recursive
                0x0000000008005854        0x4 /Users/lgcampos/Library/Arduino15/packages/arduino/tools/arm-none-eabi-gcc/7-2017q4/bin/../lib/gcc/arm-none-eabi/7.2.1/../../../../arm-none-eabi/lib/thumb/v7-m/libc.a(lib_a-lock.o)
                0x0000000008005854                __retarget_lock_acquire_recursive
 .text.__retarget_lock_release_recursive
                0x0000000008005858        0x4 /Users/lgcampos/Library/Arduino15/packages/arduino/tools/arm-none-eabi-gcc/7-2017q4/bin/../lib/gcc/arm-none-eabi/7.2.1/../../../../arm-none-eabi/lib/thumb/v7-m/libc.a(lib_a-lock.o)
                0x0000000008005858                __retarget_lock_release_recursive
 .text.__register_exitproc
                0x000000000800585c       0xc0 /Users/lgcampos/Library/Arduino15/packages/arduino/tools/arm-none-eabi-gcc/7-2017q4/bin/../lib/gcc/arm-none-eabi/7.2.1/../../../../arm-none-eabi/lib/thumb/v7-m/libc.a(lib_a-__atexit.o)
                0x000000000800585c                __register_exitproc
 *(.plt)
 *(.gnu.warning)
 *(.glue_7t)
 .glue_7t       0x000000000800591c        0x0 linker stubs
 *(.glue_7)
 .glue_7        0x000000000800591c        0x0 linker stubs
 *(.vfp11_veneer)
 .vfp11_veneer  0x000000000800591c        0x0 linker stubs
 *(.ARM.extab* .gnu.linkonce.armextab.*)
 *(.gcc_except_table)
 *(.eh_frame_hdr)
 *(.eh_frame)
 .eh_frame      0x000000000800591c        0x0 /Users/lgcampos/Library/Arduino15/packages/arduino/tools/arm-none-eabi-gcc/7-2017q4/bin/../lib/gcc/arm-none-eabi/7.2.1/thumb/v7-m/crtbegin.o
                0x000000000800591c                . = ALIGN (0x4)
 *(.init)
 .init          0x000000000800591c        0x4 /Users/lgcampos/Library/Arduino15/packages/arduino/tools/arm-none-eabi-gcc/7-2017q4/bin/../lib/gcc/arm-none-eabi/7.2.1/thumb/v7-m/crti.o
                0x000000000800591c                _init
 .init          0x0000000008005920        0x8 /Users/lgcampos/Library/Arduino15/packages/arduino/tools/arm-none-eabi-gcc/7-2017q4/bin/../lib/gcc/arm-none-eabi/7.2.1/thumb/v7-m/crtn.o
                0x0000000008005928                . = ALIGN (0x4)
                0x0000000008005928                __preinit_array_start = .
 *(.preinit_array)
                0x0000000008005928                __preinit_array_end = .
                0x0000000008005928                . = ALIGN (0x4)
                0x0000000008005928                __init_array_start = .
 *(SORT_BY_NAME(.init_array.*))
 .init_array.00000
                0x0000000008005928        0x4 /Users/lgcampos/Library/Arduino15/packages/arduino/tools/arm-none-eabi-gcc/7-2017q4/bin/../lib/gcc/arm-none-eabi/7.2.1/../../../../arm-none-eabi/lib/thumb/v7-m/libc.a(lib_a-__call_atexit.o)
 .init_array.00101
                0x000000000800592c        0x4 /var/folders/hj/xvmq845d4rq0_l026j3g6x8c0000gn/T/arduino-core-cache/core_0bde13c9a0eea2bfdc716a2fc04bccd4.a(main.cpp.o)
 *(.init_array)
 .init_array    0x0000000008005930        0x4 /Users/lgcampos/Library/Arduino15/packages/arduino/tools/arm-none-eabi-gcc/7-2017q4/bin/../lib/gcc/arm-none-eabi/7.2.1/thumb/v7-m/crtbegin.o
 .init_array    0x0000000008005934        0x4 /var/folders/hj/xvmq845d4rq0_l026j3g6x8c0000gn/T/arduino-sketch-783AC80E8B34696ACA1CC87DB6CF7DB3/core/board.cpp.o
 .init_array    0x0000000008005938        0x4 /var/folders/hj/xvmq845d4rq0_l026j3g6x8c0000gn/T/arduino-core-cache/core_0bde13c9a0eea2bfdc716a2fc04bccd4.a(usb_serial.cpp.o)
                0x000000000800593c                __init_array_end = .
                0x000000000800593c                . = ALIGN (0x4)
 *crtbegin.o(.ctors)
 *(EXCLUDE_FILE(*crtend.o) .ctors)
 *(SORT_BY_NAME(.ctors.*))
 *crtend.o(.ctors)
                0x000000000800593c                . = ALIGN (0x4)
 *(.fini)
 .fini          0x000000000800593c        0x4 /Users/lgcampos/Library/Arduino15/packages/arduino/tools/arm-none-eabi-gcc/7-2017q4/bin/../lib/gcc/arm-none-eabi/7.2.1/thumb/v7-m/crti.o
                0x000000000800593c                _fini
 .fini          0x0000000008005940        0x8 /Users/lgcampos/Library/Arduino15/packages/arduino/tools/arm-none-eabi-gcc/7-2017q4/bin/../lib/gcc/arm-none-eabi/7.2.1/thumb/v7-m/crtn.o
                0x0000000008005948                . = ALIGN (0x4)
                0x0000000008005948                __fini_array_start = .
 *(.fini_array)
 .fini_array    0x0000000008005948        0x4 /Users/lgcampos/Library/Arduino15/packages/arduino/tools/arm-none-eabi-gcc/7-2017q4/bin/../lib/gcc/arm-none-eabi/7.2.1/thumb/v7-m/crtbegin.o
 *(SORT_BY_NAME(.fini_array.*))
                0x000000000800594c                __fini_array_end = .
 *crtbegin.o(.dtors)
 *(EXCLUDE_FILE(*crtend.o) .dtors)
 *(SORT_BY_NAME(.dtors.*))
 *crtend.o(.dtors)

.v4_bx          0x000000000800594c        0x0
 .v4_bx         0x000000000800594c        0x0 linker stubs

.iplt           0x000000000800594c        0x0
 .iplt          0x000000000800594c        0x0 /Users/lgcampos/Library/Arduino15/packages/arduino/tools/arm-none-eabi-gcc/7-2017q4/bin/../lib/gcc/arm-none-eabi/7.2.1/thumb/v7-m/crtbegin.o

.text.align     0x000000000800594c        0x4
                0x0000000008005950                . = ALIGN (0x8)
 *fill*         0x000000000800594c        0x4 
                0x0000000008005950                __text_end__ = .
                0x0000000008005950                __exidx_start = .

.ARM.exidx      0x0000000008005950        0x8
 *(.ARM.exidx* .gnu.linkonce.armexidx.*)
 .ARM.exidx     0x0000000008005950        0x8 /var/folders/hj/xvmq845d4rq0_l026j3g6x8c0000gn/T/arduino-sketch-783AC80E8B34696ACA1CC87DB6CF7DB3/core/wirish/start.S.o
 .ARM.exidx     0x0000000008005958        0x0 /Users/lgcampos/Library/Arduino15/packages/arduino/tools/arm-none-eabi-gcc/7-2017q4/bin/../lib/gcc/arm-none-eabi/7.2.1/thumb/v7-m/libgcc.a(_udivmoddi4.o)
                                          0x8 (size before relaxing)
                0x0000000008005958                __exidx_end = .

.data           0x0000000020000000      0xcc0 load address 0x0000000008005958
                0x0000000020000000                __data_start__ = .
                0x0000000020000000        0x4 LONG 0x0
                0x0000000020000008                . = ALIGN (0x8)
 *fill*         0x0000000020000004        0x4 
 *(.got.plt)
 *(.got)
 *(.data .data.* .gnu.linkonce.d.*)
 .data.pszNotificationTag
                0x0000000020000008       0x12 /var/folders/hj/xvmq845d4rq0_l026j3g6x8c0000gn/T/arduino-sketch-783AC80E8B34696ACA1CC87DB6CF7DB3/sketch/LowMemoryExample.ino.cpp.o
                0x0000000020000008                pszNotificationTag
 *fill*         0x000000002000001a        0x2 
 .data._ZN6wirish4priv15w_board_pll_cfgE
                0x000000002000001c        0x8 /var/folders/hj/xvmq845d4rq0_l026j3g6x8c0000gn/T/arduino-sketch-783AC80E8B34696ACA1CC87DB6CF7DB3/core/wirish/boards_setup.cpp.o
                0x000000002000001c                wirish::priv::w_board_pll_cfg
 .data._ZN6wirish4priv9w_adc_preE
                0x0000000020000024        0x2 /var/folders/hj/xvmq845d4rq0_l026j3g6x8c0000gn/T/arduino-sketch-783AC80E8B34696ACA1CC87DB6CF7DB3/core/wirish/boards_setup.cpp.o
                0x0000000020000024                wirish::priv::w_adc_pre
 .data._ZN6wirish4priv9w_adc_smpE
                0x0000000020000026        0x1 /var/folders/hj/xvmq845d4rq0_l026j3g6x8c0000gn/T/arduino-sketch-783AC80E8B34696ACA1CC87DB6CF7DB3/core/wirish/boards_setup.cpp.o
                0x0000000020000026                wirish::priv::w_adc_smp
 *fill*         0x0000000020000027        0x1 
 .data._ZN6wirish4privL8pll_dataE
                0x0000000020000028        0x4 /var/folders/hj/xvmq845d4rq0_l026j3g6x8c0000gn/T/arduino-sketch-783AC80E8B34696ACA1CC87DB6CF7DB3/core/wirish/boards_setup.cpp.o
 .data.ADC1     0x000000002000002c        0x4 /var/folders/hj/xvmq845d4rq0_l026j3g6x8c0000gn/T/arduino-core-cache/core_0bde13c9a0eea2bfdc716a2fc04bccd4.a(adc_f1.c.o)
                0x000000002000002c                ADC1
 .data.ADC2     0x0000000020000030        0x4 /var/folders/hj/xvmq845d4rq0_l026j3g6x8c0000gn/T/arduino-core-cache/core_0bde13c9a0eea2bfdc716a2fc04bccd4.a(adc_f1.c.o)
                0x0000000020000030                ADC2
 .data.adc1     0x0000000020000034       0x18 /var/folders/hj/xvmq845d4rq0_l026j3g6x8c0000gn/T/arduino-core-cache/core_0bde13c9a0eea2bfdc716a2fc04bccd4.a(adc_f1.c.o)
                0x0000000020000034                adc1
 .data.adc2     0x000000002000004c        0x8 /var/folders/hj/xvmq845d4rq0_l026j3g6x8c0000gn/T/arduino-core-cache/core_0bde13c9a0eea2bfdc716a2fc04bccd4.a(adc_f1.c.o)
                0x000000002000004c                adc2
 .data.DMA1     0x0000000020000054        0x4 /var/folders/hj/xvmq845d4rq0_l026j3g6x8c0000gn/T/arduino-core-cache/core_0bde13c9a0eea2bfdc716a2fc04bccd4.a(dma_f1.c.o)
                0x0000000020000054                DMA1
 .data.dma1     0x0000000020000058       0x40 /var/folders/hj/xvmq845d4rq0_l026j3g6x8c0000gn/T/arduino-core-cache/core_0bde13c9a0eea2bfdc716a2fc04bccd4.a(dma_f1.c.o)
 .data.gpioa    0x0000000020000098        0x8 /var/folders/hj/xvmq845d4rq0_l026j3g6x8c0000gn/T/arduino-core-cache/core_0bde13c9a0eea2bfdc716a2fc04bccd4.a(gpio_f1.c.o)
                0x0000000020000098                gpioa
 .data.gpiob    0x00000000200000a0        0x8 /var/folders/hj/xvmq845d4rq0_l026j3g6x8c0000gn/T/arduino-core-cache/core_0bde13c9a0eea2bfdc716a2fc04bccd4.a(gpio_f1.c.o)
                0x00000000200000a0                gpiob
 .data.gpioc    0x00000000200000a8        0x8 /var/folders/hj/xvmq845d4rq0_l026j3g6x8c0000gn/T/arduino-core-cache/core_0bde13c9a0eea2bfdc716a2fc04bccd4.a(gpio_f1.c.o)
                0x00000000200000a8                gpioc
 .data.gpiod    0x00000000200000b0        0x8 /var/folders/hj/xvmq845d4rq0_l026j3g6x8c0000gn/T/arduino-core-cache/core_0bde13c9a0eea2bfdc716a2fc04bccd4.a(gpio_f1.c.o)
                0x00000000200000b0                gpiod
 .data.i2c1     0x00000000200000b8       0x38 /var/folders/hj/xvmq845d4rq0_l026j3g6x8c0000gn/T/arduino-core-cache/core_0bde13c9a0eea2bfdc716a2fc04bccd4.a(i2c_f1.c.o)
 .data.i2c2     0x00000000200000f0       0x38 /var/folders/hj/xvmq845d4rq0_l026j3g6x8c0000gn/T/arduino-core-cache/core_0bde13c9a0eea2bfdc716a2fc04bccd4.a(i2c_f1.c.o)
 .data.enable_regs.4454
                0x0000000020000128        0xc /var/folders/hj/xvmq845d4rq0_l026j3g6x8c0000gn/T/arduino-core-cache/core_0bde13c9a0eea2bfdc716a2fc04bccd4.a(rcc_f1.c.o)
 .data.enable_regs.4467
                0x0000000020000134        0xc /var/folders/hj/xvmq845d4rq0_l026j3g6x8c0000gn/T/arduino-core-cache/core_0bde13c9a0eea2bfdc716a2fc04bccd4.a(rcc_f1.c.o)
 .data.reset_regs.4458
                0x0000000020000140        0x8 /var/folders/hj/xvmq845d4rq0_l026j3g6x8c0000gn/T/arduino-core-cache/core_0bde13c9a0eea2bfdc716a2fc04bccd4.a(rcc_f1.c.o)
 .data.timer1   0x0000000020000148       0x28 /var/folders/hj/xvmq845d4rq0_l026j3g6x8c0000gn/T/arduino-core-cache/core_0bde13c9a0eea2bfdc716a2fc04bccd4.a(timer.c.o)
                0x0000000020000148                timer1
 .data.timer2   0x0000000020000170       0x24 /var/folders/hj/xvmq845d4rq0_l026j3g6x8c0000gn/T/arduino-core-cache/core_0bde13c9a0eea2bfdc716a2fc04bccd4.a(timer.c.o)
                0x0000000020000170                timer2
 .data.timer3   0x0000000020000194       0x24 /var/folders/hj/xvmq845d4rq0_l026j3g6x8c0000gn/T/arduino-core-cache/core_0bde13c9a0eea2bfdc716a2fc04bccd4.a(timer.c.o)
                0x0000000020000194                timer3
 .data.timer4   0x00000000200001b8       0x24 /var/folders/hj/xvmq845d4rq0_l026j3g6x8c0000gn/T/arduino-core-cache/core_0bde13c9a0eea2bfdc716a2fc04bccd4.a(timer.c.o)
                0x00000000200001b8                timer4
 .data.USART1   0x00000000200001dc        0x4 /var/folders/hj/xvmq845d4rq0_l026j3g6x8c0000gn/T/arduino-core-cache/core_0bde13c9a0eea2bfdc716a2fc04bccd4.a(usart_f1.c.o)
                0x00000000200001dc                USART1
 .data.USART2   0x00000000200001e0        0x4 /var/folders/hj/xvmq845d4rq0_l026j3g6x8c0000gn/T/arduino-core-cache/core_0bde13c9a0eea2bfdc716a2fc04bccd4.a(usart_f1.c.o)
                0x00000000200001e0                USART2
 .data.USART3   0x00000000200001e4        0x4 /var/folders/hj/xvmq845d4rq0_l026j3g6x8c0000gn/T/arduino-core-cache/core_0bde13c9a0eea2bfdc716a2fc04bccd4.a(usart_f1.c.o)
                0x00000000200001e4                USART3
 .data.usart1   0x00000000200001e8       0x94 /var/folders/hj/xvmq845d4rq0_l026j3g6x8c0000gn/T/arduino-core-cache/core_0bde13c9a0eea2bfdc716a2fc04bccd4.a(usart_f1.c.o)
 .data.usart2   0x000000002000027c       0x94 /var/folders/hj/xvmq845d4rq0_l026j3g6x8c0000gn/T/arduino-core-cache/core_0bde13c9a0eea2bfdc716a2fc04bccd4.a(usart_f1.c.o)
 .data.usart3   0x0000000020000310       0x94 /var/folders/hj/xvmq845d4rq0_l026j3g6x8c0000gn/T/arduino-core-cache/core_0bde13c9a0eea2bfdc716a2fc04bccd4.a(usart_f1.c.o)
 .data.USBLIB   0x00000000200003a4        0x4 /var/folders/hj/xvmq845d4rq0_l026j3g6x8c0000gn/T/arduino-core-cache/core_0bde13c9a0eea2bfdc716a2fc04bccd4.a(usb.c.o)
                0x00000000200003a4                USBLIB
 .data.usblib   0x00000000200003a8       0x10 /var/folders/hj/xvmq845d4rq0_l026j3g6x8c0000gn/T/arduino-core-cache/core_0bde13c9a0eea2bfdc716a2fc04bccd4.a(usb.c.o)
 .data.Config_Descriptor
                0x00000000200003b8        0x8 /var/folders/hj/xvmq845d4rq0_l026j3g6x8c0000gn/T/arduino-core-cache/core_0bde13c9a0eea2bfdc716a2fc04bccd4.a(usb_cdcacm.c.o)
 .data.Device_Descriptor
                0x00000000200003c0        0x8 /var/folders/hj/xvmq845d4rq0_l026j3g6x8c0000gn/T/arduino-core-cache/core_0bde13c9a0eea2bfdc716a2fc04bccd4.a(usb_cdcacm.c.o)
 .data.Device_Property
                0x00000000200003c8       0x30 /var/folders/hj/xvmq845d4rq0_l026j3g6x8c0000gn/T/arduino-core-cache/core_0bde13c9a0eea2bfdc716a2fc04bccd4.a(usb_cdcacm.c.o)
                0x00000000200003c8                Device_Property
 .data.Device_Table
                0x00000000200003f8        0x2 /var/folders/hj/xvmq845d4rq0_l026j3g6x8c0000gn/T/arduino-core-cache/core_0bde13c9a0eea2bfdc716a2fc04bccd4.a(usb_cdcacm.c.o)
                0x00000000200003f8                Device_Table
 *fill*         0x00000000200003fa        0x2 
 .data.String_Descriptor
                0x00000000200003fc       0x18 /var/folders/hj/xvmq845d4rq0_l026j3g6x8c0000gn/T/arduino-core-cache/core_0bde13c9a0eea2bfdc716a2fc04bccd4.a(usb_cdcacm.c.o)
 .data.User_Standard_Requests
                0x0000000020000414       0x24 /var/folders/hj/xvmq845d4rq0_l026j3g6x8c0000gn/T/arduino-core-cache/core_0bde13c9a0eea2bfdc716a2fc04bccd4.a(usb_cdcacm.c.o)
                0x0000000020000414                User_Standard_Requests
 .data.ep_int_in
                0x0000000020000438       0x1c /var/folders/hj/xvmq845d4rq0_l026j3g6x8c0000gn/T/arduino-core-cache/core_0bde13c9a0eea2bfdc716a2fc04bccd4.a(usb_cdcacm.c.o)
 .data.ep_int_out
                0x0000000020000454       0x1c /var/folders/hj/xvmq845d4rq0_l026j3g6x8c0000gn/T/arduino-core-cache/core_0bde13c9a0eea2bfdc716a2fc04bccd4.a(usb_cdcacm.c.o)
 .data.line_coding
                0x0000000020000470        0x7 /var/folders/hj/xvmq845d4rq0_l026j3g6x8c0000gn/T/arduino-core-cache/core_0bde13c9a0eea2bfdc716a2fc04bccd4.a(usb_cdcacm.c.o)
 *fill*         0x0000000020000477        0x1 
 .data._impure_ptr
                0x0000000020000478        0x4 /Users/lgcampos/Library/Arduino15/packages/arduino/tools/arm-none-eabi-gcc/7-2017q4/bin/../lib/gcc/arm-none-eabi/7.2.1/../../../../arm-none-eabi/lib/thumb/v7-m/libc.a(lib_a-impure.o)
                0x0000000020000478                _impure_ptr
 *fill*         0x000000002000047c        0x4 
 .data.impure_data
                0x0000000020000480      0x428 /Users/lgcampos/Library/Arduino15/packages/arduino/tools/arm-none-eabi-gcc/7-2017q4/bin/../lib/gcc/arm-none-eabi/7.2.1/../../../../arm-none-eabi/lib/thumb/v7-m/libc.a(lib_a-impure.o)
 .data.__malloc_av_
                0x00000000200008a8      0x408 /Users/lgcampos/Library/Arduino15/packages/arduino/tools/arm-none-eabi-gcc/7-2017q4/bin/../lib/gcc/arm-none-eabi/7.2.1/../../../../arm-none-eabi/lib/thumb/v7-m/libc.a(lib_a-mallocr.o)
                0x00000000200008a8                __malloc_av_
 .data.__malloc_sbrk_base
                0x0000000020000cb0        0x4 /Users/lgcampos/Library/Arduino15/packages/arduino/tools/arm-none-eabi-gcc/7-2017q4/bin/../lib/gcc/arm-none-eabi/7.2.1/../../../../arm-none-eabi/lib/thumb/v7-m/libc.a(lib_a-mallocr.o)
                0x0000000020000cb0                __malloc_sbrk_base
 .data.__malloc_trim_threshold
                0x0000000020000cb4        0x4 /Users/lgcampos/Library/Arduino15/packages/arduino/tools/arm-none-eabi-gcc/7-2017q4/bin/../lib/gcc/arm-none-eabi/7.2.1/../../../../arm-none-eabi/lib/thumb/v7-m/libc.a(lib_a-mallocr.o)
                0x0000000020000cb4                __malloc_trim_threshold
 .data.__atexit_recursive_mutex
                0x0000000020000cb8        0x4 /Users/lgcampos/Library/Arduino15/packages/arduino/tools/arm-none-eabi-gcc/7-2017q4/bin/../lib/gcc/arm-none-eabi/7.2.1/../../../../arm-none-eabi/lib/thumb/v7-m/libc.a(lib_a-__call_atexit.o)
                0x0000000020000cb8                __atexit_recursive_mutex
                0x0000000020000cc0                . = ALIGN (0x8)
 *fill*         0x0000000020000cbc        0x4 
                0x0000000020000cc0                __data_end__ = .

.igot.plt       0x0000000020000cc0        0x0 load address 0x0000000008006618
 .igot.plt      0x0000000020000cc0        0x0 /Users/lgcampos/Library/Arduino15/packages/arduino/tools/arm-none-eabi-gcc/7-2017q4/bin/../lib/gcc/arm-none-eabi/7.2.1/thumb/v7-m/crtbegin.o

.rodata         0x0000000008006618      0x7c4
 *(.rodata .rodata.* .gnu.linkonce.r.*)
 .rodata._Z10HideCursorv.str1.4
                0x0000000008006618        0x7 /var/folders/hj/xvmq845d4rq0_l026j3g6x8c0000gn/T/arduino-sketch-783AC80E8B34696ACA1CC87DB6CF7DB3/sketch/LowMemoryExample.ino.cpp.o
 *fill*         0x000000000800661f        0x1 
 .rodata._Z10ResetColorv.str1.4
                0x0000000008006620        0x5 /var/folders/hj/xvmq845d4rq0_l026j3g6x8c0000gn/T/arduino-sketch-783AC80E8B34696ACA1CC87DB6CF7DB3/sketch/LowMemoryExample.ino.cpp.o
 *fill*         0x0000000008006625        0x3 
 .rodata._Z12ClearConsolev.str1.4
                0x0000000008006628        0x5 /var/folders/hj/xvmq845d4rq0_l026j3g6x8c0000gn/T/arduino-sketch-783AC80E8B34696ACA1CC87DB6CF7DB3/sketch/LowMemoryExample.ino.cpp.o
 *fill*         0x000000000800662d        0x3 
 .rodata._Z13CounterThreadPv.str1.4
                0x0000000008006630        0x8 /var/folders/hj/xvmq845d4rq0_l026j3g6x8c0000gn/T/arduino-sketch-783AC80E8B34696ACA1CC87DB6CF7DB3/sketch/LowMemoryExample.ino.cpp.o
 .rodata._Z14eventualThreadPv.str1.4
                0x0000000008006638       0x73 /var/folders/hj/xvmq845d4rq0_l026j3g6x8c0000gn/T/arduino-sketch-783AC80E8B34696ACA1CC87DB6CF7DB3/sketch/LowMemoryExample.ino.cpp.o
                                         0x77 (size before relaxing)
 *fill*         0x00000000080066ab        0x1 
 .rodata._Z18ShowRunningThreadsv.str1.4
                0x00000000080066ac       0x8d /var/folders/hj/xvmq845d4rq0_l026j3g6x8c0000gn/T/arduino-sketch-783AC80E8B34696ACA1CC87DB6CF7DB3/sketch/LowMemoryExample.ino.cpp.o
 *fill*         0x0000000008006739        0x3 
 .rodata._Z20StackOverflowHandlerv.str1.4
                0x000000000800673c       0x24 /var/folders/hj/xvmq845d4rq0_l026j3g6x8c0000gn/T/arduino-sketch-783AC80E8B34696ACA1CC87DB6CF7DB3/sketch/LowMemoryExample.ino.cpp.o
 .rodata._Z5setupv.str1.4
                0x0000000008006760      0x22d /var/folders/hj/xvmq845d4rq0_l026j3g6x8c0000gn/T/arduino-sketch-783AC80E8B34696ACA1CC87DB6CF7DB3/sketch/LowMemoryExample.ino.cpp.o
                                        0x231 (size before relaxing)
 *fill*         0x000000000800698d        0x3 
 .rodata._Z6ThreadPv.str1.4
                0x0000000008006990       0x6d /var/folders/hj/xvmq845d4rq0_l026j3g6x8c0000gn/T/arduino-sketch-783AC80E8B34696ACA1CC87DB6CF7DB3/sketch/LowMemoryExample.ino.cpp.o
 *fill*         0x00000000080069fd        0x3 
 .rodata._ZL21CorePartition_version
                0x0000000008006a00       0x34 /var/folders/hj/xvmq845d4rq0_l026j3g6x8c0000gn/T/arduino-sketch-783AC80E8B34696ACA1CC87DB6CF7DB3/sketch/LowMemoryExample.ino.cpp.o
 .rodata._ZZ5setupvE19__PRETTY_FUNCTION__
                0x0000000008006a34        0xd /var/folders/hj/xvmq845d4rq0_l026j3g6x8c0000gn/T/arduino-sketch-783AC80E8B34696ACA1CC87DB6CF7DB3/sketch/LowMemoryExample.ino.cpp.o
 *fill*         0x0000000008006a41        0x3 
 .rodata.CorePartition_CreateThread_.str1.4
                0x0000000008006a44        0x7 /var/folders/hj/xvmq845d4rq0_l026j3g6x8c0000gn/T/arduino-sketch-783AC80E8B34696ACA1CC87DB6CF7DB3/libraries/CorePartition/CorePartition.c.o
 *fill*         0x0000000008006a4b        0x1 
 .rodata.CorePartition_GetThreadNameByID.str1.4
                0x0000000008006a4c        0x2 /var/folders/hj/xvmq845d4rq0_l026j3g6x8c0000gn/T/arduino-sketch-783AC80E8B34696ACA1CC87DB6CF7DB3/libraries/CorePartition/CorePartition.c.o
 *fill*         0x0000000008006a4e        0x2 
 .rodata.PIN_MAP
                0x0000000008006a50      0x230 /var/folders/hj/xvmq845d4rq0_l026j3g6x8c0000gn/T/arduino-sketch-783AC80E8B34696ACA1CC87DB6CF7DB3/core/board.cpp.o
                0x0000000008006a50                PIN_MAP
 .rodata.GPIOC  0x0000000008006c80        0x4 /var/folders/hj/xvmq845d4rq0_l026j3g6x8c0000gn/T/arduino-core-cache/core_0bde13c9a0eea2bfdc716a2fc04bccd4.a(gpio_f1.c.o)
                0x0000000008006c80                GPIOC
 .rodata.masks.4463
                0x0000000008006c84       0x14 /var/folders/hj/xvmq845d4rq0_l026j3g6x8c0000gn/T/arduino-core-cache/core_0bde13c9a0eea2bfdc716a2fc04bccd4.a(rcc_f1.c.o)
 .rodata.rcc_dev_table
                0x0000000008006c98       0x5c /var/folders/hj/xvmq845d4rq0_l026j3g6x8c0000gn/T/arduino-core-cache/core_0bde13c9a0eea2bfdc716a2fc04bccd4.a(rcc_f1.c.o)
                0x0000000008006c98                rcc_dev_table
 .rodata.usbVcomDescriptor_Config
                0x0000000008006cf4       0x43 /var/folders/hj/xvmq845d4rq0_l026j3g6x8c0000gn/T/arduino-core-cache/core_0bde13c9a0eea2bfdc716a2fc04bccd4.a(usb_cdcacm.c.o)
 *fill*         0x0000000008006d37        0x1 
 .rodata.usbVcomDescriptor_Device
                0x0000000008006d38       0x12 /var/folders/hj/xvmq845d4rq0_l026j3g6x8c0000gn/T/arduino-core-cache/core_0bde13c9a0eea2bfdc716a2fc04bccd4.a(usb_cdcacm.c.o)
 *fill*         0x0000000008006d4a        0x2 
 .rodata.usbVcomDescriptor_LangID
                0x0000000008006d4c        0x4 /var/folders/hj/xvmq845d4rq0_l026j3g6x8c0000gn/T/arduino-core-cache/core_0bde13c9a0eea2bfdc716a2fc04bccd4.a(usb_cdcacm.c.o)
 .rodata.usbVcomDescriptor_iManufacturer
                0x0000000008006d50       0x12 /var/folders/hj/xvmq845d4rq0_l026j3g6x8c0000gn/T/arduino-core-cache/core_0bde13c9a0eea2bfdc716a2fc04bccd4.a(usb_cdcacm.c.o)
 *fill*         0x0000000008006d62        0x2 
 .rodata.usbVcomDescriptor_iProduct
                0x0000000008006d64        0xc /var/folders/hj/xvmq845d4rq0_l026j3g6x8c0000gn/T/arduino-core-cache/core_0bde13c9a0eea2bfdc716a2fc04bccd4.a(usb_cdcacm.c.o)
 .rodata._fail.str1.4
                0x0000000008006d70       0x1c /var/folders/hj/xvmq845d4rq0_l026j3g6x8c0000gn/T/arduino-core-cache/core_0bde13c9a0eea2bfdc716a2fc04bccd4.a(util.c.o)
                                         0x1f (size before relaxing)
 .rodata._ZTV14HardwareSerial
                0x0000000008006d8c       0x24 /var/folders/hj/xvmq845d4rq0_l026j3g6x8c0000gn/T/arduino-core-cache/core_0bde13c9a0eea2bfdc716a2fc04bccd4.a(HardwareSerial.cpp.o)
                0x0000000008006d8c                vtable for HardwareSerial
 .rodata._ZTV9USBSerial
                0x0000000008006db0       0x24 /var/folders/hj/xvmq845d4rq0_l026j3g6x8c0000gn/T/arduino-core-cache/core_0bde13c9a0eea2bfdc716a2fc04bccd4.a(usb_serial.cpp.o)
                0x0000000008006db0                vtable for USBSerial
 .rodata._global_impure_ptr
                0x0000000008006dd4        0x4 /Users/lgcampos/Library/Arduino15/packages/arduino/tools/arm-none-eabi-gcc/7-2017q4/bin/../lib/gcc/arm-none-eabi/7.2.1/../../../../arm-none-eabi/lib/thumb/v7-m/libc.a(lib_a-impure.o)
                0x0000000008006dd4                _global_impure_ptr
 *(.USER_FLASH)
                0x0000000008006dd8                . = ALIGN (0x4)
                0x0000000008006dd8                _lm_rom_img_cfgp = .
                0x0000000008006dd8        0x4 LONG 0x8005958 LOADADDR (.data)
                0x0000000020001158                _lm_heap_start = DEFINED (_lm_heap_start)?_lm_heap_start:_end
                0x0000000020005000                _lm_heap_end = DEFINED (_lm_heap_end)?_lm_heap_end:__msp_init

.rel.dyn        0x0000000008006ddc        0x0
 .rel.iplt      0x0000000008006ddc        0x0 /Users/lgcampos/Library/Arduino15/packages/arduino/tools/arm-none-eabi-gcc/7-2017q4/bin/../lib/gcc/arm-none-eabi/7.2.1/thumb/v7-m/crtbegin.o

.bss            0x0000000020000cc0      0x498
                0x0000000020000cc0                . = ALIGN (0x8)
                0x0000000020000cc0                __bss_start__ = .
 *(.bss .bss.* .gnu.linkonce.b.*)
 .bss           0x0000000020000cc0       0x1c /Users/lgcampos/Library/Arduino15/packages/arduino/tools/arm-none-eabi-gcc/7-2017q4/bin/../lib/gcc/arm-none-eabi/7.2.1/thumb/v7-m/crtbegin.o
 .bss.nValues   0x0000000020000cdc        0xc /var/folders/hj/xvmq845d4rq0_l026j3g6x8c0000gn/T/arduino-sketch-783AC80E8B34696ACA1CC87DB6CF7DB3/sketch/LowMemoryExample.ino.cpp.o
                0x0000000020000cdc                nValues
 .bss.nCount.6057
                0x0000000020000ce8        0x4 /var/folders/hj/xvmq845d4rq0_l026j3g6x8c0000gn/T/arduino-sketch-783AC80E8B34696ACA1CC87DB6CF7DB3/libraries/CorePartition/CorePartition.c.o
 .bss.nCurrentThread
                0x0000000020000cec        0x4 /var/folders/hj/xvmq845d4rq0_l026j3g6x8c0000gn/T/arduino-sketch-783AC80E8B34696ACA1CC87DB6CF7DB3/libraries/CorePartition/CorePartition.c.o
 .bss.nMaxThreads
                0x0000000020000cf0        0x4 /var/folders/hj/xvmq845d4rq0_l026j3g6x8c0000gn/T/arduino-sketch-783AC80E8B34696ACA1CC87DB6CF7DB3/libraries/CorePartition/CorePartition.c.o
 .bss.nRunningThreads
                0x0000000020000cf4        0x4 /var/folders/hj/xvmq845d4rq0_l026j3g6x8c0000gn/T/arduino-sketch-783AC80E8B34696ACA1CC87DB6CF7DB3/libraries/CorePartition/CorePartition.c.o
 .bss.nThreadCount
                0x0000000020000cf8        0x4 /var/folders/hj/xvmq845d4rq0_l026j3g6x8c0000gn/T/arduino-sketch-783AC80E8B34696ACA1CC87DB6CF7DB3/libraries/CorePartition/CorePartition.c.o
 .bss.pCoreThread
                0x0000000020000cfc        0x4 /var/folders/hj/xvmq845d4rq0_l026j3g6x8c0000gn/T/arduino-sketch-783AC80E8B34696ACA1CC87DB6CF7DB3/libraries/CorePartition/CorePartition.c.o
 .bss.pStartStck
                0x0000000020000d00        0x4 /var/folders/hj/xvmq845d4rq0_l026j3g6x8c0000gn/T/arduino-sketch-783AC80E8B34696ACA1CC87DB6CF7DB3/libraries/CorePartition/CorePartition.c.o
 .bss.stackOverflowHandler
                0x0000000020000d04        0x4 /var/folders/hj/xvmq845d4rq0_l026j3g6x8c0000gn/T/arduino-sketch-783AC80E8B34696ACA1CC87DB6CF7DB3/libraries/CorePartition/CorePartition.c.o
 .bss.pbreak.4621
                0x0000000020000d08        0x4 /var/folders/hj/xvmq845d4rq0_l026j3g6x8c0000gn/T/arduino-sketch-783AC80E8B34696ACA1CC87DB6CF7DB3/core/wirish/syscalls.c.o
 .bss.Serial1   0x0000000020000d0c       0x18 /var/folders/hj/xvmq845d4rq0_l026j3g6x8c0000gn/T/arduino-sketch-783AC80E8B34696ACA1CC87DB6CF7DB3/core/board.cpp.o
                0x0000000020000d0c                Serial1
 .bss.Serial2   0x0000000020000d24       0x18 /var/folders/hj/xvmq845d4rq0_l026j3g6x8c0000gn/T/arduino-sketch-783AC80E8B34696ACA1CC87DB6CF7DB3/core/board.cpp.o
                0x0000000020000d24                Serial2
 .bss.Serial3   0x0000000020000d3c       0x18 /var/folders/hj/xvmq845d4rq0_l026j3g6x8c0000gn/T/arduino-sketch-783AC80E8B34696ACA1CC87DB6CF7DB3/core/board.cpp.o
                0x0000000020000d3c                Serial3
 .bss.exti_channels
                0x0000000020000d54       0x80 /var/folders/hj/xvmq845d4rq0_l026j3g6x8c0000gn/T/arduino-core-cache/core_0bde13c9a0eea2bfdc716a2fc04bccd4.a(exti.c.o)
                0x0000000020000d54                exti_channels
 .bss.systick_user_callback
                0x0000000020000dd4        0x4 /var/folders/hj/xvmq845d4rq0_l026j3g6x8c0000gn/T/arduino-core-cache/core_0bde13c9a0eea2bfdc716a2fc04bccd4.a(systick.c.o)
 .bss.usart1_rb
                0x0000000020000dd8        0xc /var/folders/hj/xvmq845d4rq0_l026j3g6x8c0000gn/T/arduino-core-cache/core_0bde13c9a0eea2bfdc716a2fc04bccd4.a(usart_f1.c.o)
 .bss.usart1_wb
                0x0000000020000de4        0xc /var/folders/hj/xvmq845d4rq0_l026j3g6x8c0000gn/T/arduino-core-cache/core_0bde13c9a0eea2bfdc716a2fc04bccd4.a(usart_f1.c.o)
 .bss.usart2_rb
                0x0000000020000df0        0xc /var/folders/hj/xvmq845d4rq0_l026j3g6x8c0000gn/T/arduino-core-cache/core_0bde13c9a0eea2bfdc716a2fc04bccd4.a(usart_f1.c.o)
 .bss.usart2_wb
                0x0000000020000dfc        0xc /var/folders/hj/xvmq845d4rq0_l026j3g6x8c0000gn/T/arduino-core-cache/core_0bde13c9a0eea2bfdc716a2fc04bccd4.a(usart_f1.c.o)
 .bss.usart3_rb
                0x0000000020000e08        0xc /var/folders/hj/xvmq845d4rq0_l026j3g6x8c0000gn/T/arduino-core-cache/core_0bde13c9a0eea2bfdc716a2fc04bccd4.a(usart_f1.c.o)
 .bss.usart3_wb
                0x0000000020000e14        0xc /var/folders/hj/xvmq845d4rq0_l026j3g6x8c0000gn/T/arduino-core-cache/core_0bde13c9a0eea2bfdc716a2fc04bccd4.a(usart_f1.c.o)
 .bss.iface_setup_hook
                0x0000000020000e20        0x4 /var/folders/hj/xvmq845d4rq0_l026j3g6x8c0000gn/T/arduino-core-cache/core_0bde13c9a0eea2bfdc716a2fc04bccd4.a(usb_cdcacm.c.o)
 .bss.line_dtr_rts
                0x0000000020000e24        0x1 /var/folders/hj/xvmq845d4rq0_l026j3g6x8c0000gn/T/arduino-core-cache/core_0bde13c9a0eea2bfdc716a2fc04bccd4.a(usb_cdcacm.c.o)
 *fill*         0x0000000020000e25        0x3 
 .bss.rx_head   0x0000000020000e28        0x4 /var/folders/hj/xvmq845d4rq0_l026j3g6x8c0000gn/T/arduino-core-cache/core_0bde13c9a0eea2bfdc716a2fc04bccd4.a(usb_cdcacm.c.o)
 .bss.rx_hook   0x0000000020000e2c        0x4 /var/folders/hj/xvmq845d4rq0_l026j3g6x8c0000gn/T/arduino-core-cache/core_0bde13c9a0eea2bfdc716a2fc04bccd4.a(usb_cdcacm.c.o)
 .bss.rx_tail   0x0000000020000e30        0x4 /var/folders/hj/xvmq845d4rq0_l026j3g6x8c0000gn/T/arduino-core-cache/core_0bde13c9a0eea2bfdc716a2fc04bccd4.a(usb_cdcacm.c.o)
 .bss.transmitting
                0x0000000020000e34        0x1 /var/folders/hj/xvmq845d4rq0_l026j3g6x8c0000gn/T/arduino-core-cache/core_0bde13c9a0eea2bfdc716a2fc04bccd4.a(usb_cdcacm.c.o)
 *fill*         0x0000000020000e35        0x3 
 .bss.tx_head   0x0000000020000e38        0x4 /var/folders/hj/xvmq845d4rq0_l026j3g6x8c0000gn/T/arduino-core-cache/core_0bde13c9a0eea2bfdc716a2fc04bccd4.a(usb_cdcacm.c.o)
 .bss.tx_tail   0x0000000020000e3c        0x4 /var/folders/hj/xvmq845d4rq0_l026j3g6x8c0000gn/T/arduino-core-cache/core_0bde13c9a0eea2bfdc716a2fc04bccd4.a(usb_cdcacm.c.o)
 .bss.vcomBufferRx
                0x0000000020000e40      0x100 /var/folders/hj/xvmq845d4rq0_l026j3g6x8c0000gn/T/arduino-core-cache/core_0bde13c9a0eea2bfdc716a2fc04bccd4.a(usb_cdcacm.c.o)
 .bss.vcomBufferTx
                0x0000000020000f40      0x100 /var/folders/hj/xvmq845d4rq0_l026j3g6x8c0000gn/T/arduino-core-cache/core_0bde13c9a0eea2bfdc716a2fc04bccd4.a(usb_cdcacm.c.o)
 .bss.Data_Mul_MaxPacketSize
                0x0000000020001040        0x1 /var/folders/hj/xvmq845d4rq0_l026j3g6x8c0000gn/T/arduino-core-cache/core_0bde13c9a0eea2bfdc716a2fc04bccd4.a(usb_core.c.o)
                0x0000000020001040                Data_Mul_MaxPacketSize
 *fill*         0x0000000020001041        0x3 
 .bss.Serial    0x0000000020001044       0x10 /var/folders/hj/xvmq845d4rq0_l026j3g6x8c0000gn/T/arduino-core-cache/core_0bde13c9a0eea2bfdc716a2fc04bccd4.a(usb_serial.cpp.o)
                0x0000000020001044                Serial
 .bss._ZL11reset_state
                0x0000000020001054        0x1 /var/folders/hj/xvmq845d4rq0_l026j3g6x8c0000gn/T/arduino-core-cache/core_0bde13c9a0eea2bfdc716a2fc04bccd4.a(usb_serial.cpp.o)
 .bss._ZN9USBSerial11_isBlockingE
                0x0000000020001055        0x1 /var/folders/hj/xvmq845d4rq0_l026j3g6x8c0000gn/T/arduino-core-cache/core_0bde13c9a0eea2bfdc716a2fc04bccd4.a(usb_serial.cpp.o)
                0x0000000020001055                USBSerial::_isBlocking
 .bss._ZN9USBSerial9_hasBegunE
                0x0000000020001056        0x1 /var/folders/hj/xvmq845d4rq0_l026j3g6x8c0000gn/T/arduino-core-cache/core_0bde13c9a0eea2bfdc716a2fc04bccd4.a(usb_serial.cpp.o)
                0x0000000020001056                USBSerial::_hasBegun
 *fill*         0x0000000020001057        0x1 
 .bss.__malloc_current_mallinfo
                0x0000000020001058       0x28 /Users/lgcampos/Library/Arduino15/packages/arduino/tools/arm-none-eabi-gcc/7-2017q4/bin/../lib/gcc/arm-none-eabi/7.2.1/../../../../arm-none-eabi/lib/thumb/v7-m/libc.a(lib_a-mallocr.o)
                0x0000000020001058                __malloc_current_mallinfo
 .bss.__malloc_max_sbrked_mem
                0x0000000020001080        0x4 /Users/lgcampos/Library/Arduino15/packages/arduino/tools/arm-none-eabi-gcc/7-2017q4/bin/../lib/gcc/arm-none-eabi/7.2.1/../../../../arm-none-eabi/lib/thumb/v7-m/libc.a(lib_a-mallocr.o)
                0x0000000020001080                __malloc_max_sbrked_mem
 .bss.__malloc_max_total_mem
                0x0000000020001084        0x4 /Users/lgcampos/Library/Arduino15/packages/arduino/tools/arm-none-eabi-gcc/7-2017q4/bin/../lib/gcc/arm-none-eabi/7.2.1/../../../../arm-none-eabi/lib/thumb/v7-m/libc.a(lib_a-mallocr.o)
                0x0000000020001084                __malloc_max_total_mem
 .bss.__malloc_top_pad
                0x0000000020001088        0x4 /Users/lgcampos/Library/Arduino15/packages/arduino/tools/arm-none-eabi-gcc/7-2017q4/bin/../lib/gcc/arm-none-eabi/7.2.1/../../../../arm-none-eabi/lib/thumb/v7-m/libc.a(lib_a-mallocr.o)
                0x0000000020001088                __malloc_top_pad
 *(COMMON)
 COMMON         0x000000002000108c       0x5c /var/folders/hj/xvmq845d4rq0_l026j3g6x8c0000gn/T/arduino-sketch-783AC80E8B34696ACA1CC87DB6CF7DB3/libraries/CorePartition/CorePartition.c.o
                0x000000002000108c                jmpJoinPointer
 COMMON         0x00000000200010e8        0x4 /var/folders/hj/xvmq845d4rq0_l026j3g6x8c0000gn/T/arduino-core-cache/core_0bde13c9a0eea2bfdc716a2fc04bccd4.a(systick.c.o)
                0x00000000200010e8                systick_uptime_millis
 COMMON         0x00000000200010ec        0x6 /var/folders/hj/xvmq845d4rq0_l026j3g6x8c0000gn/T/arduino-core-cache/core_0bde13c9a0eea2bfdc716a2fc04bccd4.a(usb.c.o)
                0x00000000200010ec                SaveRState
                0x00000000200010ee                SaveTState
                0x00000000200010f0                ResumeS
 *fill*         0x00000000200010f2        0x2 
 COMMON         0x00000000200010f4        0x2 /var/folders/hj/xvmq845d4rq0_l026j3g6x8c0000gn/T/arduino-core-cache/core_0bde13c9a0eea2bfdc716a2fc04bccd4.a(usb_core.c.o)
                0x00000000200010f4                StatusInfo
 *fill*         0x00000000200010f6        0x2 
 COMMON         0x00000000200010f8       0x32 /var/folders/hj/xvmq845d4rq0_l026j3g6x8c0000gn/T/arduino-core-cache/core_0bde13c9a0eea2bfdc716a2fc04bccd4.a(usb_init.c.o)
                0x00000000200010f8                SaveState
                0x00000000200010fc                pProperty
                0x0000000020001100                EPindex
                0x0000000020001104                Device_Info
                0x0000000020001120                pUser_Standard_Requests
                0x0000000020001124                pInformation
                0x0000000020001128                wInterrupt_Mask
 *fill*         0x000000002000112a        0x2 
 COMMON         0x000000002000112c       0x21 /Users/lgcampos/Library/Arduino15/packages/arduino/tools/arm-none-eabi-gcc/7-2017q4/bin/../lib/gcc/arm-none-eabi/7.2.1/../../../../arm-none-eabi/lib/thumb/v7-m/libc.a(lib_a-lock.o)
                0x000000002000112c                __lock___atexit_recursive_mutex
                0x0000000020001130                __lock___arc4random_mutex
                0x0000000020001134                __lock___env_recursive_mutex
                0x0000000020001138                __lock___sinit_recursive_mutex
                0x000000002000113c                __lock___malloc_recursive_mutex
                0x0000000020001140                __lock___at_quick_exit_mutex
                0x0000000020001144                __lock___dd_hash_mutex
                0x0000000020001148                __lock___tz_mutex
                0x000000002000114c                __lock___sfp_recursive_mutex
 *fill*         0x000000002000114d        0x3 
 COMMON         0x0000000020001150        0x4 /Users/lgcampos/Library/Arduino15/packages/arduino/tools/arm-none-eabi-gcc/7-2017q4/bin/../lib/gcc/arm-none-eabi/7.2.1/../../../../arm-none-eabi/lib/thumb/v7-m/libc.a(lib_a-reent.o)
                0x0000000020001150                errno
                0x0000000020001158                . = ALIGN (0x8)
 *fill*         0x0000000020001154        0x4 
                0x0000000020001158                __bss_end__ = .
                0x0000000020001158                _end = __bss_end__

.stab
 *(.stab)

.stabstr
 *(.stabstr)

.debug
 *(.debug)

.line
 *(.line)

.debug_srcinfo
 *(.debug_srcinfo)

.debug_sfnames
 *(.debug_sfnames)

.debug_aranges  0x0000000000000000     0x1030
 *(.debug_aranges)
 .debug_aranges
                0x0000000000000000       0xb0 /var/folders/hj/xvmq845d4rq0_l026j3g6x8c0000gn/T/arduino-sketch-783AC80E8B34696ACA1CC87DB6CF7DB3/sketch/LowMemoryExample.ino.cpp.o
 .debug_aranges
                0x00000000000000b0      0x130 /var/folders/hj/xvmq845d4rq0_l026j3g6x8c0000gn/T/arduino-sketch-783AC80E8B34696ACA1CC87DB6CF7DB3/libraries/CorePartition/CorePartition.c.o
 .debug_aranges
                0x00000000000001e0       0x20 /var/folders/hj/xvmq845d4rq0_l026j3g6x8c0000gn/T/arduino-sketch-783AC80E8B34696ACA1CC87DB6CF7DB3/core/wirish/start.S.o
 .debug_aranges
                0x0000000000000200       0x20 /var/folders/hj/xvmq845d4rq0_l026j3g6x8c0000gn/T/arduino-sketch-783AC80E8B34696ACA1CC87DB6CF7DB3/core/wirish/start_c.c.o
 .debug_aranges
                0x0000000000000220       0x80 /var/folders/hj/xvmq845d4rq0_l026j3g6x8c0000gn/T/arduino-sketch-783AC80E8B34696ACA1CC87DB6CF7DB3/core/wirish/syscalls.c.o
 .debug_aranges
                0x00000000000002a0       0x28 /var/folders/hj/xvmq845d4rq0_l026j3g6x8c0000gn/T/arduino-sketch-783AC80E8B34696ACA1CC87DB6CF7DB3/core/board.cpp.o
 .debug_aranges
                0x00000000000002c8       0x40 /var/folders/hj/xvmq845d4rq0_l026j3g6x8c0000gn/T/arduino-sketch-783AC80E8B34696ACA1CC87DB6CF7DB3/core/wirish/boards.cpp.o
 .debug_aranges
                0x0000000000000308       0x40 /var/folders/hj/xvmq845d4rq0_l026j3g6x8c0000gn/T/arduino-sketch-783AC80E8B34696ACA1CC87DB6CF7DB3/core/wirish/boards_setup.cpp.o
 .debug_aranges
                0x0000000000000348       0x20 /var/folders/hj/xvmq845d4rq0_l026j3g6x8c0000gn/T/arduino-core-cache/core_0bde13c9a0eea2bfdc716a2fc04bccd4.a(exc.S.o)
 .debug_aranges
                0x0000000000000368       0x20 /var/folders/hj/xvmq845d4rq0_l026j3g6x8c0000gn/T/arduino-core-cache/core_0bde13c9a0eea2bfdc716a2fc04bccd4.a(isrs.S.o)
 .debug_aranges
                0x0000000000000388       0x38 /var/folders/hj/xvmq845d4rq0_l026j3g6x8c0000gn/T/arduino-core-cache/core_0bde13c9a0eea2bfdc716a2fc04bccd4.a(adc.c.o)
 .debug_aranges
                0x00000000000003c0       0x58 /var/folders/hj/xvmq845d4rq0_l026j3g6x8c0000gn/T/arduino-core-cache/core_0bde13c9a0eea2bfdc716a2fc04bccd4.a(adc_f1.c.o)
 .debug_aranges
                0x0000000000000418       0xb0 /var/folders/hj/xvmq845d4rq0_l026j3g6x8c0000gn/T/arduino-core-cache/core_0bde13c9a0eea2bfdc716a2fc04bccd4.a(dma_f1.c.o)
 .debug_aranges
                0x00000000000004c8       0x80 /var/folders/hj/xvmq845d4rq0_l026j3g6x8c0000gn/T/arduino-core-cache/core_0bde13c9a0eea2bfdc716a2fc04bccd4.a(exti.c.o)
 .debug_aranges
                0x0000000000000548       0x20 /var/folders/hj/xvmq845d4rq0_l026j3g6x8c0000gn/T/arduino-core-cache/core_0bde13c9a0eea2bfdc716a2fc04bccd4.a(flash.c.o)
 .debug_aranges
                0x0000000000000568       0x40 /var/folders/hj/xvmq845d4rq0_l026j3g6x8c0000gn/T/arduino-core-cache/core_0bde13c9a0eea2bfdc716a2fc04bccd4.a(gpio_f1.c.o)
 .debug_aranges
                0x00000000000005a8       0x50 /var/folders/hj/xvmq845d4rq0_l026j3g6x8c0000gn/T/arduino-core-cache/core_0bde13c9a0eea2bfdc716a2fc04bccd4.a(i2c_f1.c.o)
 .debug_aranges
                0x00000000000005f8       0x38 /var/folders/hj/xvmq845d4rq0_l026j3g6x8c0000gn/T/arduino-core-cache/core_0bde13c9a0eea2bfdc716a2fc04bccd4.a(nvic.c.o)
 .debug_aranges
                0x0000000000000630       0x48 /var/folders/hj/xvmq845d4rq0_l026j3g6x8c0000gn/T/arduino-core-cache/core_0bde13c9a0eea2bfdc716a2fc04bccd4.a(rcc.c.o)
 .debug_aranges
                0x0000000000000678       0x48 /var/folders/hj/xvmq845d4rq0_l026j3g6x8c0000gn/T/arduino-core-cache/core_0bde13c9a0eea2bfdc716a2fc04bccd4.a(rcc_f1.c.o)
 .debug_aranges
                0x00000000000006c0       0x40 /var/folders/hj/xvmq845d4rq0_l026j3g6x8c0000gn/T/arduino-core-cache/core_0bde13c9a0eea2bfdc716a2fc04bccd4.a(systick.c.o)
 .debug_aranges
                0x0000000000000700       0xc8 /var/folders/hj/xvmq845d4rq0_l026j3g6x8c0000gn/T/arduino-core-cache/core_0bde13c9a0eea2bfdc716a2fc04bccd4.a(timer.c.o)
 .debug_aranges
                0x00000000000007c8       0x50 /var/folders/hj/xvmq845d4rq0_l026j3g6x8c0000gn/T/arduino-core-cache/core_0bde13c9a0eea2bfdc716a2fc04bccd4.a(usart_f1.c.o)
 .debug_aranges
                0x0000000000000818       0x38 /var/folders/hj/xvmq845d4rq0_l026j3g6x8c0000gn/T/arduino-core-cache/core_0bde13c9a0eea2bfdc716a2fc04bccd4.a(usb.c.o)
 .debug_aranges
                0x0000000000000850      0x120 /var/folders/hj/xvmq845d4rq0_l026j3g6x8c0000gn/T/arduino-core-cache/core_0bde13c9a0eea2bfdc716a2fc04bccd4.a(usb_cdcacm.c.o)
 .debug_aranges
                0x0000000000000970       0x20 /var/folders/hj/xvmq845d4rq0_l026j3g6x8c0000gn/T/arduino-core-cache/core_0bde13c9a0eea2bfdc716a2fc04bccd4.a(usb_reg_map.c.o)
 .debug_aranges
                0x0000000000000990       0x98 /var/folders/hj/xvmq845d4rq0_l026j3g6x8c0000gn/T/arduino-core-cache/core_0bde13c9a0eea2bfdc716a2fc04bccd4.a(usb_core.c.o)
 .debug_aranges
                0x0000000000000a28       0x20 /var/folders/hj/xvmq845d4rq0_l026j3g6x8c0000gn/T/arduino-core-cache/core_0bde13c9a0eea2bfdc716a2fc04bccd4.a(usb_init.c.o)
 .debug_aranges
                0x0000000000000a48       0x28 /var/folders/hj/xvmq845d4rq0_l026j3g6x8c0000gn/T/arduino-core-cache/core_0bde13c9a0eea2bfdc716a2fc04bccd4.a(usb_mem.c.o)
 .debug_aranges
                0x0000000000000a70      0x1a0 /var/folders/hj/xvmq845d4rq0_l026j3g6x8c0000gn/T/arduino-core-cache/core_0bde13c9a0eea2bfdc716a2fc04bccd4.a(usb_regs.c.o)
 .debug_aranges
                0x0000000000000c10       0x48 /var/folders/hj/xvmq845d4rq0_l026j3g6x8c0000gn/T/arduino-core-cache/core_0bde13c9a0eea2bfdc716a2fc04bccd4.a(util.c.o)
 .debug_aranges
                0x0000000000000c58       0x68 /var/folders/hj/xvmq845d4rq0_l026j3g6x8c0000gn/T/arduino-core-cache/core_0bde13c9a0eea2bfdc716a2fc04bccd4.a(HardwareSerial.cpp.o)
 .debug_aranges
                0x0000000000000cc0      0x110 /var/folders/hj/xvmq845d4rq0_l026j3g6x8c0000gn/T/arduino-core-cache/core_0bde13c9a0eea2bfdc716a2fc04bccd4.a(Print.cpp.o)
 .debug_aranges
                0x0000000000000dd0       0x28 /var/folders/hj/xvmq845d4rq0_l026j3g6x8c0000gn/T/arduino-core-cache/core_0bde13c9a0eea2bfdc716a2fc04bccd4.a(main.cpp.o)
 .debug_aranges
                0x0000000000000df8       0xd8 /var/folders/hj/xvmq845d4rq0_l026j3g6x8c0000gn/T/arduino-core-cache/core_0bde13c9a0eea2bfdc716a2fc04bccd4.a(usb_serial.cpp.o)
 .debug_aranges
                0x0000000000000ed0       0x28 /var/folders/hj/xvmq845d4rq0_l026j3g6x8c0000gn/T/arduino-core-cache/core_0bde13c9a0eea2bfdc716a2fc04bccd4.a(wirish_time.cpp.o)
 .debug_aranges
                0x0000000000000ef8       0x20 /var/folders/hj/xvmq845d4rq0_l026j3g6x8c0000gn/T/arduino-core-cache/core_0bde13c9a0eea2bfdc716a2fc04bccd4.a(hooks.c.o)
 .debug_aranges
                0x0000000000000f18       0x40 /var/folders/hj/xvmq845d4rq0_l026j3g6x8c0000gn/T/arduino-core-cache/core_0bde13c9a0eea2bfdc716a2fc04bccd4.a(bkp_f1.c.o)
 .debug_aranges
                0x0000000000000f58       0x20 /var/folders/hj/xvmq845d4rq0_l026j3g6x8c0000gn/T/arduino-core-cache/core_0bde13c9a0eea2bfdc716a2fc04bccd4.a(gpio.c.o)
 .debug_aranges
                0x0000000000000f78       0x70 /var/folders/hj/xvmq845d4rq0_l026j3g6x8c0000gn/T/arduino-core-cache/core_0bde13c9a0eea2bfdc716a2fc04bccd4.a(i2c.c.o)
 .debug_aranges
                0x0000000000000fe8       0x48 /var/folders/hj/xvmq845d4rq0_l026j3g6x8c0000gn/T/arduino-core-cache/core_0bde13c9a0eea2bfdc716a2fc04bccd4.a(usart.c.o)

.debug_pubnames
 *(.debug_pubnames)

.debug_info     0x0000000000000000    0x31d58
 *(.debug_info .gnu.linkonce.wi.*)
 .debug_info    0x0000000000000000     0x41d0 /var/folders/hj/xvmq845d4rq0_l026j3g6x8c0000gn/T/arduino-sketch-783AC80E8B34696ACA1CC87DB6CF7DB3/sketch/LowMemoryExample.ino.cpp.o
 .debug_info    0x00000000000041d0     0x204b /var/folders/hj/xvmq845d4rq0_l026j3g6x8c0000gn/T/arduino-sketch-783AC80E8B34696ACA1CC87DB6CF7DB3/libraries/CorePartition/CorePartition.c.o
 .debug_info    0x000000000000621b       0x26 /var/folders/hj/xvmq845d4rq0_l026j3g6x8c0000gn/T/arduino-sketch-783AC80E8B34696ACA1CC87DB6CF7DB3/core/wirish/start.S.o
 .debug_info    0x0000000000006241      0x157 /var/folders/hj/xvmq845d4rq0_l026j3g6x8c0000gn/T/arduino-sketch-783AC80E8B34696ACA1CC87DB6CF7DB3/core/wirish/start_c.c.o
 .debug_info    0x0000000000006398      0xebf /var/folders/hj/xvmq845d4rq0_l026j3g6x8c0000gn/T/arduino-sketch-783AC80E8B34696ACA1CC87DB6CF7DB3/core/wirish/syscalls.c.o
 .debug_info    0x0000000000007257     0x1e07 /var/folders/hj/xvmq845d4rq0_l026j3g6x8c0000gn/T/arduino-sketch-783AC80E8B34696ACA1CC87DB6CF7DB3/core/board.cpp.o
 .debug_info    0x000000000000905e     0x1624 /var/folders/hj/xvmq845d4rq0_l026j3g6x8c0000gn/T/arduino-sketch-783AC80E8B34696ACA1CC87DB6CF7DB3/core/wirish/boards.cpp.o
 .debug_info    0x000000000000a682     0x1fd0 /var/folders/hj/xvmq845d4rq0_l026j3g6x8c0000gn/T/arduino-sketch-783AC80E8B34696ACA1CC87DB6CF7DB3/core/wirish/boards_setup.cpp.o
 .debug_info    0x000000000000c652       0x26 /var/folders/hj/xvmq845d4rq0_l026j3g6x8c0000gn/T/arduino-core-cache/core_0bde13c9a0eea2bfdc716a2fc04bccd4.a(exc.S.o)
 .debug_info    0x000000000000c678       0x26 /var/folders/hj/xvmq845d4rq0_l026j3g6x8c0000gn/T/arduino-core-cache/core_0bde13c9a0eea2bfdc716a2fc04bccd4.a(isrs.S.o)
 .debug_info    0x000000000000c69e      0x7e7 /var/folders/hj/xvmq845d4rq0_l026j3g6x8c0000gn/T/arduino-core-cache/core_0bde13c9a0eea2bfdc716a2fc04bccd4.a(adc.c.o)
 .debug_info    0x000000000000ce85      0xf5c /var/folders/hj/xvmq845d4rq0_l026j3g6x8c0000gn/T/arduino-core-cache/core_0bde13c9a0eea2bfdc716a2fc04bccd4.a(adc_f1.c.o)
 .debug_info    0x000000000000dde1     0x1c42 /var/folders/hj/xvmq845d4rq0_l026j3g6x8c0000gn/T/arduino-core-cache/core_0bde13c9a0eea2bfdc716a2fc04bccd4.a(dma_f1.c.o)
 .debug_info    0x000000000000fa23     0x131a /var/folders/hj/xvmq845d4rq0_l026j3g6x8c0000gn/T/arduino-core-cache/core_0bde13c9a0eea2bfdc716a2fc04bccd4.a(exti.c.o)
 .debug_info    0x0000000000010d3d      0x12c /var/folders/hj/xvmq845d4rq0_l026j3g6x8c0000gn/T/arduino-core-cache/core_0bde13c9a0eea2bfdc716a2fc04bccd4.a(flash.c.o)
 .debug_info    0x0000000000010e69      0x719 /var/folders/hj/xvmq845d4rq0_l026j3g6x8c0000gn/T/arduino-core-cache/core_0bde13c9a0eea2bfdc716a2fc04bccd4.a(gpio_f1.c.o)
 .debug_info    0x0000000000011582      0xc0a /var/folders/hj/xvmq845d4rq0_l026j3g6x8c0000gn/T/arduino-core-cache/core_0bde13c9a0eea2bfdc716a2fc04bccd4.a(i2c_f1.c.o)
 .debug_info    0x000000000001218c      0x5ac /var/folders/hj/xvmq845d4rq0_l026j3g6x8c0000gn/T/arduino-core-cache/core_0bde13c9a0eea2bfdc716a2fc04bccd4.a(nvic.c.o)
 .debug_info    0x0000000000012738      0x56d /var/folders/hj/xvmq845d4rq0_l026j3g6x8c0000gn/T/arduino-core-cache/core_0bde13c9a0eea2bfdc716a2fc04bccd4.a(rcc.c.o)
 .debug_info    0x0000000000012ca5      0xb63 /var/folders/hj/xvmq845d4rq0_l026j3g6x8c0000gn/T/arduino-core-cache/core_0bde13c9a0eea2bfdc716a2fc04bccd4.a(rcc_f1.c.o)
 .debug_info    0x0000000000013808      0x18d /var/folders/hj/xvmq845d4rq0_l026j3g6x8c0000gn/T/arduino-core-cache/core_0bde13c9a0eea2bfdc716a2fc04bccd4.a(systick.c.o)
 .debug_info    0x0000000000013995     0x2055 /var/folders/hj/xvmq845d4rq0_l026j3g6x8c0000gn/T/arduino-core-cache/core_0bde13c9a0eea2bfdc716a2fc04bccd4.a(timer.c.o)
 .debug_info    0x00000000000159ea      0xe98 /var/folders/hj/xvmq845d4rq0_l026j3g6x8c0000gn/T/arduino-core-cache/core_0bde13c9a0eea2bfdc716a2fc04bccd4.a(usart_f1.c.o)
 .debug_info    0x0000000000016882      0xd67 /var/folders/hj/xvmq845d4rq0_l026j3g6x8c0000gn/T/arduino-core-cache/core_0bde13c9a0eea2bfdc716a2fc04bccd4.a(usb.c.o)
 .debug_info    0x00000000000175e9     0x25d2 /var/folders/hj/xvmq845d4rq0_l026j3g6x8c0000gn/T/arduino-core-cache/core_0bde13c9a0eea2bfdc716a2fc04bccd4.a(usb_cdcacm.c.o)
 .debug_info    0x0000000000019bbb      0x27c /var/folders/hj/xvmq845d4rq0_l026j3g6x8c0000gn/T/arduino-core-cache/core_0bde13c9a0eea2bfdc716a2fc04bccd4.a(usb_reg_map.c.o)
 .debug_info    0x0000000000019e37      0xef8 /var/folders/hj/xvmq845d4rq0_l026j3g6x8c0000gn/T/arduino-core-cache/core_0bde13c9a0eea2bfdc716a2fc04bccd4.a(usb_core.c.o)
 .debug_info    0x000000000001ad2f      0x489 /var/folders/hj/xvmq845d4rq0_l026j3g6x8c0000gn/T/arduino-core-cache/core_0bde13c9a0eea2bfdc716a2fc04bccd4.a(usb_init.c.o)
 .debug_info    0x000000000001b1b8      0x53b /var/folders/hj/xvmq845d4rq0_l026j3g6x8c0000gn/T/arduino-core-cache/core_0bde13c9a0eea2bfdc716a2fc04bccd4.a(usb_mem.c.o)
 .debug_info    0x000000000001b6f3     0x102f /var/folders/hj/xvmq845d4rq0_l026j3g6x8c0000gn/T/arduino-core-cache/core_0bde13c9a0eea2bfdc716a2fc04bccd4.a(usb_regs.c.o)
 .debug_info    0x000000000001c722      0xb71 /var/folders/hj/xvmq845d4rq0_l026j3g6x8c0000gn/T/arduino-core-cache/core_0bde13c9a0eea2bfdc716a2fc04bccd4.a(util.c.o)
 .debug_info    0x000000000001d293     0x3ad4 /var/folders/hj/xvmq845d4rq0_l026j3g6x8c0000gn/T/arduino-core-cache/core_0bde13c9a0eea2bfdc716a2fc04bccd4.a(HardwareSerial.cpp.o)
 .debug_info    0x0000000000020d67     0x5ac5 /var/folders/hj/xvmq845d4rq0_l026j3g6x8c0000gn/T/arduino-core-cache/core_0bde13c9a0eea2bfdc716a2fc04bccd4.a(Print.cpp.o)
 .debug_info    0x000000000002682c       0xa9 /var/folders/hj/xvmq845d4rq0_l026j3g6x8c0000gn/T/arduino-core-cache/core_0bde13c9a0eea2bfdc716a2fc04bccd4.a(main.cpp.o)
 .debug_info    0x00000000000268d5     0x512e /var/folders/hj/xvmq845d4rq0_l026j3g6x8c0000gn/T/arduino-core-cache/core_0bde13c9a0eea2bfdc716a2fc04bccd4.a(usb_serial.cpp.o)
 .debug_info    0x000000000002ba03     0x2a24 /var/folders/hj/xvmq845d4rq0_l026j3g6x8c0000gn/T/arduino-core-cache/core_0bde13c9a0eea2bfdc716a2fc04bccd4.a(wirish_time.cpp.o)
 .debug_info    0x000000000002e427       0x37 /var/folders/hj/xvmq845d4rq0_l026j3g6x8c0000gn/T/arduino-core-cache/core_0bde13c9a0eea2bfdc716a2fc04bccd4.a(hooks.c.o)
 .debug_info    0x000000000002e45e      0x4c6 /var/folders/hj/xvmq845d4rq0_l026j3g6x8c0000gn/T/arduino-core-cache/core_0bde13c9a0eea2bfdc716a2fc04bccd4.a(bkp_f1.c.o)
 .debug_info    0x000000000002e924      0x37c /var/folders/hj/xvmq845d4rq0_l026j3g6x8c0000gn/T/arduino-core-cache/core_0bde13c9a0eea2bfdc716a2fc04bccd4.a(gpio.c.o)
 .debug_info    0x000000000002eca0     0x238c /var/folders/hj/xvmq845d4rq0_l026j3g6x8c0000gn/T/arduino-core-cache/core_0bde13c9a0eea2bfdc716a2fc04bccd4.a(i2c.c.o)
 .debug_info    0x000000000003102c      0xd2c /var/folders/hj/xvmq845d4rq0_l026j3g6x8c0000gn/T/arduino-core-cache/core_0bde13c9a0eea2bfdc716a2fc04bccd4.a(usart.c.o)

.debug_abbrev   0x0000000000000000     0x7608
 *(.debug_abbrev)
 .debug_abbrev  0x0000000000000000      0x5fd /var/folders/hj/xvmq845d4rq0_l026j3g6x8c0000gn/T/arduino-sketch-783AC80E8B34696ACA1CC87DB6CF7DB3/sketch/LowMemoryExample.ino.cpp.o
 .debug_abbrev  0x00000000000005fd      0x4b9 /var/folders/hj/xvmq845d4rq0_l026j3g6x8c0000gn/T/arduino-sketch-783AC80E8B34696ACA1CC87DB6CF7DB3/libraries/CorePartition/CorePartition.c.o
 .debug_abbrev  0x0000000000000ab6       0x14 /var/folders/hj/xvmq845d4rq0_l026j3g6x8c0000gn/T/arduino-sketch-783AC80E8B34696ACA1CC87DB6CF7DB3/core/wirish/start.S.o
 .debug_abbrev  0x0000000000000aca      0x106 /var/folders/hj/xvmq845d4rq0_l026j3g6x8c0000gn/T/arduino-sketch-783AC80E8B34696ACA1CC87DB6CF7DB3/core/wirish/start_c.c.o
 .debug_abbrev  0x0000000000000bd0      0x312 /var/folders/hj/xvmq845d4rq0_l026j3g6x8c0000gn/T/arduino-sketch-783AC80E8B34696ACA1CC87DB6CF7DB3/core/wirish/syscalls.c.o
 .debug_abbrev  0x0000000000000ee2      0x3b0 /var/folders/hj/xvmq845d4rq0_l026j3g6x8c0000gn/T/arduino-sketch-783AC80E8B34696ACA1CC87DB6CF7DB3/core/board.cpp.o
 .debug_abbrev  0x0000000000001292      0x37e /var/folders/hj/xvmq845d4rq0_l026j3g6x8c0000gn/T/arduino-sketch-783AC80E8B34696ACA1CC87DB6CF7DB3/core/wirish/boards.cpp.o
 .debug_abbrev  0x0000000000001610      0x41b /var/folders/hj/xvmq845d4rq0_l026j3g6x8c0000gn/T/arduino-sketch-783AC80E8B34696ACA1CC87DB6CF7DB3/core/wirish/boards_setup.cpp.o
 .debug_abbrev  0x0000000000001a2b       0x14 /var/folders/hj/xvmq845d4rq0_l026j3g6x8c0000gn/T/arduino-core-cache/core_0bde13c9a0eea2bfdc716a2fc04bccd4.a(exc.S.o)
 .debug_abbrev  0x0000000000001a3f       0x14 /var/folders/hj/xvmq845d4rq0_l026j3g6x8c0000gn/T/arduino-core-cache/core_0bde13c9a0eea2bfdc716a2fc04bccd4.a(isrs.S.o)
 .debug_abbrev  0x0000000000001a53      0x215 /var/folders/hj/xvmq845d4rq0_l026j3g6x8c0000gn/T/arduino-core-cache/core_0bde13c9a0eea2bfdc716a2fc04bccd4.a(adc.c.o)
 .debug_abbrev  0x0000000000001c68      0x360 /var/folders/hj/xvmq845d4rq0_l026j3g6x8c0000gn/T/arduino-core-cache/core_0bde13c9a0eea2bfdc716a2fc04bccd4.a(adc_f1.c.o)
 .debug_abbrev  0x0000000000001fc8      0x41a /var/folders/hj/xvmq845d4rq0_l026j3g6x8c0000gn/T/arduino-core-cache/core_0bde13c9a0eea2bfdc716a2fc04bccd4.a(dma_f1.c.o)
 .debug_abbrev  0x00000000000023e2      0x326 /var/folders/hj/xvmq845d4rq0_l026j3g6x8c0000gn/T/arduino-core-cache/core_0bde13c9a0eea2bfdc716a2fc04bccd4.a(exti.c.o)
 .debug_abbrev  0x0000000000002708       0xa1 /var/folders/hj/xvmq845d4rq0_l026j3g6x8c0000gn/T/arduino-core-cache/core_0bde13c9a0eea2bfdc716a2fc04bccd4.a(flash.c.o)
 .debug_abbrev  0x00000000000027a9      0x1a0 /var/folders/hj/xvmq845d4rq0_l026j3g6x8c0000gn/T/arduino-core-cache/core_0bde13c9a0eea2bfdc716a2fc04bccd4.a(gpio_f1.c.o)
 .debug_abbrev  0x0000000000002949      0x20e /var/folders/hj/xvmq845d4rq0_l026j3g6x8c0000gn/T/arduino-core-cache/core_0bde13c9a0eea2bfdc716a2fc04bccd4.a(i2c_f1.c.o)
 .debug_abbrev  0x0000000000002b57      0x1ab /var/folders/hj/xvmq845d4rq0_l026j3g6x8c0000gn/T/arduino-core-cache/core_0bde13c9a0eea2bfdc716a2fc04bccd4.a(nvic.c.o)
 .debug_abbrev  0x0000000000002d02      0x1bb /var/folders/hj/xvmq845d4rq0_l026j3g6x8c0000gn/T/arduino-core-cache/core_0bde13c9a0eea2bfdc716a2fc04bccd4.a(rcc.c.o)
 .debug_abbrev  0x0000000000002ebd      0x273 /var/folders/hj/xvmq845d4rq0_l026j3g6x8c0000gn/T/arduino-core-cache/core_0bde13c9a0eea2bfdc716a2fc04bccd4.a(rcc_f1.c.o)
 .debug_abbrev  0x0000000000003130      0x11b /var/folders/hj/xvmq845d4rq0_l026j3g6x8c0000gn/T/arduino-core-cache/core_0bde13c9a0eea2bfdc716a2fc04bccd4.a(systick.c.o)
 .debug_abbrev  0x000000000000324b      0x47d /var/folders/hj/xvmq845d4rq0_l026j3g6x8c0000gn/T/arduino-core-cache/core_0bde13c9a0eea2bfdc716a2fc04bccd4.a(timer.c.o)
 .debug_abbrev  0x00000000000036c8      0x2e2 /var/folders/hj/xvmq845d4rq0_l026j3g6x8c0000gn/T/arduino-core-cache/core_0bde13c9a0eea2bfdc716a2fc04bccd4.a(usart_f1.c.o)
 .debug_abbrev  0x00000000000039aa      0x378 /var/folders/hj/xvmq845d4rq0_l026j3g6x8c0000gn/T/arduino-core-cache/core_0bde13c9a0eea2bfdc716a2fc04bccd4.a(usb.c.o)
 .debug_abbrev  0x0000000000003d22      0x4df /var/folders/hj/xvmq845d4rq0_l026j3g6x8c0000gn/T/arduino-core-cache/core_0bde13c9a0eea2bfdc716a2fc04bccd4.a(usb_cdcacm.c.o)
 .debug_abbrev  0x0000000000004201      0x197 /var/folders/hj/xvmq845d4rq0_l026j3g6x8c0000gn/T/arduino-core-cache/core_0bde13c9a0eea2bfdc716a2fc04bccd4.a(usb_reg_map.c.o)
 .debug_abbrev  0x0000000000004398      0x414 /var/folders/hj/xvmq845d4rq0_l026j3g6x8c0000gn/T/arduino-core-cache/core_0bde13c9a0eea2bfdc716a2fc04bccd4.a(usb_core.c.o)
 .debug_abbrev  0x00000000000047ac      0x118 /var/folders/hj/xvmq845d4rq0_l026j3g6x8c0000gn/T/arduino-core-cache/core_0bde13c9a0eea2bfdc716a2fc04bccd4.a(usb_init.c.o)
 .debug_abbrev  0x00000000000048c4      0x15a /var/folders/hj/xvmq845d4rq0_l026j3g6x8c0000gn/T/arduino-core-cache/core_0bde13c9a0eea2bfdc716a2fc04bccd4.a(usb_mem.c.o)
 .debug_abbrev  0x0000000000004a1e      0x2f4 /var/folders/hj/xvmq845d4rq0_l026j3g6x8c0000gn/T/arduino-core-cache/core_0bde13c9a0eea2bfdc716a2fc04bccd4.a(usb_regs.c.o)
 .debug_abbrev  0x0000000000004d12      0x2e4 /var/folders/hj/xvmq845d4rq0_l026j3g6x8c0000gn/T/arduino-core-cache/core_0bde13c9a0eea2bfdc716a2fc04bccd4.a(util.c.o)
 .debug_abbrev  0x0000000000004ff6      0x684 /var/folders/hj/xvmq845d4rq0_l026j3g6x8c0000gn/T/arduino-core-cache/core_0bde13c9a0eea2bfdc716a2fc04bccd4.a(HardwareSerial.cpp.o)
 .debug_abbrev  0x000000000000567a      0x6a4 /var/folders/hj/xvmq845d4rq0_l026j3g6x8c0000gn/T/arduino-core-cache/core_0bde13c9a0eea2bfdc716a2fc04bccd4.a(Print.cpp.o)
 .debug_abbrev  0x0000000000005d1e       0x7f /var/folders/hj/xvmq845d4rq0_l026j3g6x8c0000gn/T/arduino-core-cache/core_0bde13c9a0eea2bfdc716a2fc04bccd4.a(main.cpp.o)
 .debug_abbrev  0x0000000000005d9d      0x856 /var/folders/hj/xvmq845d4rq0_l026j3g6x8c0000gn/T/arduino-core-cache/core_0bde13c9a0eea2bfdc716a2fc04bccd4.a(usb_serial.cpp.o)
 .debug_abbrev  0x00000000000065f3      0x4c9 /var/folders/hj/xvmq845d4rq0_l026j3g6x8c0000gn/T/arduino-core-cache/core_0bde13c9a0eea2bfdc716a2fc04bccd4.a(wirish_time.cpp.o)
 .debug_abbrev  0x0000000000006abc       0x28 /var/folders/hj/xvmq845d4rq0_l026j3g6x8c0000gn/T/arduino-core-cache/core_0bde13c9a0eea2bfdc716a2fc04bccd4.a(hooks.c.o)
 .debug_abbrev  0x0000000000006ae4      0x1c1 /var/folders/hj/xvmq845d4rq0_l026j3g6x8c0000gn/T/arduino-core-cache/core_0bde13c9a0eea2bfdc716a2fc04bccd4.a(bkp_f1.c.o)
 .debug_abbrev  0x0000000000006ca5      0x11b /var/folders/hj/xvmq845d4rq0_l026j3g6x8c0000gn/T/arduino-core-cache/core_0bde13c9a0eea2bfdc716a2fc04bccd4.a(gpio.c.o)
 .debug_abbrev  0x0000000000006dc0      0x508 /var/folders/hj/xvmq845d4rq0_l026j3g6x8c0000gn/T/arduino-core-cache/core_0bde13c9a0eea2bfdc716a2fc04bccd4.a(i2c.c.o)
 .debug_abbrev  0x00000000000072c8      0x340 /var/folders/hj/xvmq845d4rq0_l026j3g6x8c0000gn/T/arduino-core-cache/core_0bde13c9a0eea2bfdc716a2fc04bccd4.a(usart.c.o)

.debug_line     0x0000000000000000     0xc002
 *(.debug_line)
 .debug_line    0x0000000000000000      0x974 /var/folders/hj/xvmq845d4rq0_l026j3g6x8c0000gn/T/arduino-sketch-783AC80E8B34696ACA1CC87DB6CF7DB3/sketch/LowMemoryExample.ino.cpp.o
 .debug_line    0x0000000000000974      0xa76 /var/folders/hj/xvmq845d4rq0_l026j3g6x8c0000gn/T/arduino-sketch-783AC80E8B34696ACA1CC87DB6CF7DB3/libraries/CorePartition/CorePartition.c.o
 .debug_line    0x00000000000013ea       0xa0 /var/folders/hj/xvmq845d4rq0_l026j3g6x8c0000gn/T/arduino-sketch-783AC80E8B34696ACA1CC87DB6CF7DB3/core/wirish/start.S.o
 .debug_line    0x000000000000148a       0xb8 /var/folders/hj/xvmq845d4rq0_l026j3g6x8c0000gn/T/arduino-sketch-783AC80E8B34696ACA1CC87DB6CF7DB3/core/wirish/start_c.c.o
 .debug_line    0x0000000000001542      0x409 /var/folders/hj/xvmq845d4rq0_l026j3g6x8c0000gn/T/arduino-sketch-783AC80E8B34696ACA1CC87DB6CF7DB3/core/wirish/syscalls.c.o
 .debug_line    0x000000000000194b      0x663 /var/folders/hj/xvmq845d4rq0_l026j3g6x8c0000gn/T/arduino-sketch-783AC80E8B34696ACA1CC87DB6CF7DB3/core/board.cpp.o
 .debug_line    0x0000000000001fae      0x4c7 /var/folders/hj/xvmq845d4rq0_l026j3g6x8c0000gn/T/arduino-sketch-783AC80E8B34696ACA1CC87DB6CF7DB3/core/wirish/boards.cpp.o
 .debug_line    0x0000000000002475      0x6b1 /var/folders/hj/xvmq845d4rq0_l026j3g6x8c0000gn/T/arduino-sketch-783AC80E8B34696ACA1CC87DB6CF7DB3/core/wirish/boards_setup.cpp.o
 .debug_line    0x0000000000002b26       0xa3 /var/folders/hj/xvmq845d4rq0_l026j3g6x8c0000gn/T/arduino-core-cache/core_0bde13c9a0eea2bfdc716a2fc04bccd4.a(exc.S.o)
 .debug_line    0x0000000000002bc9       0xa0 /var/folders/hj/xvmq845d4rq0_l026j3g6x8c0000gn/T/arduino-core-cache/core_0bde13c9a0eea2bfdc716a2fc04bccd4.a(isrs.S.o)
 .debug_line    0x0000000000002c69      0x302 /var/folders/hj/xvmq845d4rq0_l026j3g6x8c0000gn/T/arduino-core-cache/core_0bde13c9a0eea2bfdc716a2fc04bccd4.a(adc.c.o)
 .debug_line    0x0000000000002f6b      0x3f5 /var/folders/hj/xvmq845d4rq0_l026j3g6x8c0000gn/T/arduino-core-cache/core_0bde13c9a0eea2bfdc716a2fc04bccd4.a(adc_f1.c.o)
 .debug_line    0x0000000000003360      0x71b /var/folders/hj/xvmq845d4rq0_l026j3g6x8c0000gn/T/arduino-core-cache/core_0bde13c9a0eea2bfdc716a2fc04bccd4.a(dma_f1.c.o)
 .debug_line    0x0000000000003a7b      0x535 /var/folders/hj/xvmq845d4rq0_l026j3g6x8c0000gn/T/arduino-core-cache/core_0bde13c9a0eea2bfdc716a2fc04bccd4.a(exti.c.o)
 .debug_line    0x0000000000003fb0      0x27c /var/folders/hj/xvmq845d4rq0_l026j3g6x8c0000gn/T/arduino-core-cache/core_0bde13c9a0eea2bfdc716a2fc04bccd4.a(flash.c.o)
 .debug_line    0x000000000000422c      0x330 /var/folders/hj/xvmq845d4rq0_l026j3g6x8c0000gn/T/arduino-core-cache/core_0bde13c9a0eea2bfdc716a2fc04bccd4.a(gpio_f1.c.o)
 .debug_line    0x000000000000455c      0x3e1 /var/folders/hj/xvmq845d4rq0_l026j3g6x8c0000gn/T/arduino-core-cache/core_0bde13c9a0eea2bfdc716a2fc04bccd4.a(i2c_f1.c.o)
 .debug_line    0x000000000000493d      0x2f3 /var/folders/hj/xvmq845d4rq0_l026j3g6x8c0000gn/T/arduino-core-cache/core_0bde13c9a0eea2bfdc716a2fc04bccd4.a(nvic.c.o)
 .debug_line    0x0000000000004c30      0x384 /var/folders/hj/xvmq845d4rq0_l026j3g6x8c0000gn/T/arduino-core-cache/core_0bde13c9a0eea2bfdc716a2fc04bccd4.a(rcc.c.o)
 .debug_line    0x0000000000004fb4      0x3fa /var/folders/hj/xvmq845d4rq0_l026j3g6x8c0000gn/T/arduino-core-cache/core_0bde13c9a0eea2bfdc716a2fc04bccd4.a(rcc_f1.c.o)
 .debug_line    0x00000000000053ae      0x26b /var/folders/hj/xvmq845d4rq0_l026j3g6x8c0000gn/T/arduino-core-cache/core_0bde13c9a0eea2bfdc716a2fc04bccd4.a(systick.c.o)
 .debug_line    0x0000000000005619      0x8b8 /var/folders/hj/xvmq845d4rq0_l026j3g6x8c0000gn/T/arduino-core-cache/core_0bde13c9a0eea2bfdc716a2fc04bccd4.a(timer.c.o)
 .debug_line    0x0000000000005ed1      0x567 /var/folders/hj/xvmq845d4rq0_l026j3g6x8c0000gn/T/arduino-core-cache/core_0bde13c9a0eea2bfdc716a2fc04bccd4.a(usart_f1.c.o)
 .debug_line    0x0000000000006438      0x58f /var/folders/hj/xvmq845d4rq0_l026j3g6x8c0000gn/T/arduino-core-cache/core_0bde13c9a0eea2bfdc716a2fc04bccd4.a(usb.c.o)
 .debug_line    0x00000000000069c7      0x945 /var/folders/hj/xvmq845d4rq0_l026j3g6x8c0000gn/T/arduino-core-cache/core_0bde13c9a0eea2bfdc716a2fc04bccd4.a(usb_cdcacm.c.o)
 .debug_line    0x000000000000730c      0x2b4 /var/folders/hj/xvmq845d4rq0_l026j3g6x8c0000gn/T/arduino-core-cache/core_0bde13c9a0eea2bfdc716a2fc04bccd4.a(usb_reg_map.c.o)
 .debug_line    0x00000000000075c0      0x546 /var/folders/hj/xvmq845d4rq0_l026j3g6x8c0000gn/T/arduino-core-cache/core_0bde13c9a0eea2bfdc716a2fc04bccd4.a(usb_core.c.o)
 .debug_line    0x0000000000007b06      0x13d /var/folders/hj/xvmq845d4rq0_l026j3g6x8c0000gn/T/arduino-core-cache/core_0bde13c9a0eea2bfdc716a2fc04bccd4.a(usb_init.c.o)
 .debug_line    0x0000000000007c43      0x179 /var/folders/hj/xvmq845d4rq0_l026j3g6x8c0000gn/T/arduino-core-cache/core_0bde13c9a0eea2bfdc716a2fc04bccd4.a(usb_mem.c.o)
 .debug_line    0x0000000000007dbc      0x56e /var/folders/hj/xvmq845d4rq0_l026j3g6x8c0000gn/T/arduino-core-cache/core_0bde13c9a0eea2bfdc716a2fc04bccd4.a(usb_regs.c.o)
 .debug_line    0x000000000000832a      0x38b /var/folders/hj/xvmq845d4rq0_l026j3g6x8c0000gn/T/arduino-core-cache/core_0bde13c9a0eea2bfdc716a2fc04bccd4.a(util.c.o)
 .debug_line    0x00000000000086b5      0x6f7 /var/folders/hj/xvmq845d4rq0_l026j3g6x8c0000gn/T/arduino-core-cache/core_0bde13c9a0eea2bfdc716a2fc04bccd4.a(HardwareSerial.cpp.o)
 .debug_line    0x0000000000008dac      0xc86 /var/folders/hj/xvmq845d4rq0_l026j3g6x8c0000gn/T/arduino-core-cache/core_0bde13c9a0eea2bfdc716a2fc04bccd4.a(Print.cpp.o)
 .debug_line    0x0000000000009a32       0x9b /var/folders/hj/xvmq845d4rq0_l026j3g6x8c0000gn/T/arduino-core-cache/core_0bde13c9a0eea2bfdc716a2fc04bccd4.a(main.cpp.o)
 .debug_line    0x0000000000009acd      0x95d /var/folders/hj/xvmq845d4rq0_l026j3g6x8c0000gn/T/arduino-core-cache/core_0bde13c9a0eea2bfdc716a2fc04bccd4.a(usb_serial.cpp.o)
 .debug_line    0x000000000000a42a      0x6b6 /var/folders/hj/xvmq845d4rq0_l026j3g6x8c0000gn/T/arduino-core-cache/core_0bde13c9a0eea2bfdc716a2fc04bccd4.a(wirish_time.cpp.o)
 .debug_line    0x000000000000aae0       0x85 /var/folders/hj/xvmq845d4rq0_l026j3g6x8c0000gn/T/arduino-core-cache/core_0bde13c9a0eea2bfdc716a2fc04bccd4.a(hooks.c.o)
 .debug_line    0x000000000000ab65      0x2f6 /var/folders/hj/xvmq845d4rq0_l026j3g6x8c0000gn/T/arduino-core-cache/core_0bde13c9a0eea2bfdc716a2fc04bccd4.a(bkp_f1.c.o)
 .debug_line    0x000000000000ae5b      0x2a0 /var/folders/hj/xvmq845d4rq0_l026j3g6x8c0000gn/T/arduino-core-cache/core_0bde13c9a0eea2bfdc716a2fc04bccd4.a(gpio.c.o)
 .debug_line    0x000000000000b0fb      0xa7a /var/folders/hj/xvmq845d4rq0_l026j3g6x8c0000gn/T/arduino-core-cache/core_0bde13c9a0eea2bfdc716a2fc04bccd4.a(i2c.c.o)
 .debug_line    0x000000000000bb75      0x48d /var/folders/hj/xvmq845d4rq0_l026j3g6x8c0000gn/T/arduino-core-cache/core_0bde13c9a0eea2bfdc716a2fc04bccd4.a(usart.c.o)

.debug_frame    0x0000000000000000     0x302c
 *(.debug_frame)
 .debug_frame   0x0000000000000000      0x1d8 /var/folders/hj/xvmq845d4rq0_l026j3g6x8c0000gn/T/arduino-sketch-783AC80E8B34696ACA1CC87DB6CF7DB3/sketch/LowMemoryExample.ino.cpp.o
 .debug_frame   0x00000000000001d8      0x430 /var/folders/hj/xvmq845d4rq0_l026j3g6x8c0000gn/T/arduino-sketch-783AC80E8B34696ACA1CC87DB6CF7DB3/libraries/CorePartition/CorePartition.c.o
 .debug_frame   0x0000000000000608       0x28 /var/folders/hj/xvmq845d4rq0_l026j3g6x8c0000gn/T/arduino-sketch-783AC80E8B34696ACA1CC87DB6CF7DB3/core/wirish/start_c.c.o
 .debug_frame   0x0000000000000630      0x134 /var/folders/hj/xvmq845d4rq0_l026j3g6x8c0000gn/T/arduino-sketch-783AC80E8B34696ACA1CC87DB6CF7DB3/core/wirish/syscalls.c.o
 .debug_frame   0x0000000000000764       0x3c /var/folders/hj/xvmq845d4rq0_l026j3g6x8c0000gn/T/arduino-sketch-783AC80E8B34696ACA1CC87DB6CF7DB3/core/board.cpp.o
 .debug_frame   0x00000000000007a0       0x88 /var/folders/hj/xvmq845d4rq0_l026j3g6x8c0000gn/T/arduino-sketch-783AC80E8B34696ACA1CC87DB6CF7DB3/core/wirish/boards.cpp.o
 .debug_frame   0x0000000000000828       0x80 /var/folders/hj/xvmq845d4rq0_l026j3g6x8c0000gn/T/arduino-sketch-783AC80E8B34696ACA1CC87DB6CF7DB3/core/wirish/boards_setup.cpp.o
 .debug_frame   0x00000000000008a8       0x6c /var/folders/hj/xvmq845d4rq0_l026j3g6x8c0000gn/T/arduino-core-cache/core_0bde13c9a0eea2bfdc716a2fc04bccd4.a(adc.c.o)
 .debug_frame   0x0000000000000914       0xd8 /var/folders/hj/xvmq845d4rq0_l026j3g6x8c0000gn/T/arduino-core-cache/core_0bde13c9a0eea2bfdc716a2fc04bccd4.a(adc_f1.c.o)
 .debug_frame   0x00000000000009ec      0x1d0 /var/folders/hj/xvmq845d4rq0_l026j3g6x8c0000gn/T/arduino-core-cache/core_0bde13c9a0eea2bfdc716a2fc04bccd4.a(dma_f1.c.o)
 .debug_frame   0x0000000000000bbc      0x180 /var/folders/hj/xvmq845d4rq0_l026j3g6x8c0000gn/T/arduino-core-cache/core_0bde13c9a0eea2bfdc716a2fc04bccd4.a(exti.c.o)
 .debug_frame   0x0000000000000d3c       0x20 /var/folders/hj/xvmq845d4rq0_l026j3g6x8c0000gn/T/arduino-core-cache/core_0bde13c9a0eea2bfdc716a2fc04bccd4.a(flash.c.o)
 .debug_frame   0x0000000000000d5c       0x9c /var/folders/hj/xvmq845d4rq0_l026j3g6x8c0000gn/T/arduino-core-cache/core_0bde13c9a0eea2bfdc716a2fc04bccd4.a(gpio_f1.c.o)
 .debug_frame   0x0000000000000df8       0xa8 /var/folders/hj/xvmq845d4rq0_l026j3g6x8c0000gn/T/arduino-core-cache/core_0bde13c9a0eea2bfdc716a2fc04bccd4.a(i2c_f1.c.o)
 .debug_frame   0x0000000000000ea0       0x5c /var/folders/hj/xvmq845d4rq0_l026j3g6x8c0000gn/T/arduino-core-cache/core_0bde13c9a0eea2bfdc716a2fc04bccd4.a(nvic.c.o)
 .debug_frame   0x0000000000000efc       0x7c /var/folders/hj/xvmq845d4rq0_l026j3g6x8c0000gn/T/arduino-core-cache/core_0bde13c9a0eea2bfdc716a2fc04bccd4.a(rcc.c.o)
 .debug_frame   0x0000000000000f78       0xa4 /var/folders/hj/xvmq845d4rq0_l026j3g6x8c0000gn/T/arduino-core-cache/core_0bde13c9a0eea2bfdc716a2fc04bccd4.a(rcc_f1.c.o)
 .debug_frame   0x000000000000101c       0x60 /var/folders/hj/xvmq845d4rq0_l026j3g6x8c0000gn/T/arduino-core-cache/core_0bde13c9a0eea2bfdc716a2fc04bccd4.a(systick.c.o)
 .debug_frame   0x000000000000107c      0x2b0 /var/folders/hj/xvmq845d4rq0_l026j3g6x8c0000gn/T/arduino-core-cache/core_0bde13c9a0eea2bfdc716a2fc04bccd4.a(timer.c.o)
 .debug_frame   0x000000000000132c       0xe8 /var/folders/hj/xvmq845d4rq0_l026j3g6x8c0000gn/T/arduino-core-cache/core_0bde13c9a0eea2bfdc716a2fc04bccd4.a(usart_f1.c.o)
 .debug_frame   0x0000000000001414       0xa8 /var/folders/hj/xvmq845d4rq0_l026j3g6x8c0000gn/T/arduino-core-cache/core_0bde13c9a0eea2bfdc716a2fc04bccd4.a(usb.c.o)
 .debug_frame   0x00000000000014bc      0x334 /var/folders/hj/xvmq845d4rq0_l026j3g6x8c0000gn/T/arduino-core-cache/core_0bde13c9a0eea2bfdc716a2fc04bccd4.a(usb_cdcacm.c.o)
 .debug_frame   0x00000000000017f0       0x20 /var/folders/hj/xvmq845d4rq0_l026j3g6x8c0000gn/T/arduino-core-cache/core_0bde13c9a0eea2bfdc716a2fc04bccd4.a(usb_reg_map.c.o)
 .debug_frame   0x0000000000001810      0x1c8 /var/folders/hj/xvmq845d4rq0_l026j3g6x8c0000gn/T/arduino-core-cache/core_0bde13c9a0eea2bfdc716a2fc04bccd4.a(usb_core.c.o)
 .debug_frame   0x00000000000019d8       0x2c /var/folders/hj/xvmq845d4rq0_l026j3g6x8c0000gn/T/arduino-core-cache/core_0bde13c9a0eea2bfdc716a2fc04bccd4.a(usb_init.c.o)
 .debug_frame   0x0000000000001a04       0x44 /var/folders/hj/xvmq845d4rq0_l026j3g6x8c0000gn/T/arduino-core-cache/core_0bde13c9a0eea2bfdc716a2fc04bccd4.a(usb_mem.c.o)
 .debug_frame   0x0000000000001a48      0x3f0 /var/folders/hj/xvmq845d4rq0_l026j3g6x8c0000gn/T/arduino-core-cache/core_0bde13c9a0eea2bfdc716a2fc04bccd4.a(usb_regs.c.o)
 .debug_frame   0x0000000000001e38       0xb0 /var/folders/hj/xvmq845d4rq0_l026j3g6x8c0000gn/T/arduino-core-cache/core_0bde13c9a0eea2bfdc716a2fc04bccd4.a(util.c.o)
 .debug_frame   0x0000000000001ee8      0x140 /var/folders/hj/xvmq845d4rq0_l026j3g6x8c0000gn/T/arduino-core-cache/core_0bde13c9a0eea2bfdc716a2fc04bccd4.a(HardwareSerial.cpp.o)
 .debug_frame   0x0000000000002028      0x4ec /var/folders/hj/xvmq845d4rq0_l026j3g6x8c0000gn/T/arduino-core-cache/core_0bde13c9a0eea2bfdc716a2fc04bccd4.a(Print.cpp.o)
 .debug_frame   0x0000000000002514       0x38 /var/folders/hj/xvmq845d4rq0_l026j3g6x8c0000gn/T/arduino-core-cache/core_0bde13c9a0eea2bfdc716a2fc04bccd4.a(main.cpp.o)
 .debug_frame   0x000000000000254c      0x290 /var/folders/hj/xvmq845d4rq0_l026j3g6x8c0000gn/T/arduino-core-cache/core_0bde13c9a0eea2bfdc716a2fc04bccd4.a(usb_serial.cpp.o)
 .debug_frame   0x00000000000027dc       0x44 /var/folders/hj/xvmq845d4rq0_l026j3g6x8c0000gn/T/arduino-core-cache/core_0bde13c9a0eea2bfdc716a2fc04bccd4.a(wirish_time.cpp.o)
 .debug_frame   0x0000000000002820       0x20 /var/folders/hj/xvmq845d4rq0_l026j3g6x8c0000gn/T/arduino-core-cache/core_0bde13c9a0eea2bfdc716a2fc04bccd4.a(hooks.c.o)
 .debug_frame   0x0000000000002840       0x6c /var/folders/hj/xvmq845d4rq0_l026j3g6x8c0000gn/T/arduino-core-cache/core_0bde13c9a0eea2bfdc716a2fc04bccd4.a(bkp_f1.c.o)
 .debug_frame   0x00000000000028ac       0x2c /var/folders/hj/xvmq845d4rq0_l026j3g6x8c0000gn/T/arduino-core-cache/core_0bde13c9a0eea2bfdc716a2fc04bccd4.a(gpio.c.o)
 .debug_frame   0x00000000000028d8      0x188 /var/folders/hj/xvmq845d4rq0_l026j3g6x8c0000gn/T/arduino-core-cache/core_0bde13c9a0eea2bfdc716a2fc04bccd4.a(i2c.c.o)
 .debug_frame   0x0000000000002a60       0xc8 /var/folders/hj/xvmq845d4rq0_l026j3g6x8c0000gn/T/arduino-core-cache/core_0bde13c9a0eea2bfdc716a2fc04bccd4.a(usart.c.o)
 .debug_frame   0x0000000000002b28       0x2c /Users/lgcampos/Library/Arduino15/packages/arduino/tools/arm-none-eabi-gcc/7-2017q4/bin/../lib/gcc/arm-none-eabi/7.2.1/thumb/v7-m/libgcc.a(_aeabi_uldivmod.o)
 .debug_frame   0x0000000000002b54       0x34 /Users/lgcampos/Library/Arduino15/packages/arduino/tools/arm-none-eabi-gcc/7-2017q4/bin/../lib/gcc/arm-none-eabi/7.2.1/thumb/v7-m/libgcc.a(_udivmoddi4.o)
 .debug_frame   0x0000000000002b88       0x20 /Users/lgcampos/Library/Arduino15/packages/arduino/tools/arm-none-eabi-gcc/7-2017q4/bin/../lib/gcc/arm-none-eabi/7.2.1/../../../../arm-none-eabi/lib/thumb/v7-m/libc.a(lib_a-calloc.o)
 .debug_frame   0x0000000000002ba8       0x28 /Users/lgcampos/Library/Arduino15/packages/arduino/tools/arm-none-eabi-gcc/7-2017q4/bin/../lib/gcc/arm-none-eabi/7.2.1/../../../../arm-none-eabi/lib/thumb/v7-m/libc.a(lib_a-callocr.o)
 .debug_frame   0x0000000000002bd0       0x20 /Users/lgcampos/Library/Arduino15/packages/arduino/tools/arm-none-eabi-gcc/7-2017q4/bin/../lib/gcc/arm-none-eabi/7.2.1/../../../../arm-none-eabi/lib/thumb/v7-m/libc.a(lib_a-errno.o)
 .debug_frame   0x0000000000002bf0       0x28 /Users/lgcampos/Library/Arduino15/packages/arduino/tools/arm-none-eabi-gcc/7-2017q4/bin/../lib/gcc/arm-none-eabi/7.2.1/../../../../arm-none-eabi/lib/thumb/v7-m/libc.a(lib_a-exit.o)
 .debug_frame   0x0000000000002c18       0x2c /Users/lgcampos/Library/Arduino15/packages/arduino/tools/arm-none-eabi-gcc/7-2017q4/bin/../lib/gcc/arm-none-eabi/7.2.1/../../../../arm-none-eabi/lib/thumb/v7-m/libc.a(lib_a-init.o)
 .debug_frame   0x0000000000002c44       0x30 /Users/lgcampos/Library/Arduino15/packages/arduino/tools/arm-none-eabi-gcc/7-2017q4/bin/../lib/gcc/arm-none-eabi/7.2.1/../../../../arm-none-eabi/lib/thumb/v7-m/libc.a(lib_a-malloc.o)
 .debug_frame   0x0000000000002c74       0x4c /Users/lgcampos/Library/Arduino15/packages/arduino/tools/arm-none-eabi-gcc/7-2017q4/bin/../lib/gcc/arm-none-eabi/7.2.1/../../../../arm-none-eabi/lib/thumb/v7-m/libc.a(lib_a-mallocr.o)
 .debug_frame   0x0000000000002cc0       0x38 /Users/lgcampos/Library/Arduino15/packages/arduino/tools/arm-none-eabi-gcc/7-2017q4/bin/../lib/gcc/arm-none-eabi/7.2.1/../../../../arm-none-eabi/lib/thumb/v7-m/libc.a(lib_a-memset.o)
 .debug_frame   0x0000000000002cf8       0x30 /Users/lgcampos/Library/Arduino15/packages/arduino/tools/arm-none-eabi-gcc/7-2017q4/bin/../lib/gcc/arm-none-eabi/7.2.1/../../../../arm-none-eabi/lib/thumb/v7-m/libc.a(lib_a-mlock.o)
 .debug_frame   0x0000000000002d28       0x3c /Users/lgcampos/Library/Arduino15/packages/arduino/tools/arm-none-eabi-gcc/7-2017q4/bin/../lib/gcc/arm-none-eabi/7.2.1/../../../../arm-none-eabi/lib/thumb/v7-m/libc.a(lib_a-rand.o)
 .debug_frame   0x0000000000002d64       0x2c /Users/lgcampos/Library/Arduino15/packages/arduino/tools/arm-none-eabi-gcc/7-2017q4/bin/../lib/gcc/arm-none-eabi/7.2.1/../../../../arm-none-eabi/lib/thumb/v7-m/libc.a(lib_a-sbrkr.o)
 .debug_frame   0x0000000000002d90       0x20 /Users/lgcampos/Library/Arduino15/packages/arduino/tools/arm-none-eabi-gcc/7-2017q4/bin/../lib/gcc/arm-none-eabi/7.2.1/../../../../arm-none-eabi/lib/thumb/v7-m/libc.a(lib_a-strlen-stub.o)
 .debug_frame   0x0000000000002db0       0x5c /Users/lgcampos/Library/Arduino15/packages/arduino/tools/arm-none-eabi-gcc/7-2017q4/bin/../lib/gcc/arm-none-eabi/7.2.1/../../../../arm-none-eabi/lib/thumb/v7-m/libc.a(lib_a-__call_atexit.o)
 .debug_frame   0x0000000000002e0c       0x20 /Users/lgcampos/Library/Arduino15/packages/arduino/tools/arm-none-eabi-gcc/7-2017q4/bin/../lib/gcc/arm-none-eabi/7.2.1/../../../../arm-none-eabi/lib/thumb/v7-m/libc.a(lib_a-atexit.o)
 .debug_frame   0x0000000000002e2c       0x34 /Users/lgcampos/Library/Arduino15/packages/arduino/tools/arm-none-eabi-gcc/7-2017q4/bin/../lib/gcc/arm-none-eabi/7.2.1/../../../../arm-none-eabi/lib/thumb/v7-m/libc.a(lib_a-fini.o)
 .debug_frame   0x0000000000002e60       0x80 /Users/lgcampos/Library/Arduino15/packages/arduino/tools/arm-none-eabi-gcc/7-2017q4/bin/../lib/gcc/arm-none-eabi/7.2.1/../../../../arm-none-eabi/lib/thumb/v7-m/libc.a(lib_a-freer.o)
 .debug_frame   0x0000000000002ee0       0xb0 /Users/lgcampos/Library/Arduino15/packages/arduino/tools/arm-none-eabi-gcc/7-2017q4/bin/../lib/gcc/arm-none-eabi/7.2.1/../../../../arm-none-eabi/lib/thumb/v7-m/libc.a(lib_a-lock.o)
 .debug_frame   0x0000000000002f90       0x68 /Users/lgcampos/Library/Arduino15/packages/arduino/tools/arm-none-eabi-gcc/7-2017q4/bin/../lib/gcc/arm-none-eabi/7.2.1/../../../../arm-none-eabi/lib/thumb/v7-m/libc.a(lib_a-reent.o)
 .debug_frame   0x0000000000002ff8       0x34 /Users/lgcampos/Library/Arduino15/packages/arduino/tools/arm-none-eabi-gcc/7-2017q4/bin/../lib/gcc/arm-none-eabi/7.2.1/../../../../arm-none-eabi/lib/thumb/v7-m/libc.a(lib_a-__atexit.o)

.debug_str      0x0000000000000000     0x9491
 *(.debug_str)
 .debug_str     0x0000000000000000     0x231e /var/folders/hj/xvmq845d4rq0_l026j3g6x8c0000gn/T/arduino-sketch-783AC80E8B34696ACA1CC87DB6CF7DB3/sketch/LowMemoryExample.ino.cpp.o
                                       0x2556 (size before relaxing)
 .debug_str     0x000000000000231e      0x5bc /var/folders/hj/xvmq845d4rq0_l026j3g6x8c0000gn/T/arduino-sketch-783AC80E8B34696ACA1CC87DB6CF7DB3/libraries/CorePartition/CorePartition.c.o
                                        0xe0f (size before relaxing)
 .debug_str     0x00000000000028da       0x7b /var/folders/hj/xvmq845d4rq0_l026j3g6x8c0000gn/T/arduino-sketch-783AC80E8B34696ACA1CC87DB6CF7DB3/core/wirish/start.S.o
                                         0xaa (size before relaxing)
 .debug_str     0x0000000000002955       0xf6 /var/folders/hj/xvmq845d4rq0_l026j3g6x8c0000gn/T/arduino-sketch-783AC80E8B34696ACA1CC87DB6CF7DB3/core/wirish/start_c.c.o
                                        0x22f (size before relaxing)
 .debug_str     0x0000000000002a4b      0x225 /var/folders/hj/xvmq845d4rq0_l026j3g6x8c0000gn/T/arduino-sketch-783AC80E8B34696ACA1CC87DB6CF7DB3/core/wirish/syscalls.c.o
                                        0x813 (size before relaxing)
 .debug_str     0x0000000000002c70      0x204 /var/folders/hj/xvmq845d4rq0_l026j3g6x8c0000gn/T/arduino-sketch-783AC80E8B34696ACA1CC87DB6CF7DB3/core/board.cpp.o
                                       0x12a4 (size before relaxing)
 .debug_str     0x0000000000002e74      0x773 /var/folders/hj/xvmq845d4rq0_l026j3g6x8c0000gn/T/arduino-sketch-783AC80E8B34696ACA1CC87DB6CF7DB3/core/wirish/boards.cpp.o
                                       0x12f7 (size before relaxing)
 .debug_str     0x00000000000035e7      0x517 /var/folders/hj/xvmq845d4rq0_l026j3g6x8c0000gn/T/arduino-sketch-783AC80E8B34696ACA1CC87DB6CF7DB3/core/wirish/boards_setup.cpp.o
                                       0x185d (size before relaxing)
 .debug_str     0x0000000000003afe       0x5c /var/folders/hj/xvmq845d4rq0_l026j3g6x8c0000gn/T/arduino-core-cache/core_0bde13c9a0eea2bfdc716a2fc04bccd4.a(exc.S.o)
                                         0x9a (size before relaxing)
 .debug_str     0x0000000000003b5a       0x71 /var/folders/hj/xvmq845d4rq0_l026j3g6x8c0000gn/T/arduino-core-cache/core_0bde13c9a0eea2bfdc716a2fc04bccd4.a(isrs.S.o)
                                         0xaf (size before relaxing)
 .debug_str     0x0000000000003bcb      0x211 /var/folders/hj/xvmq845d4rq0_l026j3g6x8c0000gn/T/arduino-core-cache/core_0bde13c9a0eea2bfdc716a2fc04bccd4.a(adc.c.o)
                                        0xafb (size before relaxing)
 .debug_str     0x0000000000003ddc      0x15e /var/folders/hj/xvmq845d4rq0_l026j3g6x8c0000gn/T/arduino-core-cache/core_0bde13c9a0eea2bfdc716a2fc04bccd4.a(adc_f1.c.o)
                                        0xe32 (size before relaxing)
 .debug_str     0x0000000000003f3a      0xabf /var/folders/hj/xvmq845d4rq0_l026j3g6x8c0000gn/T/arduino-core-cache/core_0bde13c9a0eea2bfdc716a2fc04bccd4.a(dma_f1.c.o)
                                       0x13aa (size before relaxing)
 .debug_str     0x00000000000049f9      0x225 /var/folders/hj/xvmq845d4rq0_l026j3g6x8c0000gn/T/arduino-core-cache/core_0bde13c9a0eea2bfdc716a2fc04bccd4.a(exti.c.o)
                                        0x946 (size before relaxing)
 .debug_str     0x0000000000004c1e       0x6a /var/folders/hj/xvmq845d4rq0_l026j3g6x8c0000gn/T/arduino-core-cache/core_0bde13c9a0eea2bfdc716a2fc04bccd4.a(flash.c.o)
                                        0x234 (size before relaxing)
 .debug_str     0x0000000000004c88      0x2db /var/folders/hj/xvmq845d4rq0_l026j3g6x8c0000gn/T/arduino-core-cache/core_0bde13c9a0eea2bfdc716a2fc04bccd4.a(gpio_f1.c.o)
                                        0x7ec (size before relaxing)
 .debug_str     0x0000000000004f63      0x2c6 /var/folders/hj/xvmq845d4rq0_l026j3g6x8c0000gn/T/arduino-core-cache/core_0bde13c9a0eea2bfdc716a2fc04bccd4.a(i2c_f1.c.o)
                                        0xe07 (size before relaxing)
 .debug_str     0x0000000000005229       0xd2 /var/folders/hj/xvmq845d4rq0_l026j3g6x8c0000gn/T/arduino-core-cache/core_0bde13c9a0eea2bfdc716a2fc04bccd4.a(nvic.c.o)
                                        0x734 (size before relaxing)
 .debug_str     0x00000000000052fb       0xfd /var/folders/hj/xvmq845d4rq0_l026j3g6x8c0000gn/T/arduino-core-cache/core_0bde13c9a0eea2bfdc716a2fc04bccd4.a(rcc.c.o)
                                        0x589 (size before relaxing)
 .debug_str     0x00000000000053f8       0xf1 /var/folders/hj/xvmq845d4rq0_l026j3g6x8c0000gn/T/arduino-core-cache/core_0bde13c9a0eea2bfdc716a2fc04bccd4.a(rcc_f1.c.o)
                                        0x821 (size before relaxing)
 .debug_str     0x00000000000054e9       0xd6 /var/folders/hj/xvmq845d4rq0_l026j3g6x8c0000gn/T/arduino-core-cache/core_0bde13c9a0eea2bfdc716a2fc04bccd4.a(systick.c.o)
                                        0x29a (size before relaxing)
 .debug_str     0x00000000000055bf      0x315 /var/folders/hj/xvmq845d4rq0_l026j3g6x8c0000gn/T/arduino-core-cache/core_0bde13c9a0eea2bfdc716a2fc04bccd4.a(timer.c.o)
                                        0xeda (size before relaxing)
 .debug_str     0x00000000000058d4      0x199 /var/folders/hj/xvmq845d4rq0_l026j3g6x8c0000gn/T/arduino-core-cache/core_0bde13c9a0eea2bfdc716a2fc04bccd4.a(usart_f1.c.o)
                                        0xb1b (size before relaxing)
 .debug_str     0x0000000000005a6d      0x647 /var/folders/hj/xvmq845d4rq0_l026j3g6x8c0000gn/T/arduino-core-cache/core_0bde13c9a0eea2bfdc716a2fc04bccd4.a(usb.c.o)
                                        0xacd (size before relaxing)
 .debug_str     0x00000000000060b4      0x95d /var/folders/hj/xvmq845d4rq0_l026j3g6x8c0000gn/T/arduino-core-cache/core_0bde13c9a0eea2bfdc716a2fc04bccd4.a(usb_cdcacm.c.o)
                                       0x18b9 (size before relaxing)
 .debug_str     0x0000000000006a11       0x93 /var/folders/hj/xvmq845d4rq0_l026j3g6x8c0000gn/T/arduino-core-cache/core_0bde13c9a0eea2bfdc716a2fc04bccd4.a(usb_reg_map.c.o)
                                        0x2b4 (size before relaxing)
 .debug_str     0x0000000000006aa4      0x4bb /var/folders/hj/xvmq845d4rq0_l026j3g6x8c0000gn/T/arduino-core-cache/core_0bde13c9a0eea2bfdc716a2fc04bccd4.a(usb_core.c.o)
                                        0xb40 (size before relaxing)
 .debug_str     0x0000000000006f5f       0x76 /var/folders/hj/xvmq845d4rq0_l026j3g6x8c0000gn/T/arduino-core-cache/core_0bde13c9a0eea2bfdc716a2fc04bccd4.a(usb_init.c.o)
                                        0x5b4 (size before relaxing)
 .debug_str     0x0000000000006fd5       0xa4 /var/folders/hj/xvmq845d4rq0_l026j3g6x8c0000gn/T/arduino-core-cache/core_0bde13c9a0eea2bfdc716a2fc04bccd4.a(usb_mem.c.o)
                                        0x60a (size before relaxing)
 .debug_str     0x0000000000007079      0x3dd /var/folders/hj/xvmq845d4rq0_l026j3g6x8c0000gn/T/arduino-core-cache/core_0bde13c9a0eea2bfdc716a2fc04bccd4.a(usb_regs.c.o)
                                        0x98a (size before relaxing)
 .debug_str     0x0000000000007456      0x10e /var/folders/hj/xvmq845d4rq0_l026j3g6x8c0000gn/T/arduino-core-cache/core_0bde13c9a0eea2bfdc716a2fc04bccd4.a(util.c.o)
                                        0xaa2 (size before relaxing)
 .debug_str     0x0000000000007564     0x124c /var/folders/hj/xvmq845d4rq0_l026j3g6x8c0000gn/T/arduino-core-cache/core_0bde13c9a0eea2bfdc716a2fc04bccd4.a(HardwareSerial.cpp.o)
                                       0x24ab (size before relaxing)
 .debug_str     0x00000000000087b0      0x321 /var/folders/hj/xvmq845d4rq0_l026j3g6x8c0000gn/T/arduino-core-cache/core_0bde13c9a0eea2bfdc716a2fc04bccd4.a(Print.cpp.o)
                                       0x1869 (size before relaxing)
 .debug_str     0x0000000000008ad1       0x6a /var/folders/hj/xvmq845d4rq0_l026j3g6x8c0000gn/T/arduino-core-cache/core_0bde13c9a0eea2bfdc716a2fc04bccd4.a(main.cpp.o)
                                        0x1dd (size before relaxing)
 .debug_str     0x0000000000008b3b      0x46d /var/folders/hj/xvmq845d4rq0_l026j3g6x8c0000gn/T/arduino-core-cache/core_0bde13c9a0eea2bfdc716a2fc04bccd4.a(usb_serial.cpp.o)
                                       0x3490 (size before relaxing)
 .debug_str     0x0000000000008fa8       0xb8 /var/folders/hj/xvmq845d4rq0_l026j3g6x8c0000gn/T/arduino-core-cache/core_0bde13c9a0eea2bfdc716a2fc04bccd4.a(wirish_time.cpp.o)
                                       0x1e58 (size before relaxing)
 .debug_str     0x0000000000009060       0x5d /var/folders/hj/xvmq845d4rq0_l026j3g6x8c0000gn/T/arduino-core-cache/core_0bde13c9a0eea2bfdc716a2fc04bccd4.a(hooks.c.o)
                                        0x156 (size before relaxing)
 .debug_str     0x00000000000090bd       0x82 /var/folders/hj/xvmq845d4rq0_l026j3g6x8c0000gn/T/arduino-core-cache/core_0bde13c9a0eea2bfdc716a2fc04bccd4.a(bkp_f1.c.o)
                                        0x4a9 (size before relaxing)
 .debug_str     0x000000000000913f       0x5d /var/folders/hj/xvmq845d4rq0_l026j3g6x8c0000gn/T/arduino-core-cache/core_0bde13c9a0eea2bfdc716a2fc04bccd4.a(gpio.c.o)
                                        0x4a8 (size before relaxing)
 .debug_str     0x000000000000919c      0x250 /var/folders/hj/xvmq845d4rq0_l026j3g6x8c0000gn/T/arduino-core-cache/core_0bde13c9a0eea2bfdc716a2fc04bccd4.a(i2c.c.o)
                                       0x140d (size before relaxing)
 .debug_str     0x00000000000093ec       0xa5 /var/folders/hj/xvmq845d4rq0_l026j3g6x8c0000gn/T/arduino-core-cache/core_0bde13c9a0eea2bfdc716a2fc04bccd4.a(usart.c.o)
                                        0xa0c (size before relaxing)

.debug_loc      0x0000000000000000    0x1282a
 *(.debug_loc)
 .debug_loc     0x0000000000000000      0x2e7 /var/folders/hj/xvmq845d4rq0_l026j3g6x8c0000gn/T/arduino-sketch-783AC80E8B34696ACA1CC87DB6CF7DB3/sketch/LowMemoryExample.ino.cpp.o
 .debug_loc     0x00000000000002e7     0x21fa /var/folders/hj/xvmq845d4rq0_l026j3g6x8c0000gn/T/arduino-sketch-783AC80E8B34696ACA1CC87DB6CF7DB3/libraries/CorePartition/CorePartition.c.o
 .debug_loc     0x00000000000024e1       0x4b /var/folders/hj/xvmq845d4rq0_l026j3g6x8c0000gn/T/arduino-sketch-783AC80E8B34696ACA1CC87DB6CF7DB3/core/wirish/start_c.c.o
 .debug_loc     0x000000000000252c      0x331 /var/folders/hj/xvmq845d4rq0_l026j3g6x8c0000gn/T/arduino-sketch-783AC80E8B34696ACA1CC87DB6CF7DB3/core/wirish/syscalls.c.o
 .debug_loc     0x000000000000285d      0x2fb /var/folders/hj/xvmq845d4rq0_l026j3g6x8c0000gn/T/arduino-sketch-783AC80E8B34696ACA1CC87DB6CF7DB3/core/wirish/boards.cpp.o
 .debug_loc     0x0000000000002b58       0x3a /var/folders/hj/xvmq845d4rq0_l026j3g6x8c0000gn/T/arduino-sketch-783AC80E8B34696ACA1CC87DB6CF7DB3/core/wirish/boards_setup.cpp.o
 .debug_loc     0x0000000000002b92      0x2a7 /var/folders/hj/xvmq845d4rq0_l026j3g6x8c0000gn/T/arduino-core-cache/core_0bde13c9a0eea2bfdc716a2fc04bccd4.a(adc.c.o)
 .debug_loc     0x0000000000002e39      0x3cc /var/folders/hj/xvmq845d4rq0_l026j3g6x8c0000gn/T/arduino-core-cache/core_0bde13c9a0eea2bfdc716a2fc04bccd4.a(adc_f1.c.o)
 .debug_loc     0x0000000000003205     0x1110 /var/folders/hj/xvmq845d4rq0_l026j3g6x8c0000gn/T/arduino-core-cache/core_0bde13c9a0eea2bfdc716a2fc04bccd4.a(dma_f1.c.o)
 .debug_loc     0x0000000000004315      0xeea /var/folders/hj/xvmq845d4rq0_l026j3g6x8c0000gn/T/arduino-core-cache/core_0bde13c9a0eea2bfdc716a2fc04bccd4.a(exti.c.o)
 .debug_loc     0x00000000000051ff       0x3f /var/folders/hj/xvmq845d4rq0_l026j3g6x8c0000gn/T/arduino-core-cache/core_0bde13c9a0eea2bfdc716a2fc04bccd4.a(flash.c.o)
 .debug_loc     0x000000000000523e      0x2a5 /var/folders/hj/xvmq845d4rq0_l026j3g6x8c0000gn/T/arduino-core-cache/core_0bde13c9a0eea2bfdc716a2fc04bccd4.a(gpio_f1.c.o)
 .debug_loc     0x00000000000054e3      0x1aa /var/folders/hj/xvmq845d4rq0_l026j3g6x8c0000gn/T/arduino-core-cache/core_0bde13c9a0eea2bfdc716a2fc04bccd4.a(i2c_f1.c.o)
 .debug_loc     0x000000000000568d      0x186 /var/folders/hj/xvmq845d4rq0_l026j3g6x8c0000gn/T/arduino-core-cache/core_0bde13c9a0eea2bfdc716a2fc04bccd4.a(nvic.c.o)
 .debug_loc     0x0000000000005813      0x130 /var/folders/hj/xvmq845d4rq0_l026j3g6x8c0000gn/T/arduino-core-cache/core_0bde13c9a0eea2bfdc716a2fc04bccd4.a(rcc.c.o)
 .debug_loc     0x0000000000005943      0x545 /var/folders/hj/xvmq845d4rq0_l026j3g6x8c0000gn/T/arduino-core-cache/core_0bde13c9a0eea2bfdc716a2fc04bccd4.a(rcc_f1.c.o)
 .debug_loc     0x0000000000005e88     0x1233 /var/folders/hj/xvmq845d4rq0_l026j3g6x8c0000gn/T/arduino-core-cache/core_0bde13c9a0eea2bfdc716a2fc04bccd4.a(timer.c.o)
 .debug_loc     0x00000000000070bb      0x6f1 /var/folders/hj/xvmq845d4rq0_l026j3g6x8c0000gn/T/arduino-core-cache/core_0bde13c9a0eea2bfdc716a2fc04bccd4.a(usart_f1.c.o)
 .debug_loc     0x00000000000077ac      0x4d4 /var/folders/hj/xvmq845d4rq0_l026j3g6x8c0000gn/T/arduino-core-cache/core_0bde13c9a0eea2bfdc716a2fc04bccd4.a(usb.c.o)
 .debug_loc     0x0000000000007c80     0x1239 /var/folders/hj/xvmq845d4rq0_l026j3g6x8c0000gn/T/arduino-core-cache/core_0bde13c9a0eea2bfdc716a2fc04bccd4.a(usb_cdcacm.c.o)
 .debug_loc     0x0000000000008eb9      0x124 /var/folders/hj/xvmq845d4rq0_l026j3g6x8c0000gn/T/arduino-core-cache/core_0bde13c9a0eea2bfdc716a2fc04bccd4.a(usb_reg_map.c.o)
 .debug_loc     0x0000000000008fdd      0xb1f /var/folders/hj/xvmq845d4rq0_l026j3g6x8c0000gn/T/arduino-core-cache/core_0bde13c9a0eea2bfdc716a2fc04bccd4.a(usb_core.c.o)
 .debug_loc     0x0000000000009afc      0x1e8 /var/folders/hj/xvmq845d4rq0_l026j3g6x8c0000gn/T/arduino-core-cache/core_0bde13c9a0eea2bfdc716a2fc04bccd4.a(usb_mem.c.o)
 .debug_loc     0x0000000000009ce4      0x9a4 /var/folders/hj/xvmq845d4rq0_l026j3g6x8c0000gn/T/arduino-core-cache/core_0bde13c9a0eea2bfdc716a2fc04bccd4.a(usb_regs.c.o)
 .debug_loc     0x000000000000a688      0x325 /var/folders/hj/xvmq845d4rq0_l026j3g6x8c0000gn/T/arduino-core-cache/core_0bde13c9a0eea2bfdc716a2fc04bccd4.a(util.c.o)
 .debug_loc     0x000000000000a9ad      0x584 /var/folders/hj/xvmq845d4rq0_l026j3g6x8c0000gn/T/arduino-core-cache/core_0bde13c9a0eea2bfdc716a2fc04bccd4.a(HardwareSerial.cpp.o)
 .debug_loc     0x000000000000af31     0x5109 /var/folders/hj/xvmq845d4rq0_l026j3g6x8c0000gn/T/arduino-core-cache/core_0bde13c9a0eea2bfdc716a2fc04bccd4.a(Print.cpp.o)
 .debug_loc     0x000000000001003a      0xaee /var/folders/hj/xvmq845d4rq0_l026j3g6x8c0000gn/T/arduino-core-cache/core_0bde13c9a0eea2bfdc716a2fc04bccd4.a(usb_serial.cpp.o)
 .debug_loc     0x0000000000010b28       0xa3 /var/folders/hj/xvmq845d4rq0_l026j3g6x8c0000gn/T/arduino-core-cache/core_0bde13c9a0eea2bfdc716a2fc04bccd4.a(wirish_time.cpp.o)
 .debug_loc     0x0000000000010bcb       0xb6 /var/folders/hj/xvmq845d4rq0_l026j3g6x8c0000gn/T/arduino-core-cache/core_0bde13c9a0eea2bfdc716a2fc04bccd4.a(bkp_f1.c.o)
 .debug_loc     0x0000000000010c81       0x2c /var/folders/hj/xvmq845d4rq0_l026j3g6x8c0000gn/T/arduino-core-cache/core_0bde13c9a0eea2bfdc716a2fc04bccd4.a(gpio.c.o)
 .debug_loc     0x0000000000010cad     0x13ed /var/folders/hj/xvmq845d4rq0_l026j3g6x8c0000gn/T/arduino-core-cache/core_0bde13c9a0eea2bfdc716a2fc04bccd4.a(i2c.c.o)
 .debug_loc     0x000000000001209a      0x790 /var/folders/hj/xvmq845d4rq0_l026j3g6x8c0000gn/T/arduino-core-cache/core_0bde13c9a0eea2bfdc716a2fc04bccd4.a(usart.c.o)

.debug_macinfo
 *(.debug_macinfo)

.debug_weaknames
 *(.debug_weaknames)

.debug_funcnames
 *(.debug_funcnames)

.debug_typenames
 *(.debug_typenames)

.debug_varnames
 *(.debug_varnames)

.note.gnu.arm.ident
 *(.note.gnu.arm.ident)

.ARM.attributes
                0x0000000000000000       0x29
 *(.ARM.attributes)
 .ARM.attributes
                0x0000000000000000       0x1d /Users/lgcampos/Library/Arduino15/packages/arduino/tools/arm-none-eabi-gcc/7-2017q4/bin/../lib/gcc/arm-none-eabi/7.2.1/thumb/v7-m/crti.o
 .ARM.attributes
                0x000000000000001d       0x2d /Users/lgcampos/Library/Arduino15/packages/arduino/tools/arm-none-eabi-gcc/7-2017q4/bin/../lib/gcc/arm-none-eabi/7.2.1/thumb/v7-m/crtbegin.o
 .ARM.attributes
                0x000000000000004a       0x1b /Users/lgcampos/Library/Arduino15/packages/arduino/tools/arm-none-eabi-gcc/7-2017q4/bin/../lib/gcc/arm-none-eabi/7.2.1/../../../../arm-none-eabi/lib/thumb/v7-m/crt0.o
 .ARM.attributes
                0x0000000000000065       0x33 /var/folders/hj/xvmq845d4rq0_l026j3g6x8c0000gn/T/arduino-sketch-783AC80E8B34696ACA1CC87DB6CF7DB3/sketch/LowMemoryExample.ino.cpp.o
 .ARM.attributes
                0x0000000000000098       0x33 /var/folders/hj/xvmq845d4rq0_l026j3g6x8c0000gn/T/arduino-sketch-783AC80E8B34696ACA1CC87DB6CF7DB3/libraries/CorePartition/CorePartition.c.o
 .ARM.attributes
                0x00000000000000cb       0x21 /var/folders/hj/xvmq845d4rq0_l026j3g6x8c0000gn/T/arduino-sketch-783AC80E8B34696ACA1CC87DB6CF7DB3/core/wirish/start.S.o
 .ARM.attributes
                0x00000000000000ec       0x33 /var/folders/hj/xvmq845d4rq0_l026j3g6x8c0000gn/T/arduino-sketch-783AC80E8B34696ACA1CC87DB6CF7DB3/core/wirish/start_c.c.o
 .ARM.attributes
                0x000000000000011f       0x33 /var/folders/hj/xvmq845d4rq0_l026j3g6x8c0000gn/T/arduino-sketch-783AC80E8B34696ACA1CC87DB6CF7DB3/core/wirish/syscalls.c.o
 .ARM.attributes
                0x0000000000000152       0x33 /var/folders/hj/xvmq845d4rq0_l026j3g6x8c0000gn/T/arduino-sketch-783AC80E8B34696ACA1CC87DB6CF7DB3/core/board.cpp.o
 .ARM.attributes
                0x0000000000000185       0x33 /var/folders/hj/xvmq845d4rq0_l026j3g6x8c0000gn/T/arduino-sketch-783AC80E8B34696ACA1CC87DB6CF7DB3/core/wirish/boards.cpp.o
 .ARM.attributes
                0x00000000000001b8       0x33 /var/folders/hj/xvmq845d4rq0_l026j3g6x8c0000gn/T/arduino-sketch-783AC80E8B34696ACA1CC87DB6CF7DB3/core/wirish/boards_setup.cpp.o
 .ARM.attributes
                0x00000000000001eb       0x21 /var/folders/hj/xvmq845d4rq0_l026j3g6x8c0000gn/T/arduino-core-cache/core_0bde13c9a0eea2bfdc716a2fc04bccd4.a(exc.S.o)
 .ARM.attributes
                0x000000000000020c       0x21 /var/folders/hj/xvmq845d4rq0_l026j3g6x8c0000gn/T/arduino-core-cache/core_0bde13c9a0eea2bfdc716a2fc04bccd4.a(isrs.S.o)
 .ARM.attributes
                0x000000000000022d       0x21 /var/folders/hj/xvmq845d4rq0_l026j3g6x8c0000gn/T/arduino-core-cache/core_0bde13c9a0eea2bfdc716a2fc04bccd4.a(vector_table.S.o)
 .ARM.attributes
                0x000000000000024e       0x33 /var/folders/hj/xvmq845d4rq0_l026j3g6x8c0000gn/T/arduino-core-cache/core_0bde13c9a0eea2bfdc716a2fc04bccd4.a(adc.c.o)
 .ARM.attributes
                0x0000000000000281       0x33 /var/folders/hj/xvmq845d4rq0_l026j3g6x8c0000gn/T/arduino-core-cache/core_0bde13c9a0eea2bfdc716a2fc04bccd4.a(adc_f1.c.o)
 .ARM.attributes
                0x00000000000002b4       0x33 /var/folders/hj/xvmq845d4rq0_l026j3g6x8c0000gn/T/arduino-core-cache/core_0bde13c9a0eea2bfdc716a2fc04bccd4.a(dma_f1.c.o)
 .ARM.attributes
                0x00000000000002e7       0x33 /var/folders/hj/xvmq845d4rq0_l026j3g6x8c0000gn/T/arduino-core-cache/core_0bde13c9a0eea2bfdc716a2fc04bccd4.a(exti.c.o)
 .ARM.attributes
                0x000000000000031a       0x33 /var/folders/hj/xvmq845d4rq0_l026j3g6x8c0000gn/T/arduino-core-cache/core_0bde13c9a0eea2bfdc716a2fc04bccd4.a(exti_f1.c.o)
 .ARM.attributes
                0x000000000000034d       0x33 /var/folders/hj/xvmq845d4rq0_l026j3g6x8c0000gn/T/arduino-core-cache/core_0bde13c9a0eea2bfdc716a2fc04bccd4.a(flash.c.o)
 .ARM.attributes
                0x0000000000000380       0x33 /var/folders/hj/xvmq845d4rq0_l026j3g6x8c0000gn/T/arduino-core-cache/core_0bde13c9a0eea2bfdc716a2fc04bccd4.a(gpio_f1.c.o)
 .ARM.attributes
                0x00000000000003b3       0x33 /var/folders/hj/xvmq845d4rq0_l026j3g6x8c0000gn/T/arduino-core-cache/core_0bde13c9a0eea2bfdc716a2fc04bccd4.a(i2c_f1.c.o)
 .ARM.attributes
                0x00000000000003e6       0x33 /var/folders/hj/xvmq845d4rq0_l026j3g6x8c0000gn/T/arduino-core-cache/core_0bde13c9a0eea2bfdc716a2fc04bccd4.a(nvic.c.o)
 .ARM.attributes
                0x0000000000000419       0x33 /var/folders/hj/xvmq845d4rq0_l026j3g6x8c0000gn/T/arduino-core-cache/core_0bde13c9a0eea2bfdc716a2fc04bccd4.a(rcc.c.o)
 .ARM.attributes
                0x000000000000044c       0x33 /var/folders/hj/xvmq845d4rq0_l026j3g6x8c0000gn/T/arduino-core-cache/core_0bde13c9a0eea2bfdc716a2fc04bccd4.a(rcc_f1.c.o)
 .ARM.attributes
                0x000000000000047f       0x33 /var/folders/hj/xvmq845d4rq0_l026j3g6x8c0000gn/T/arduino-core-cache/core_0bde13c9a0eea2bfdc716a2fc04bccd4.a(systick.c.o)
 .ARM.attributes
                0x00000000000004b2       0x33 /var/folders/hj/xvmq845d4rq0_l026j3g6x8c0000gn/T/arduino-core-cache/core_0bde13c9a0eea2bfdc716a2fc04bccd4.a(timer.c.o)
 .ARM.attributes
                0x00000000000004e5       0x33 /var/folders/hj/xvmq845d4rq0_l026j3g6x8c0000gn/T/arduino-core-cache/core_0bde13c9a0eea2bfdc716a2fc04bccd4.a(usart_f1.c.o)
 .ARM.attributes
                0x0000000000000518       0x33 /var/folders/hj/xvmq845d4rq0_l026j3g6x8c0000gn/T/arduino-core-cache/core_0bde13c9a0eea2bfdc716a2fc04bccd4.a(usart_private.c.o)
 .ARM.attributes
                0x000000000000054b       0x33 /var/folders/hj/xvmq845d4rq0_l026j3g6x8c0000gn/T/arduino-core-cache/core_0bde13c9a0eea2bfdc716a2fc04bccd4.a(usb.c.o)
 .ARM.attributes
                0x000000000000057e       0x33 /var/folders/hj/xvmq845d4rq0_l026j3g6x8c0000gn/T/arduino-core-cache/core_0bde13c9a0eea2bfdc716a2fc04bccd4.a(usb_cdcacm.c.o)
 .ARM.attributes
                0x00000000000005b1       0x33 /var/folders/hj/xvmq845d4rq0_l026j3g6x8c0000gn/T/arduino-core-cache/core_0bde13c9a0eea2bfdc716a2fc04bccd4.a(usb_reg_map.c.o)
 .ARM.attributes
                0x00000000000005e4       0x33 /var/folders/hj/xvmq845d4rq0_l026j3g6x8c0000gn/T/arduino-core-cache/core_0bde13c9a0eea2bfdc716a2fc04bccd4.a(usb_core.c.o)
 .ARM.attributes
                0x0000000000000617       0x33 /var/folders/hj/xvmq845d4rq0_l026j3g6x8c0000gn/T/arduino-core-cache/core_0bde13c9a0eea2bfdc716a2fc04bccd4.a(usb_init.c.o)
 .ARM.attributes
                0x000000000000064a       0x33 /var/folders/hj/xvmq845d4rq0_l026j3g6x8c0000gn/T/arduino-core-cache/core_0bde13c9a0eea2bfdc716a2fc04bccd4.a(usb_mem.c.o)
 .ARM.attributes
                0x000000000000067d       0x33 /var/folders/hj/xvmq845d4rq0_l026j3g6x8c0000gn/T/arduino-core-cache/core_0bde13c9a0eea2bfdc716a2fc04bccd4.a(usb_regs.c.o)
 .ARM.attributes
                0x00000000000006b0       0x33 /var/folders/hj/xvmq845d4rq0_l026j3g6x8c0000gn/T/arduino-core-cache/core_0bde13c9a0eea2bfdc716a2fc04bccd4.a(util.c.o)
 .ARM.attributes
                0x00000000000006e3       0x33 /var/folders/hj/xvmq845d4rq0_l026j3g6x8c0000gn/T/arduino-core-cache/core_0bde13c9a0eea2bfdc716a2fc04bccd4.a(HardwareSerial.cpp.o)
 .ARM.attributes
                0x0000000000000716       0x33 /var/folders/hj/xvmq845d4rq0_l026j3g6x8c0000gn/T/arduino-core-cache/core_0bde13c9a0eea2bfdc716a2fc04bccd4.a(Print.cpp.o)
 .ARM.attributes
                0x0000000000000749       0x33 /var/folders/hj/xvmq845d4rq0_l026j3g6x8c0000gn/T/arduino-core-cache/core_0bde13c9a0eea2bfdc716a2fc04bccd4.a(cxxabi-compat.cpp.o)
 .ARM.attributes
                0x000000000000077c       0x33 /var/folders/hj/xvmq845d4rq0_l026j3g6x8c0000gn/T/arduino-core-cache/core_0bde13c9a0eea2bfdc716a2fc04bccd4.a(main.cpp.o)
 .ARM.attributes
                0x00000000000007af       0x33 /var/folders/hj/xvmq845d4rq0_l026j3g6x8c0000gn/T/arduino-core-cache/core_0bde13c9a0eea2bfdc716a2fc04bccd4.a(usb_serial.cpp.o)
 .ARM.attributes
                0x00000000000007e2       0x33 /var/folders/hj/xvmq845d4rq0_l026j3g6x8c0000gn/T/arduino-core-cache/core_0bde13c9a0eea2bfdc716a2fc04bccd4.a(wirish_time.cpp.o)
 .ARM.attributes
                0x0000000000000815       0x33 /var/folders/hj/xvmq845d4rq0_l026j3g6x8c0000gn/T/arduino-core-cache/core_0bde13c9a0eea2bfdc716a2fc04bccd4.a(hooks.c.o)
 .ARM.attributes
                0x0000000000000848       0x33 /var/folders/hj/xvmq845d4rq0_l026j3g6x8c0000gn/T/arduino-core-cache/core_0bde13c9a0eea2bfdc716a2fc04bccd4.a(bkp_f1.c.o)
 .ARM.attributes
                0x000000000000087b       0x33 /var/folders/hj/xvmq845d4rq0_l026j3g6x8c0000gn/T/arduino-core-cache/core_0bde13c9a0eea2bfdc716a2fc04bccd4.a(dma.c.o)
 .ARM.attributes
                0x00000000000008ae       0x33 /var/folders/hj/xvmq845d4rq0_l026j3g6x8c0000gn/T/arduino-core-cache/core_0bde13c9a0eea2bfdc716a2fc04bccd4.a(gpio.c.o)
 .ARM.attributes
                0x00000000000008e1       0x33 /var/folders/hj/xvmq845d4rq0_l026j3g6x8c0000gn/T/arduino-core-cache/core_0bde13c9a0eea2bfdc716a2fc04bccd4.a(i2c.c.o)
 .ARM.attributes
                0x0000000000000914       0x33 /var/folders/hj/xvmq845d4rq0_l026j3g6x8c0000gn/T/arduino-core-cache/core_0bde13c9a0eea2bfdc716a2fc04bccd4.a(usart.c.o)
 .ARM.attributes
                0x0000000000000947       0x1d /Users/lgcampos/Library/Arduino15/packages/arduino/tools/arm-none-eabi-gcc/7-2017q4/bin/../lib/gcc/arm-none-eabi/7.2.1/thumb/v7-m/libgcc.a(_arm_addsubdf3.o)
 .ARM.attributes
                0x0000000000000964       0x1d /Users/lgcampos/Library/Arduino15/packages/arduino/tools/arm-none-eabi-gcc/7-2017q4/bin/../lib/gcc/arm-none-eabi/7.2.1/thumb/v7-m/libgcc.a(_arm_muldivdf3.o)
 .ARM.attributes
                0x0000000000000981       0x1d /Users/lgcampos/Library/Arduino15/packages/arduino/tools/arm-none-eabi-gcc/7-2017q4/bin/../lib/gcc/arm-none-eabi/7.2.1/thumb/v7-m/libgcc.a(_arm_cmpdf2.o)
 .ARM.attributes
                0x000000000000099e       0x1d /Users/lgcampos/Library/Arduino15/packages/arduino/tools/arm-none-eabi-gcc/7-2017q4/bin/../lib/gcc/arm-none-eabi/7.2.1/thumb/v7-m/libgcc.a(_arm_fixdfsi.o)
 .ARM.attributes
                0x00000000000009bb       0x1d /Users/lgcampos/Library/Arduino15/packages/arduino/tools/arm-none-eabi-gcc/7-2017q4/bin/../lib/gcc/arm-none-eabi/7.2.1/thumb/v7-m/libgcc.a(_aeabi_ldivmod.o)
 .ARM.attributes
                0x00000000000009d8       0x1d /Users/lgcampos/Library/Arduino15/packages/arduino/tools/arm-none-eabi-gcc/7-2017q4/bin/../lib/gcc/arm-none-eabi/7.2.1/thumb/v7-m/libgcc.a(_aeabi_uldivmod.o)
 .ARM.attributes
                0x00000000000009f5       0x2d /Users/lgcampos/Library/Arduino15/packages/arduino/tools/arm-none-eabi-gcc/7-2017q4/bin/../lib/gcc/arm-none-eabi/7.2.1/thumb/v7-m/libgcc.a(_fixdfdi.o)
 .ARM.attributes
                0x0000000000000a22       0x2d /Users/lgcampos/Library/Arduino15/packages/arduino/tools/arm-none-eabi-gcc/7-2017q4/bin/../lib/gcc/arm-none-eabi/7.2.1/thumb/v7-m/libgcc.a(_fixunsdfdi.o)
 .ARM.attributes
                0x0000000000000a4f       0x2d /Users/lgcampos/Library/Arduino15/packages/arduino/tools/arm-none-eabi-gcc/7-2017q4/bin/../lib/gcc/arm-none-eabi/7.2.1/thumb/v7-m/libgcc.a(_udivmoddi4.o)
 .ARM.attributes
                0x0000000000000a7c       0x1d /Users/lgcampos/Library/Arduino15/packages/arduino/tools/arm-none-eabi-gcc/7-2017q4/bin/../lib/gcc/arm-none-eabi/7.2.1/thumb/v7-m/libgcc.a(_dvmd_tls.o)
 .ARM.attributes
                0x0000000000000a99       0x1d /Users/lgcampos/Library/Arduino15/packages/arduino/tools/arm-none-eabi-gcc/7-2017q4/bin/../lib/gcc/arm-none-eabi/7.2.1/thumb/v7-m/libgcc.a(_arm_fixunsdfsi.o)
 .ARM.attributes
                0x0000000000000ab6       0x2d /Users/lgcampos/Library/Arduino15/packages/arduino/tools/arm-none-eabi-gcc/7-2017q4/bin/../lib/gcc/arm-none-eabi/7.2.1/../../../../arm-none-eabi/lib/thumb/v7-m/libc.a(lib_a-calloc.o)
 .ARM.attributes
                0x0000000000000ae3       0x2d /Users/lgcampos/Library/Arduino15/packages/arduino/tools/arm-none-eabi-gcc/7-2017q4/bin/../lib/gcc/arm-none-eabi/7.2.1/../../../../arm-none-eabi/lib/thumb/v7-m/libc.a(lib_a-callocr.o)
 .ARM.attributes
                0x0000000000000b10       0x2d /Users/lgcampos/Library/Arduino15/packages/arduino/tools/arm-none-eabi-gcc/7-2017q4/bin/../lib/gcc/arm-none-eabi/7.2.1/../../../../arm-none-eabi/lib/thumb/v7-m/libc.a(lib_a-errno.o)
 .ARM.attributes
                0x0000000000000b3d       0x2d /Users/lgcampos/Library/Arduino15/packages/arduino/tools/arm-none-eabi-gcc/7-2017q4/bin/../lib/gcc/arm-none-eabi/7.2.1/../../../../arm-none-eabi/lib/thumb/v7-m/libc.a(lib_a-exit.o)
 .ARM.attributes
                0x0000000000000b6a       0x2d /Users/lgcampos/Library/Arduino15/packages/arduino/tools/arm-none-eabi-gcc/7-2017q4/bin/../lib/gcc/arm-none-eabi/7.2.1/../../../../arm-none-eabi/lib/thumb/v7-m/libc.a(lib_a-impure.o)
 .ARM.attributes
                0x0000000000000b97       0x2d /Users/lgcampos/Library/Arduino15/packages/arduino/tools/arm-none-eabi-gcc/7-2017q4/bin/../lib/gcc/arm-none-eabi/7.2.1/../../../../arm-none-eabi/lib/thumb/v7-m/libc.a(lib_a-init.o)
 .ARM.attributes
                0x0000000000000bc4       0x2d /Users/lgcampos/Library/Arduino15/packages/arduino/tools/arm-none-eabi-gcc/7-2017q4/bin/../lib/gcc/arm-none-eabi/7.2.1/../../../../arm-none-eabi/lib/thumb/v7-m/libc.a(lib_a-malloc.o)
 .ARM.attributes
                0x0000000000000bf1       0x2d /Users/lgcampos/Library/Arduino15/packages/arduino/tools/arm-none-eabi-gcc/7-2017q4/bin/../lib/gcc/arm-none-eabi/7.2.1/../../../../arm-none-eabi/lib/thumb/v7-m/libc.a(lib_a-mallocr.o)
 .ARM.attributes
                0x0000000000000c1e       0x1b /Users/lgcampos/Library/Arduino15/packages/arduino/tools/arm-none-eabi-gcc/7-2017q4/bin/../lib/gcc/arm-none-eabi/7.2.1/../../../../arm-none-eabi/lib/thumb/v7-m/libc.a(lib_a-memcpy.o)
 .ARM.attributes
                0x0000000000000c39       0x2d /Users/lgcampos/Library/Arduino15/packages/arduino/tools/arm-none-eabi-gcc/7-2017q4/bin/../lib/gcc/arm-none-eabi/7.2.1/../../../../arm-none-eabi/lib/thumb/v7-m/libc.a(lib_a-memset.o)
 .ARM.attributes
                0x0000000000000c66       0x2d /Users/lgcampos/Library/Arduino15/packages/arduino/tools/arm-none-eabi-gcc/7-2017q4/bin/../lib/gcc/arm-none-eabi/7.2.1/../../../../arm-none-eabi/lib/thumb/v7-m/libc.a(lib_a-mlock.o)
 .ARM.attributes
                0x0000000000000c93       0x2d /Users/lgcampos/Library/Arduino15/packages/arduino/tools/arm-none-eabi-gcc/7-2017q4/bin/../lib/gcc/arm-none-eabi/7.2.1/../../../../arm-none-eabi/lib/thumb/v7-m/libc.a(lib_a-rand.o)
 .ARM.attributes
                0x0000000000000cc0       0x2d /Users/lgcampos/Library/Arduino15/packages/arduino/tools/arm-none-eabi-gcc/7-2017q4/bin/../lib/gcc/arm-none-eabi/7.2.1/../../../../arm-none-eabi/lib/thumb/v7-m/libc.a(lib_a-sbrkr.o)
 .ARM.attributes
                0x0000000000000ced       0x1b /Users/lgcampos/Library/Arduino15/packages/arduino/tools/arm-none-eabi-gcc/7-2017q4/bin/../lib/gcc/arm-none-eabi/7.2.1/../../../../arm-none-eabi/lib/thumb/v7-m/libc.a(lib_a-setjmp.o)
 .ARM.attributes
                0x0000000000000d08       0x2d /Users/lgcampos/Library/Arduino15/packages/arduino/tools/arm-none-eabi-gcc/7-2017q4/bin/../lib/gcc/arm-none-eabi/7.2.1/../../../../arm-none-eabi/lib/thumb/v7-m/libc.a(lib_a-strlen-stub.o)
 .ARM.attributes
                0x0000000000000d35       0x2d /Users/lgcampos/Library/Arduino15/packages/arduino/tools/arm-none-eabi-gcc/7-2017q4/bin/../lib/gcc/arm-none-eabi/7.2.1/../../../../arm-none-eabi/lib/thumb/v7-m/libc.a(lib_a-__call_atexit.o)
 .ARM.attributes
                0x0000000000000d62       0x2d /Users/lgcampos/Library/Arduino15/packages/arduino/tools/arm-none-eabi-gcc/7-2017q4/bin/../lib/gcc/arm-none-eabi/7.2.1/../../../../arm-none-eabi/lib/thumb/v7-m/libc.a(lib_a-atexit.o)
 .ARM.attributes
                0x0000000000000d8f       0x2d /Users/lgcampos/Library/Arduino15/packages/arduino/tools/arm-none-eabi-gcc/7-2017q4/bin/../lib/gcc/arm-none-eabi/7.2.1/../../../../arm-none-eabi/lib/thumb/v7-m/libc.a(lib_a-fini.o)
 .ARM.attributes
                0x0000000000000dbc       0x2d /Users/lgcampos/Library/Arduino15/packages/arduino/tools/arm-none-eabi-gcc/7-2017q4/bin/../lib/gcc/arm-none-eabi/7.2.1/../../../../arm-none-eabi/lib/thumb/v7-m/libc.a(lib_a-freer.o)
 .ARM.attributes
                0x0000000000000de9       0x2d /Users/lgcampos/Library/Arduino15/packages/arduino/tools/arm-none-eabi-gcc/7-2017q4/bin/../lib/gcc/arm-none-eabi/7.2.1/../../../../arm-none-eabi/lib/thumb/v7-m/libc.a(lib_a-lock.o)
 .ARM.attributes
                0x0000000000000e16       0x2d /Users/lgcampos/Library/Arduino15/packages/arduino/tools/arm-none-eabi-gcc/7-2017q4/bin/../lib/gcc/arm-none-eabi/7.2.1/../../../../arm-none-eabi/lib/thumb/v7-m/libc.a(lib_a-reent.o)
 .ARM.attributes
                0x0000000000000e43       0x2d /Users/lgcampos/Library/Arduino15/packages/arduino/tools/arm-none-eabi-gcc/7-2017q4/bin/../lib/gcc/arm-none-eabi/7.2.1/../../../../arm-none-eabi/lib/thumb/v7-m/libc.a(lib_a-__atexit.o)
 .ARM.attributes
                0x0000000000000e70       0x2d /Users/lgcampos/Library/Arduino15/packages/arduino/tools/arm-none-eabi-gcc/7-2017q4/bin/../lib/gcc/arm-none-eabi/7.2.1/thumb/v7-m/crtend.o
 .ARM.attributes
                0x0000000000000e9d       0x1d /Users/lgcampos/Library/Arduino15/packages/arduino/tools/arm-none-eabi-gcc/7-2017q4/bin/../lib/gcc/arm-none-eabi/7.2.1/thumb/v7-m/crtn.o

/DISCARD/
 *(.note.GNU-stack)
OUTPUT(/var/folders/hj/xvmq845d4rq0_l026j3g6x8c0000gn/T/arduino-sketch-783AC80E8B34696ACA1CC87DB6CF7DB3/LowMemoryExample.ino.elf elf32-littlearm)

.debug_ranges   0x0000000000000000     0x3e98
 .debug_ranges  0x0000000000000000       0xf0 /var/folders/hj/xvmq845d4rq0_l026j3g6x8c0000gn/T/arduino-sketch-783AC80E8B34696ACA1CC87DB6CF7DB3/sketch/LowMemoryExample.ino.cpp.o
 .debug_ranges  0x00000000000000f0      0x508 /var/folders/hj/xvmq845d4rq0_l026j3g6x8c0000gn/T/arduino-sketch-783AC80E8B34696ACA1CC87DB6CF7DB3/libraries/CorePartition/CorePartition.c.o
 .debug_ranges  0x00000000000005f8       0x10 /var/folders/hj/xvmq845d4rq0_l026j3g6x8c0000gn/T/arduino-sketch-783AC80E8B34696ACA1CC87DB6CF7DB3/core/wirish/start_c.c.o
 .debug_ranges  0x0000000000000608       0x70 /var/folders/hj/xvmq845d4rq0_l026j3g6x8c0000gn/T/arduino-sketch-783AC80E8B34696ACA1CC87DB6CF7DB3/core/wirish/syscalls.c.o
 .debug_ranges  0x0000000000000678       0x38 /var/folders/hj/xvmq845d4rq0_l026j3g6x8c0000gn/T/arduino-sketch-783AC80E8B34696ACA1CC87DB6CF7DB3/core/board.cpp.o
 .debug_ranges  0x00000000000006b0      0x128 /var/folders/hj/xvmq845d4rq0_l026j3g6x8c0000gn/T/arduino-sketch-783AC80E8B34696ACA1CC87DB6CF7DB3/core/wirish/boards.cpp.o
 .debug_ranges  0x00000000000007d8       0x60 /var/folders/hj/xvmq845d4rq0_l026j3g6x8c0000gn/T/arduino-sketch-783AC80E8B34696ACA1CC87DB6CF7DB3/core/wirish/boards_setup.cpp.o
 .debug_ranges  0x0000000000000838       0x28 /var/folders/hj/xvmq845d4rq0_l026j3g6x8c0000gn/T/arduino-core-cache/core_0bde13c9a0eea2bfdc716a2fc04bccd4.a(adc.c.o)
 .debug_ranges  0x0000000000000860       0xf8 /var/folders/hj/xvmq845d4rq0_l026j3g6x8c0000gn/T/arduino-core-cache/core_0bde13c9a0eea2bfdc716a2fc04bccd4.a(adc_f1.c.o)
 .debug_ranges  0x0000000000000958      0x2b8 /var/folders/hj/xvmq845d4rq0_l026j3g6x8c0000gn/T/arduino-core-cache/core_0bde13c9a0eea2bfdc716a2fc04bccd4.a(dma_f1.c.o)
 .debug_ranges  0x0000000000000c10      0x1f0 /var/folders/hj/xvmq845d4rq0_l026j3g6x8c0000gn/T/arduino-core-cache/core_0bde13c9a0eea2bfdc716a2fc04bccd4.a(exti.c.o)
 .debug_ranges  0x0000000000000e00       0x10 /var/folders/hj/xvmq845d4rq0_l026j3g6x8c0000gn/T/arduino-core-cache/core_0bde13c9a0eea2bfdc716a2fc04bccd4.a(flash.c.o)
 .debug_ranges  0x0000000000000e10       0x30 /var/folders/hj/xvmq845d4rq0_l026j3g6x8c0000gn/T/arduino-core-cache/core_0bde13c9a0eea2bfdc716a2fc04bccd4.a(gpio_f1.c.o)
 .debug_ranges  0x0000000000000e40       0x98 /var/folders/hj/xvmq845d4rq0_l026j3g6x8c0000gn/T/arduino-core-cache/core_0bde13c9a0eea2bfdc716a2fc04bccd4.a(i2c_f1.c.o)
 .debug_ranges  0x0000000000000ed8       0x68 /var/folders/hj/xvmq845d4rq0_l026j3g6x8c0000gn/T/arduino-core-cache/core_0bde13c9a0eea2bfdc716a2fc04bccd4.a(nvic.c.o)
 .debug_ranges  0x0000000000000f40       0xb0 /var/folders/hj/xvmq845d4rq0_l026j3g6x8c0000gn/T/arduino-core-cache/core_0bde13c9a0eea2bfdc716a2fc04bccd4.a(rcc.c.o)
 .debug_ranges  0x0000000000000ff0      0x110 /var/folders/hj/xvmq845d4rq0_l026j3g6x8c0000gn/T/arduino-core-cache/core_0bde13c9a0eea2bfdc716a2fc04bccd4.a(rcc_f1.c.o)
 .debug_ranges  0x0000000000001100       0x48 /var/folders/hj/xvmq845d4rq0_l026j3g6x8c0000gn/T/arduino-core-cache/core_0bde13c9a0eea2bfdc716a2fc04bccd4.a(systick.c.o)
 .debug_ranges  0x0000000000001148      0x678 /var/folders/hj/xvmq845d4rq0_l026j3g6x8c0000gn/T/arduino-core-cache/core_0bde13c9a0eea2bfdc716a2fc04bccd4.a(timer.c.o)
 .debug_ranges  0x00000000000017c0      0x1d8 /var/folders/hj/xvmq845d4rq0_l026j3g6x8c0000gn/T/arduino-core-cache/core_0bde13c9a0eea2bfdc716a2fc04bccd4.a(usart_f1.c.o)
 .debug_ranges  0x0000000000001998      0x200 /var/folders/hj/xvmq845d4rq0_l026j3g6x8c0000gn/T/arduino-core-cache/core_0bde13c9a0eea2bfdc716a2fc04bccd4.a(usb.c.o)
 .debug_ranges  0x0000000000001b98      0x488 /var/folders/hj/xvmq845d4rq0_l026j3g6x8c0000gn/T/arduino-core-cache/core_0bde13c9a0eea2bfdc716a2fc04bccd4.a(usb_cdcacm.c.o)
 .debug_ranges  0x0000000000002020       0x70 /var/folders/hj/xvmq845d4rq0_l026j3g6x8c0000gn/T/arduino-core-cache/core_0bde13c9a0eea2bfdc716a2fc04bccd4.a(usb_reg_map.c.o)
 .debug_ranges  0x0000000000002090      0x1f8 /var/folders/hj/xvmq845d4rq0_l026j3g6x8c0000gn/T/arduino-core-cache/core_0bde13c9a0eea2bfdc716a2fc04bccd4.a(usb_core.c.o)
 .debug_ranges  0x0000000000002288       0x10 /var/folders/hj/xvmq845d4rq0_l026j3g6x8c0000gn/T/arduino-core-cache/core_0bde13c9a0eea2bfdc716a2fc04bccd4.a(usb_init.c.o)
 .debug_ranges  0x0000000000002298       0x38 /var/folders/hj/xvmq845d4rq0_l026j3g6x8c0000gn/T/arduino-core-cache/core_0bde13c9a0eea2bfdc716a2fc04bccd4.a(usb_mem.c.o)
 .debug_ranges  0x00000000000022d0      0x328 /var/folders/hj/xvmq845d4rq0_l026j3g6x8c0000gn/T/arduino-core-cache/core_0bde13c9a0eea2bfdc716a2fc04bccd4.a(usb_regs.c.o)
 .debug_ranges  0x00000000000025f8       0x70 /var/folders/hj/xvmq845d4rq0_l026j3g6x8c0000gn/T/arduino-core-cache/core_0bde13c9a0eea2bfdc716a2fc04bccd4.a(util.c.o)
 .debug_ranges  0x0000000000002668       0xc8 /var/folders/hj/xvmq845d4rq0_l026j3g6x8c0000gn/T/arduino-core-cache/core_0bde13c9a0eea2bfdc716a2fc04bccd4.a(HardwareSerial.cpp.o)
 .debug_ranges  0x0000000000002730      0xd90 /var/folders/hj/xvmq845d4rq0_l026j3g6x8c0000gn/T/arduino-core-cache/core_0bde13c9a0eea2bfdc716a2fc04bccd4.a(Print.cpp.o)
 .debug_ranges  0x00000000000034c0       0x18 /var/folders/hj/xvmq845d4rq0_l026j3g6x8c0000gn/T/arduino-core-cache/core_0bde13c9a0eea2bfdc716a2fc04bccd4.a(main.cpp.o)
 .debug_ranges  0x00000000000034d8      0x250 /var/folders/hj/xvmq845d4rq0_l026j3g6x8c0000gn/T/arduino-core-cache/core_0bde13c9a0eea2bfdc716a2fc04bccd4.a(usb_serial.cpp.o)
 .debug_ranges  0x0000000000003728       0x60 /var/folders/hj/xvmq845d4rq0_l026j3g6x8c0000gn/T/arduino-core-cache/core_0bde13c9a0eea2bfdc716a2fc04bccd4.a(wirish_time.cpp.o)
 .debug_ranges  0x0000000000003788       0x10 /var/folders/hj/xvmq845d4rq0_l026j3g6x8c0000gn/T/arduino-core-cache/core_0bde13c9a0eea2bfdc716a2fc04bccd4.a(hooks.c.o)
 .debug_ranges  0x0000000000003798       0x30 /var/folders/hj/xvmq845d4rq0_l026j3g6x8c0000gn/T/arduino-core-cache/core_0bde13c9a0eea2bfdc716a2fc04bccd4.a(bkp_f1.c.o)
 .debug_ranges  0x00000000000037c8       0x10 /var/folders/hj/xvmq845d4rq0_l026j3g6x8c0000gn/T/arduino-core-cache/core_0bde13c9a0eea2bfdc716a2fc04bccd4.a(gpio.c.o)
 .debug_ranges  0x00000000000037d8      0x528 /var/folders/hj/xvmq845d4rq0_l026j3g6x8c0000gn/T/arduino-core-cache/core_0bde13c9a0eea2bfdc716a2fc04bccd4.a(i2c.c.o)
 .debug_ranges  0x0000000000003d00      0x198 /var/folders/hj/xvmq845d4rq0_l026j3g6x8c0000gn/T/arduino-core-cache/core_0bde13c9a0eea2bfdc716a2fc04bccd4.a(usart.c.o)

.comment        0x0000000000000000       0x7e
 .comment       0x0000000000000000       0x7e /var/folders/hj/xvmq845d4rq0_l026j3g6x8c0000gn/T/arduino-sketch-783AC80E8B34696ACA1CC87DB6CF7DB3/sketch/LowMemoryExample.ino.cpp.o
                                         0x7f (size before relaxing)
 .comment       0x000000000000007e       0x7f /var/folders/hj/xvmq845d4rq0_l026j3g6x8c0000gn/T/arduino-sketch-783AC80E8B34696ACA1CC87DB6CF7DB3/libraries/CorePartition/CorePartition.c.o
 .comment       0x000000000000007e       0x7f /var/folders/hj/xvmq845d4rq0_l026j3g6x8c0000gn/T/arduino-sketch-783AC80E8B34696ACA1CC87DB6CF7DB3/core/wirish/start_c.c.o
 .comment       0x000000000000007e       0x7f /var/folders/hj/xvmq845d4rq0_l026j3g6x8c0000gn/T/arduino-sketch-783AC80E8B34696ACA1CC87DB6CF7DB3/core/wirish/syscalls.c.o
 .comment       0x000000000000007e       0x7f /var/folders/hj/xvmq845d4rq0_l026j3g6x8c0000gn/T/arduino-sketch-783AC80E8B34696ACA1CC87DB6CF7DB3/core/board.cpp.o
 .comment       0x000000000000007e       0x7f /var/folders/hj/xvmq845d4rq0_l026j3g6x8c0000gn/T/arduino-sketch-783AC80E8B34696ACA1CC87DB6CF7DB3/core/wirish/boards.cpp.o
 .comment       0x000000000000007e       0x7f /var/folders/hj/xvmq845d4rq0_l026j3g6x8c0000gn/T/arduino-sketch-783AC80E8B34696ACA1CC87DB6CF7DB3/core/wirish/boards_setup.cpp.o
 .comment       0x000000000000007e       0x7f /var/folders/hj/xvmq845d4rq0_l026j3g6x8c0000gn/T/arduino-core-cache/core_0bde13c9a0eea2bfdc716a2fc04bccd4.a(adc.c.o)
 .comment       0x000000000000007e       0x7f /var/folders/hj/xvmq845d4rq0_l026j3g6x8c0000gn/T/arduino-core-cache/core_0bde13c9a0eea2bfdc716a2fc04bccd4.a(adc_f1.c.o)
 .comment       0x000000000000007e       0x7f /var/folders/hj/xvmq845d4rq0_l026j3g6x8c0000gn/T/arduino-core-cache/core_0bde13c9a0eea2bfdc716a2fc04bccd4.a(dma_f1.c.o)
 .comment       0x000000000000007e       0x7f /var/folders/hj/xvmq845d4rq0_l026j3g6x8c0000gn/T/arduino-core-cache/core_0bde13c9a0eea2bfdc716a2fc04bccd4.a(exti.c.o)
 .comment       0x000000000000007e       0x7f /var/folders/hj/xvmq845d4rq0_l026j3g6x8c0000gn/T/arduino-core-cache/core_0bde13c9a0eea2bfdc716a2fc04bccd4.a(flash.c.o)
 .comment       0x000000000000007e       0x7f /var/folders/hj/xvmq845d4rq0_l026j3g6x8c0000gn/T/arduino-core-cache/core_0bde13c9a0eea2bfdc716a2fc04bccd4.a(gpio_f1.c.o)
 .comment       0x000000000000007e       0x7f /var/folders/hj/xvmq845d4rq0_l026j3g6x8c0000gn/T/arduino-core-cache/core_0bde13c9a0eea2bfdc716a2fc04bccd4.a(i2c_f1.c.o)
 .comment       0x000000000000007e       0x7f /var/folders/hj/xvmq845d4rq0_l026j3g6x8c0000gn/T/arduino-core-cache/core_0bde13c9a0eea2bfdc716a2fc04bccd4.a(nvic.c.o)
 .comment       0x000000000000007e       0x7f /var/folders/hj/xvmq845d4rq0_l026j3g6x8c0000gn/T/arduino-core-cache/core_0bde13c9a0eea2bfdc716a2fc04bccd4.a(rcc.c.o)
 .comment       0x000000000000007e       0x7f /var/folders/hj/xvmq845d4rq0_l026j3g6x8c0000gn/T/arduino-core-cache/core_0bde13c9a0eea2bfdc716a2fc04bccd4.a(rcc_f1.c.o)
 .comment       0x000000000000007e       0x7f /var/folders/hj/xvmq845d4rq0_l026j3g6x8c0000gn/T/arduino-core-cache/core_0bde13c9a0eea2bfdc716a2fc04bccd4.a(systick.c.o)
 .comment       0x000000000000007e       0x7f /var/folders/hj/xvmq845d4rq0_l026j3g6x8c0000gn/T/arduino-core-cache/core_0bde13c9a0eea2bfdc716a2fc04bccd4.a(timer.c.o)
 .comment       0x000000000000007e       0x7f /var/folders/hj/xvmq845d4rq0_l026j3g6x8c0000gn/T/arduino-core-cache/core_0bde13c9a0eea2bfdc716a2fc04bccd4.a(usart_f1.c.o)
 .comment       0x000000000000007e       0x7f /var/folders/hj/xvmq845d4rq0_l026j3g6x8c0000gn/T/arduino-core-cache/core_0bde13c9a0eea2bfdc716a2fc04bccd4.a(usb.c.o)
 .comment       0x000000000000007e       0x7f /var/folders/hj/xvmq845d4rq0_l026j3g6x8c0000gn/T/arduino-core-cache/core_0bde13c9a0eea2bfdc716a2fc04bccd4.a(usb_cdcacm.c.o)
 .comment       0x000000000000007e       0x7f /var/folders/hj/xvmq845d4rq0_l026j3g6x8c0000gn/T/arduino-core-cache/core_0bde13c9a0eea2bfdc716a2fc04bccd4.a(usb_reg_map.c.o)
 .comment       0x000000000000007e       0x7f /var/folders/hj/xvmq845d4rq0_l026j3g6x8c0000gn/T/arduino-core-cache/core_0bde13c9a0eea2bfdc716a2fc04bccd4.a(usb_core.c.o)
 .comment       0x000000000000007e       0x7f /var/folders/hj/xvmq845d4rq0_l026j3g6x8c0000gn/T/arduino-core-cache/core_0bde13c9a0eea2bfdc716a2fc04bccd4.a(usb_init.c.o)
 .comment       0x000000000000007e       0x7f /var/folders/hj/xvmq845d4rq0_l026j3g6x8c0000gn/T/arduino-core-cache/core_0bde13c9a0eea2bfdc716a2fc04bccd4.a(usb_mem.c.o)
 .comment       0x000000000000007e       0x7f /var/folders/hj/xvmq845d4rq0_l026j3g6x8c0000gn/T/arduino-core-cache/core_0bde13c9a0eea2bfdc716a2fc04bccd4.a(usb_regs.c.o)
 .comment       0x000000000000007e       0x7f /var/folders/hj/xvmq845d4rq0_l026j3g6x8c0000gn/T/arduino-core-cache/core_0bde13c9a0eea2bfdc716a2fc04bccd4.a(util.c.o)
 .comment       0x000000000000007e       0x7f /var/folders/hj/xvmq845d4rq0_l026j3g6x8c0000gn/T/arduino-core-cache/core_0bde13c9a0eea2bfdc716a2fc04bccd4.a(HardwareSerial.cpp.o)
 .comment       0x000000000000007e       0x7f /var/folders/hj/xvmq845d4rq0_l026j3g6x8c0000gn/T/arduino-core-cache/core_0bde13c9a0eea2bfdc716a2fc04bccd4.a(Print.cpp.o)
 .comment       0x000000000000007e       0x7f /var/folders/hj/xvmq845d4rq0_l026j3g6x8c0000gn/T/arduino-core-cache/core_0bde13c9a0eea2bfdc716a2fc04bccd4.a(main.cpp.o)
 .comment       0x000000000000007e       0x7f /var/folders/hj/xvmq845d4rq0_l026j3g6x8c0000gn/T/arduino-core-cache/core_0bde13c9a0eea2bfdc716a2fc04bccd4.a(usb_serial.cpp.o)
 .comment       0x000000000000007e       0x7f /var/folders/hj/xvmq845d4rq0_l026j3g6x8c0000gn/T/arduino-core-cache/core_0bde13c9a0eea2bfdc716a2fc04bccd4.a(wirish_time.cpp.o)
 .comment       0x000000000000007e       0x7f /var/folders/hj/xvmq845d4rq0_l026j3g6x8c0000gn/T/arduino-core-cache/core_0bde13c9a0eea2bfdc716a2fc04bccd4.a(hooks.c.o)
 .comment       0x000000000000007e       0x7f /var/folders/hj/xvmq845d4rq0_l026j3g6x8c0000gn/T/arduino-core-cache/core_0bde13c9a0eea2bfdc716a2fc04bccd4.a(bkp_f1.c.o)
 .comment       0x000000000000007e       0x7f /var/folders/hj/xvmq845d4rq0_l026j3g6x8c0000gn/T/arduino-core-cache/core_0bde13c9a0eea2bfdc716a2fc04bccd4.a(gpio.c.o)
 .comment       0x000000000000007e       0x7f /var/folders/hj/xvmq845d4rq0_l026j3g6x8c0000gn/T/arduino-core-cache/core_0bde13c9a0eea2bfdc716a2fc04bccd4.a(i2c.c.o)
 .comment       0x000000000000007e       0x7f /var/folders/hj/xvmq845d4rq0_l026j3g6x8c0000gn/T/arduino-core-cache/core_0bde13c9a0eea2bfdc716a2fc04bccd4.a(usart.c.o)

Cross Reference Table

Symbol                                            File
ADC1                                              /var/folders/hj/xvmq845d4rq0_l026j3g6x8c0000gn/T/arduino-core-cache/core_0bde13c9a0eea2bfdc716a2fc04bccd4.a(adc_f1.c.o)
ADC2                                              /var/folders/hj/xvmq845d4rq0_l026j3g6x8c0000gn/T/arduino-core-cache/core_0bde13c9a0eea2bfdc716a2fc04bccd4.a(adc_f1.c.o)
BKP                                               /var/folders/hj/xvmq845d4rq0_l026j3g6x8c0000gn/T/arduino-core-cache/core_0bde13c9a0eea2bfdc716a2fc04bccd4.a(bkp_f1.c.o)
ByteSwap                                          /var/folders/hj/xvmq845d4rq0_l026j3g6x8c0000gn/T/arduino-core-cache/core_0bde13c9a0eea2bfdc716a2fc04bccd4.a(usb_regs.c.o)
ClearConsole()                                    /var/folders/hj/xvmq845d4rq0_l026j3g6x8c0000gn/T/arduino-sketch-783AC80E8B34696ACA1CC87DB6CF7DB3/sketch/LowMemoryExample.ino.cpp.o
ClearCurrentLine()                                /var/folders/hj/xvmq845d4rq0_l026j3g6x8c0000gn/T/arduino-sketch-783AC80E8B34696ACA1CC87DB6CF7DB3/sketch/LowMemoryExample.ino.cpp.o
ClearDTOG_RX                                      /var/folders/hj/xvmq845d4rq0_l026j3g6x8c0000gn/T/arduino-core-cache/core_0bde13c9a0eea2bfdc716a2fc04bccd4.a(usb_regs.c.o)
                                                  /var/folders/hj/xvmq845d4rq0_l026j3g6x8c0000gn/T/arduino-core-cache/core_0bde13c9a0eea2bfdc716a2fc04bccd4.a(usb_core.c.o)
ClearDTOG_TX                                      /var/folders/hj/xvmq845d4rq0_l026j3g6x8c0000gn/T/arduino-core-cache/core_0bde13c9a0eea2bfdc716a2fc04bccd4.a(usb_regs.c.o)
                                                  /var/folders/hj/xvmq845d4rq0_l026j3g6x8c0000gn/T/arduino-core-cache/core_0bde13c9a0eea2bfdc716a2fc04bccd4.a(usb_core.c.o)
ClearEPDoubleBuff                                 /var/folders/hj/xvmq845d4rq0_l026j3g6x8c0000gn/T/arduino-core-cache/core_0bde13c9a0eea2bfdc716a2fc04bccd4.a(usb_regs.c.o)
ClearEP_CTR_RX                                    /var/folders/hj/xvmq845d4rq0_l026j3g6x8c0000gn/T/arduino-core-cache/core_0bde13c9a0eea2bfdc716a2fc04bccd4.a(usb_regs.c.o)
ClearEP_CTR_TX                                    /var/folders/hj/xvmq845d4rq0_l026j3g6x8c0000gn/T/arduino-core-cache/core_0bde13c9a0eea2bfdc716a2fc04bccd4.a(usb_regs.c.o)
ClearEP_KIND                                      /var/folders/hj/xvmq845d4rq0_l026j3g6x8c0000gn/T/arduino-core-cache/core_0bde13c9a0eea2bfdc716a2fc04bccd4.a(usb_regs.c.o)
Clear_Status_Out                                  /var/folders/hj/xvmq845d4rq0_l026j3g6x8c0000gn/T/arduino-core-cache/core_0bde13c9a0eea2bfdc716a2fc04bccd4.a(usb_regs.c.o)
CorePartition_CRC16                               /var/folders/hj/xvmq845d4rq0_l026j3g6x8c0000gn/T/arduino-sketch-783AC80E8B34696ACA1CC87DB6CF7DB3/libraries/CorePartition/CorePartition.c.o
CorePartition_CreateSecureThread                  /var/folders/hj/xvmq845d4rq0_l026j3g6x8c0000gn/T/arduino-sketch-783AC80E8B34696ACA1CC87DB6CF7DB3/libraries/CorePartition/CorePartition.c.o
                                                  /var/folders/hj/xvmq845d4rq0_l026j3g6x8c0000gn/T/arduino-sketch-783AC80E8B34696ACA1CC87DB6CF7DB3/sketch/LowMemoryExample.ino.cpp.o
CorePartition_CreateThread                        /var/folders/hj/xvmq845d4rq0_l026j3g6x8c0000gn/T/arduino-sketch-783AC80E8B34696ACA1CC87DB6CF7DB3/libraries/CorePartition/CorePartition.c.o
                                                  /var/folders/hj/xvmq845d4rq0_l026j3g6x8c0000gn/T/arduino-sketch-783AC80E8B34696ACA1CC87DB6CF7DB3/sketch/LowMemoryExample.ino.cpp.o
CorePartition_CreateThread_                       /var/folders/hj/xvmq845d4rq0_l026j3g6x8c0000gn/T/arduino-sketch-783AC80E8B34696ACA1CC87DB6CF7DB3/libraries/CorePartition/CorePartition.c.o
CorePartition_EnableBroker                        /var/folders/hj/xvmq845d4rq0_l026j3g6x8c0000gn/T/arduino-sketch-783AC80E8B34696ACA1CC87DB6CF7DB3/libraries/CorePartition/CorePartition.c.o
                                                  /var/folders/hj/xvmq845d4rq0_l026j3g6x8c0000gn/T/arduino-sketch-783AC80E8B34696ACA1CC87DB6CF7DB3/sketch/LowMemoryExample.ino.cpp.o
CorePartition_GetCurrentTick                      /var/folders/hj/xvmq845d4rq0_l026j3g6x8c0000gn/T/arduino-sketch-783AC80E8B34696ACA1CC87DB6CF7DB3/sketch/LowMemoryExample.ino.cpp.o
                                                  /var/folders/hj/xvmq845d4rq0_l026j3g6x8c0000gn/T/arduino-sketch-783AC80E8B34696ACA1CC87DB6CF7DB3/libraries/CorePartition/CorePartition.c.o
CorePartition_GetID                               /var/folders/hj/xvmq845d4rq0_l026j3g6x8c0000gn/T/arduino-sketch-783AC80E8B34696ACA1CC87DB6CF7DB3/libraries/CorePartition/CorePartition.c.o
                                                  /var/folders/hj/xvmq845d4rq0_l026j3g6x8c0000gn/T/arduino-sketch-783AC80E8B34696ACA1CC87DB6CF7DB3/sketch/LowMemoryExample.ino.cpp.o
CorePartition_GetLastDutyCycleByID                /var/folders/hj/xvmq845d4rq0_l026j3g6x8c0000gn/T/arduino-sketch-783AC80E8B34696ACA1CC87DB6CF7DB3/libraries/CorePartition/CorePartition.c.o
                                                  /var/folders/hj/xvmq845d4rq0_l026j3g6x8c0000gn/T/arduino-sketch-783AC80E8B34696ACA1CC87DB6CF7DB3/sketch/LowMemoryExample.ino.cpp.o
CorePartition_GetLastMomentumByID                 /var/folders/hj/xvmq845d4rq0_l026j3g6x8c0000gn/T/arduino-sketch-783AC80E8B34696ACA1CC87DB6CF7DB3/libraries/CorePartition/CorePartition.c.o
                                                  /var/folders/hj/xvmq845d4rq0_l026j3g6x8c0000gn/T/arduino-sketch-783AC80E8B34696ACA1CC87DB6CF7DB3/sketch/LowMemoryExample.ino.cpp.o
CorePartition_GetMaxNumberOfThreads               /var/folders/hj/xvmq845d4rq0_l026j3g6x8c0000gn/T/arduino-sketch-783AC80E8B34696ACA1CC87DB6CF7DB3/libraries/CorePartition/CorePartition.c.o
                                                  /var/folders/hj/xvmq845d4rq0_l026j3g6x8c0000gn/T/arduino-sketch-783AC80E8B34696ACA1CC87DB6CF7DB3/sketch/LowMemoryExample.ino.cpp.o
CorePartition_GetMaxStackSizeByID                 /var/folders/hj/xvmq845d4rq0_l026j3g6x8c0000gn/T/arduino-sketch-783AC80E8B34696ACA1CC87DB6CF7DB3/libraries/CorePartition/CorePartition.c.o
                                                  /var/folders/hj/xvmq845d4rq0_l026j3g6x8c0000gn/T/arduino-sketch-783AC80E8B34696ACA1CC87DB6CF7DB3/sketch/LowMemoryExample.ino.cpp.o
CorePartition_GetNiceByID                         /var/folders/hj/xvmq845d4rq0_l026j3g6x8c0000gn/T/arduino-sketch-783AC80E8B34696ACA1CC87DB6CF7DB3/libraries/CorePartition/CorePartition.c.o
                                                  /var/folders/hj/xvmq845d4rq0_l026j3g6x8c0000gn/T/arduino-sketch-783AC80E8B34696ACA1CC87DB6CF7DB3/sketch/LowMemoryExample.ino.cpp.o
CorePartition_GetNumberOfActiveThreads            /var/folders/hj/xvmq845d4rq0_l026j3g6x8c0000gn/T/arduino-sketch-783AC80E8B34696ACA1CC87DB6CF7DB3/libraries/CorePartition/CorePartition.c.o
                                                  /var/folders/hj/xvmq845d4rq0_l026j3g6x8c0000gn/T/arduino-sketch-783AC80E8B34696ACA1CC87DB6CF7DB3/sketch/LowMemoryExample.ino.cpp.o
CorePartition_GetStackSizeByID                    /var/folders/hj/xvmq845d4rq0_l026j3g6x8c0000gn/T/arduino-sketch-783AC80E8B34696ACA1CC87DB6CF7DB3/libraries/CorePartition/CorePartition.c.o
                                                  /var/folders/hj/xvmq845d4rq0_l026j3g6x8c0000gn/T/arduino-sketch-783AC80E8B34696ACA1CC87DB6CF7DB3/sketch/LowMemoryExample.ino.cpp.o
CorePartition_GetStatusByID                       /var/folders/hj/xvmq845d4rq0_l026j3g6x8c0000gn/T/arduino-sketch-783AC80E8B34696ACA1CC87DB6CF7DB3/libraries/CorePartition/CorePartition.c.o
                                                  /var/folders/hj/xvmq845d4rq0_l026j3g6x8c0000gn/T/arduino-sketch-783AC80E8B34696ACA1CC87DB6CF7DB3/sketch/LowMemoryExample.ino.cpp.o
CorePartition_GetThreadContextSize                /var/folders/hj/xvmq845d4rq0_l026j3g6x8c0000gn/T/arduino-sketch-783AC80E8B34696ACA1CC87DB6CF7DB3/libraries/CorePartition/CorePartition.c.o
                                                  /var/folders/hj/xvmq845d4rq0_l026j3g6x8c0000gn/T/arduino-sketch-783AC80E8B34696ACA1CC87DB6CF7DB3/sketch/LowMemoryExample.ino.cpp.o
CorePartition_GetThreadNameByID                   /var/folders/hj/xvmq845d4rq0_l026j3g6x8c0000gn/T/arduino-sketch-783AC80E8B34696ACA1CC87DB6CF7DB3/libraries/CorePartition/CorePartition.c.o
                                                  /var/folders/hj/xvmq845d4rq0_l026j3g6x8c0000gn/T/arduino-sketch-783AC80E8B34696ACA1CC87DB6CF7DB3/sketch/LowMemoryExample.ino.cpp.o
CorePartition_IsCoreRunning                       /var/folders/hj/xvmq845d4rq0_l026j3g6x8c0000gn/T/arduino-sketch-783AC80E8B34696ACA1CC87DB6CF7DB3/libraries/CorePartition/CorePartition.c.o
CorePartition_IsSecureByID                        /var/folders/hj/xvmq845d4rq0_l026j3g6x8c0000gn/T/arduino-sketch-783AC80E8B34696ACA1CC87DB6CF7DB3/libraries/CorePartition/CorePartition.c.o
CorePartition_IsSubscribed                        /var/folders/hj/xvmq845d4rq0_l026j3g6x8c0000gn/T/arduino-sketch-783AC80E8B34696ACA1CC87DB6CF7DB3/libraries/CorePartition/CorePartition.c.o
CorePartition_Join                                /var/folders/hj/xvmq845d4rq0_l026j3g6x8c0000gn/T/arduino-sketch-783AC80E8B34696ACA1CC87DB6CF7DB3/libraries/CorePartition/CorePartition.c.o
                                                  /var/folders/hj/xvmq845d4rq0_l026j3g6x8c0000gn/T/arduino-sketch-783AC80E8B34696ACA1CC87DB6CF7DB3/sketch/LowMemoryExample.ino.cpp.o
CorePartition_NotifyAll                           /var/folders/hj/xvmq845d4rq0_l026j3g6x8c0000gn/T/arduino-sketch-783AC80E8B34696ACA1CC87DB6CF7DB3/libraries/CorePartition/CorePartition.c.o
CorePartition_NotifyMessageAll                    /var/folders/hj/xvmq845d4rq0_l026j3g6x8c0000gn/T/arduino-sketch-783AC80E8B34696ACA1CC87DB6CF7DB3/libraries/CorePartition/CorePartition.c.o
CorePartition_NotifyMessageOne                    /var/folders/hj/xvmq845d4rq0_l026j3g6x8c0000gn/T/arduino-sketch-783AC80E8B34696ACA1CC87DB6CF7DB3/libraries/CorePartition/CorePartition.c.o
CorePartition_NotifyOne                           /var/folders/hj/xvmq845d4rq0_l026j3g6x8c0000gn/T/arduino-sketch-783AC80E8B34696ACA1CC87DB6CF7DB3/libraries/CorePartition/CorePartition.c.o
CorePartition_PublishTopic                        /var/folders/hj/xvmq845d4rq0_l026j3g6x8c0000gn/T/arduino-sketch-783AC80E8B34696ACA1CC87DB6CF7DB3/libraries/CorePartition/CorePartition.c.o
                                                  /var/folders/hj/xvmq845d4rq0_l026j3g6x8c0000gn/T/arduino-sketch-783AC80E8B34696ACA1CC87DB6CF7DB3/sketch/LowMemoryExample.ino.cpp.o
CorePartition_SetNice                             /var/folders/hj/xvmq845d4rq0_l026j3g6x8c0000gn/T/arduino-sketch-783AC80E8B34696ACA1CC87DB6CF7DB3/libraries/CorePartition/CorePartition.c.o
CorePartition_SetStackOverflowHandler             /var/folders/hj/xvmq845d4rq0_l026j3g6x8c0000gn/T/arduino-sketch-783AC80E8B34696ACA1CC87DB6CF7DB3/libraries/CorePartition/CorePartition.c.o
                                                  /var/folders/hj/xvmq845d4rq0_l026j3g6x8c0000gn/T/arduino-sketch-783AC80E8B34696ACA1CC87DB6CF7DB3/sketch/LowMemoryExample.ino.cpp.o
CorePartition_SetThreadNameByID                   /var/folders/hj/xvmq845d4rq0_l026j3g6x8c0000gn/T/arduino-sketch-783AC80E8B34696ACA1CC87DB6CF7DB3/libraries/CorePartition/CorePartition.c.o
                                                  /var/folders/hj/xvmq845d4rq0_l026j3g6x8c0000gn/T/arduino-sketch-783AC80E8B34696ACA1CC87DB6CF7DB3/sketch/LowMemoryExample.ino.cpp.o
CorePartition_Sleep                               /var/folders/hj/xvmq845d4rq0_l026j3g6x8c0000gn/T/arduino-sketch-783AC80E8B34696ACA1CC87DB6CF7DB3/libraries/CorePartition/CorePartition.c.o
CorePartition_SleepTicks                          /var/folders/hj/xvmq845d4rq0_l026j3g6x8c0000gn/T/arduino-sketch-783AC80E8B34696ACA1CC87DB6CF7DB3/sketch/LowMemoryExample.ino.cpp.o
                                                  /var/folders/hj/xvmq845d4rq0_l026j3g6x8c0000gn/T/arduino-sketch-783AC80E8B34696ACA1CC87DB6CF7DB3/libraries/CorePartition/CorePartition.c.o
CorePartition_Start                               /var/folders/hj/xvmq845d4rq0_l026j3g6x8c0000gn/T/arduino-sketch-783AC80E8B34696ACA1CC87DB6CF7DB3/libraries/CorePartition/CorePartition.c.o
                                                  /var/folders/hj/xvmq845d4rq0_l026j3g6x8c0000gn/T/arduino-sketch-783AC80E8B34696ACA1CC87DB6CF7DB3/sketch/LowMemoryExample.ino.cpp.o
CorePartition_SubscribeTopic                      /var/folders/hj/xvmq845d4rq0_l026j3g6x8c0000gn/T/arduino-sketch-783AC80E8B34696ACA1CC87DB6CF7DB3/libraries/CorePartition/CorePartition.c.o
                                                  /var/folders/hj/xvmq845d4rq0_l026j3g6x8c0000gn/T/arduino-sketch-783AC80E8B34696ACA1CC87DB6CF7DB3/sketch/LowMemoryExample.ino.cpp.o
CorePartition_Wait                                /var/folders/hj/xvmq845d4rq0_l026j3g6x8c0000gn/T/arduino-sketch-783AC80E8B34696ACA1CC87DB6CF7DB3/libraries/CorePartition/CorePartition.c.o
CorePartition_WaitMessage                         /var/folders/hj/xvmq845d4rq0_l026j3g6x8c0000gn/T/arduino-sketch-783AC80E8B34696ACA1CC87DB6CF7DB3/libraries/CorePartition/CorePartition.c.o
CorePartition_Yield                               /var/folders/hj/xvmq845d4rq0_l026j3g6x8c0000gn/T/arduino-sketch-783AC80E8B34696ACA1CC87DB6CF7DB3/libraries/CorePartition/CorePartition.c.o
                                                  /var/folders/hj/xvmq845d4rq0_l026j3g6x8c0000gn/T/arduino-sketch-783AC80E8B34696ACA1CC87DB6CF7DB3/sketch/LowMemoryExample.ino.cpp.o
CounterThread(void*)                              /var/folders/hj/xvmq845d4rq0_l026j3g6x8c0000gn/T/arduino-sketch-783AC80E8B34696ACA1CC87DB6CF7DB3/sketch/LowMemoryExample.ino.cpp.o
DMA1                                              /var/folders/hj/xvmq845d4rq0_l026j3g6x8c0000gn/T/arduino-core-cache/core_0bde13c9a0eea2bfdc716a2fc04bccd4.a(dma_f1.c.o)
Data_Mul_MaxPacketSize                            /var/folders/hj/xvmq845d4rq0_l026j3g6x8c0000gn/T/arduino-core-cache/core_0bde13c9a0eea2bfdc716a2fc04bccd4.a(usb_core.c.o)
Delay(unsigned long long)                         /var/folders/hj/xvmq845d4rq0_l026j3g6x8c0000gn/T/arduino-sketch-783AC80E8B34696ACA1CC87DB6CF7DB3/sketch/LowMemoryExample.ino.cpp.o
Device_Info                                       /var/folders/hj/xvmq845d4rq0_l026j3g6x8c0000gn/T/arduino-core-cache/core_0bde13c9a0eea2bfdc716a2fc04bccd4.a(usb_init.c.o)
                                                  /var/folders/hj/xvmq845d4rq0_l026j3g6x8c0000gn/T/arduino-core-cache/core_0bde13c9a0eea2bfdc716a2fc04bccd4.a(usb.c.o)
Device_Property                                   /var/folders/hj/xvmq845d4rq0_l026j3g6x8c0000gn/T/arduino-core-cache/core_0bde13c9a0eea2bfdc716a2fc04bccd4.a(usb_cdcacm.c.o)
                                                  /var/folders/hj/xvmq845d4rq0_l026j3g6x8c0000gn/T/arduino-core-cache/core_0bde13c9a0eea2bfdc716a2fc04bccd4.a(usb_init.c.o)
                                                  /var/folders/hj/xvmq845d4rq0_l026j3g6x8c0000gn/T/arduino-core-cache/core_0bde13c9a0eea2bfdc716a2fc04bccd4.a(usb_core.c.o)
                                                  /var/folders/hj/xvmq845d4rq0_l026j3g6x8c0000gn/T/arduino-core-cache/core_0bde13c9a0eea2bfdc716a2fc04bccd4.a(usb.c.o)
Device_Table                                      /var/folders/hj/xvmq845d4rq0_l026j3g6x8c0000gn/T/arduino-core-cache/core_0bde13c9a0eea2bfdc716a2fc04bccd4.a(usb_cdcacm.c.o)
                                                  /var/folders/hj/xvmq845d4rq0_l026j3g6x8c0000gn/T/arduino-core-cache/core_0bde13c9a0eea2bfdc716a2fc04bccd4.a(usb_core.c.o)
EPindex                                           /var/folders/hj/xvmq845d4rq0_l026j3g6x8c0000gn/T/arduino-core-cache/core_0bde13c9a0eea2bfdc716a2fc04bccd4.a(usb_init.c.o)
FreeUserBuffer                                    /var/folders/hj/xvmq845d4rq0_l026j3g6x8c0000gn/T/arduino-core-cache/core_0bde13c9a0eea2bfdc716a2fc04bccd4.a(usb_regs.c.o)
GPIOA                                             /var/folders/hj/xvmq845d4rq0_l026j3g6x8c0000gn/T/arduino-core-cache/core_0bde13c9a0eea2bfdc716a2fc04bccd4.a(gpio_f1.c.o)
GPIOB                                             /var/folders/hj/xvmq845d4rq0_l026j3g6x8c0000gn/T/arduino-core-cache/core_0bde13c9a0eea2bfdc716a2fc04bccd4.a(gpio_f1.c.o)
GPIOC                                             /var/folders/hj/xvmq845d4rq0_l026j3g6x8c0000gn/T/arduino-core-cache/core_0bde13c9a0eea2bfdc716a2fc04bccd4.a(gpio_f1.c.o)
                                                  /var/folders/hj/xvmq845d4rq0_l026j3g6x8c0000gn/T/arduino-core-cache/core_0bde13c9a0eea2bfdc716a2fc04bccd4.a(util.c.o)
GPIOD                                             /var/folders/hj/xvmq845d4rq0_l026j3g6x8c0000gn/T/arduino-core-cache/core_0bde13c9a0eea2bfdc716a2fc04bccd4.a(gpio_f1.c.o)
GetBTABLE                                         /var/folders/hj/xvmq845d4rq0_l026j3g6x8c0000gn/T/arduino-core-cache/core_0bde13c9a0eea2bfdc716a2fc04bccd4.a(usb_regs.c.o)
GetCNTR                                           /var/folders/hj/xvmq845d4rq0_l026j3g6x8c0000gn/T/arduino-core-cache/core_0bde13c9a0eea2bfdc716a2fc04bccd4.a(usb_regs.c.o)
GetDADDR                                          /var/folders/hj/xvmq845d4rq0_l026j3g6x8c0000gn/T/arduino-core-cache/core_0bde13c9a0eea2bfdc716a2fc04bccd4.a(usb_regs.c.o)
GetENDPOINT                                       /var/folders/hj/xvmq845d4rq0_l026j3g6x8c0000gn/T/arduino-core-cache/core_0bde13c9a0eea2bfdc716a2fc04bccd4.a(usb_regs.c.o)
GetEPAddress                                      /var/folders/hj/xvmq845d4rq0_l026j3g6x8c0000gn/T/arduino-core-cache/core_0bde13c9a0eea2bfdc716a2fc04bccd4.a(usb_regs.c.o)
GetEPDblBuf0Addr                                  /var/folders/hj/xvmq845d4rq0_l026j3g6x8c0000gn/T/arduino-core-cache/core_0bde13c9a0eea2bfdc716a2fc04bccd4.a(usb_regs.c.o)
GetEPDblBuf0Count                                 /var/folders/hj/xvmq845d4rq0_l026j3g6x8c0000gn/T/arduino-core-cache/core_0bde13c9a0eea2bfdc716a2fc04bccd4.a(usb_regs.c.o)
GetEPDblBuf1Addr                                  /var/folders/hj/xvmq845d4rq0_l026j3g6x8c0000gn/T/arduino-core-cache/core_0bde13c9a0eea2bfdc716a2fc04bccd4.a(usb_regs.c.o)
GetEPDblBuf1Count                                 /var/folders/hj/xvmq845d4rq0_l026j3g6x8c0000gn/T/arduino-core-cache/core_0bde13c9a0eea2bfdc716a2fc04bccd4.a(usb_regs.c.o)
GetEPDblBufDir                                    /var/folders/hj/xvmq845d4rq0_l026j3g6x8c0000gn/T/arduino-core-cache/core_0bde13c9a0eea2bfdc716a2fc04bccd4.a(usb_regs.c.o)
GetEPRxAddr                                       /var/folders/hj/xvmq845d4rq0_l026j3g6x8c0000gn/T/arduino-core-cache/core_0bde13c9a0eea2bfdc716a2fc04bccd4.a(usb_regs.c.o)
                                                  /var/folders/hj/xvmq845d4rq0_l026j3g6x8c0000gn/T/arduino-core-cache/core_0bde13c9a0eea2bfdc716a2fc04bccd4.a(usb_core.c.o)
GetEPRxCount                                      /var/folders/hj/xvmq845d4rq0_l026j3g6x8c0000gn/T/arduino-core-cache/core_0bde13c9a0eea2bfdc716a2fc04bccd4.a(usb_regs.c.o)
GetEPRxStatus                                     /var/folders/hj/xvmq845d4rq0_l026j3g6x8c0000gn/T/arduino-core-cache/core_0bde13c9a0eea2bfdc716a2fc04bccd4.a(usb_regs.c.o)
GetEPTxAddr                                       /var/folders/hj/xvmq845d4rq0_l026j3g6x8c0000gn/T/arduino-core-cache/core_0bde13c9a0eea2bfdc716a2fc04bccd4.a(usb_regs.c.o)
                                                  /var/folders/hj/xvmq845d4rq0_l026j3g6x8c0000gn/T/arduino-core-cache/core_0bde13c9a0eea2bfdc716a2fc04bccd4.a(usb_core.c.o)
GetEPTxCount                                      /var/folders/hj/xvmq845d4rq0_l026j3g6x8c0000gn/T/arduino-core-cache/core_0bde13c9a0eea2bfdc716a2fc04bccd4.a(usb_regs.c.o)
GetEPTxStatus                                     /var/folders/hj/xvmq845d4rq0_l026j3g6x8c0000gn/T/arduino-core-cache/core_0bde13c9a0eea2bfdc716a2fc04bccd4.a(usb_regs.c.o)
GetEPType                                         /var/folders/hj/xvmq845d4rq0_l026j3g6x8c0000gn/T/arduino-core-cache/core_0bde13c9a0eea2bfdc716a2fc04bccd4.a(usb_regs.c.o)
GetFNR                                            /var/folders/hj/xvmq845d4rq0_l026j3g6x8c0000gn/T/arduino-core-cache/core_0bde13c9a0eea2bfdc716a2fc04bccd4.a(usb_regs.c.o)
GetISTR                                           /var/folders/hj/xvmq845d4rq0_l026j3g6x8c0000gn/T/arduino-core-cache/core_0bde13c9a0eea2bfdc716a2fc04bccd4.a(usb_regs.c.o)
GetRxStallStatus                                  /var/folders/hj/xvmq845d4rq0_l026j3g6x8c0000gn/T/arduino-core-cache/core_0bde13c9a0eea2bfdc716a2fc04bccd4.a(usb_regs.c.o)
GetTxStallStatus                                  /var/folders/hj/xvmq845d4rq0_l026j3g6x8c0000gn/T/arduino-core-cache/core_0bde13c9a0eea2bfdc716a2fc04bccd4.a(usb_regs.c.o)
HardwareSerial::HardwareSerial(usart_dev*, unsigned char, unsigned char) /var/folders/hj/xvmq845d4rq0_l026j3g6x8c0000gn/T/arduino-core-cache/core_0bde13c9a0eea2bfdc716a2fc04bccd4.a(HardwareSerial.cpp.o)
                                                  /var/folders/hj/xvmq845d4rq0_l026j3g6x8c0000gn/T/arduino-sketch-783AC80E8B34696ACA1CC87DB6CF7DB3/core/board.cpp.o
HardwareSerial::HardwareSerial(usart_dev*, unsigned char, unsigned char) /var/folders/hj/xvmq845d4rq0_l026j3g6x8c0000gn/T/arduino-core-cache/core_0bde13c9a0eea2bfdc716a2fc04bccd4.a(HardwareSerial.cpp.o)
HardwareSerial::available()                       /var/folders/hj/xvmq845d4rq0_l026j3g6x8c0000gn/T/arduino-core-cache/core_0bde13c9a0eea2bfdc716a2fc04bccd4.a(HardwareSerial.cpp.o)
HardwareSerial::availableForWrite()               /var/folders/hj/xvmq845d4rq0_l026j3g6x8c0000gn/T/arduino-core-cache/core_0bde13c9a0eea2bfdc716a2fc04bccd4.a(HardwareSerial.cpp.o)
HardwareSerial::begin(unsigned long)              /var/folders/hj/xvmq845d4rq0_l026j3g6x8c0000gn/T/arduino-core-cache/core_0bde13c9a0eea2bfdc716a2fc04bccd4.a(HardwareSerial.cpp.o)
HardwareSerial::begin(unsigned long, unsigned char) /var/folders/hj/xvmq845d4rq0_l026j3g6x8c0000gn/T/arduino-core-cache/core_0bde13c9a0eea2bfdc716a2fc04bccd4.a(HardwareSerial.cpp.o)
HardwareSerial::end()                             /var/folders/hj/xvmq845d4rq0_l026j3g6x8c0000gn/T/arduino-core-cache/core_0bde13c9a0eea2bfdc716a2fc04bccd4.a(HardwareSerial.cpp.o)
HardwareSerial::flush()                           /var/folders/hj/xvmq845d4rq0_l026j3g6x8c0000gn/T/arduino-core-cache/core_0bde13c9a0eea2bfdc716a2fc04bccd4.a(HardwareSerial.cpp.o)
HardwareSerial::peek()                            /var/folders/hj/xvmq845d4rq0_l026j3g6x8c0000gn/T/arduino-core-cache/core_0bde13c9a0eea2bfdc716a2fc04bccd4.a(HardwareSerial.cpp.o)
HardwareSerial::read()                            /var/folders/hj/xvmq845d4rq0_l026j3g6x8c0000gn/T/arduino-core-cache/core_0bde13c9a0eea2bfdc716a2fc04bccd4.a(HardwareSerial.cpp.o)
HardwareSerial::write(unsigned char)              /var/folders/hj/xvmq845d4rq0_l026j3g6x8c0000gn/T/arduino-core-cache/core_0bde13c9a0eea2bfdc716a2fc04bccd4.a(HardwareSerial.cpp.o)
HideCursor()                                      /var/folders/hj/xvmq845d4rq0_l026j3g6x8c0000gn/T/arduino-sketch-783AC80E8B34696ACA1CC87DB6CF7DB3/sketch/LowMemoryExample.ino.cpp.o
I2C1                                              /var/folders/hj/xvmq845d4rq0_l026j3g6x8c0000gn/T/arduino-core-cache/core_0bde13c9a0eea2bfdc716a2fc04bccd4.a(i2c_f1.c.o)
                                                  /var/folders/hj/xvmq845d4rq0_l026j3g6x8c0000gn/T/arduino-core-cache/core_0bde13c9a0eea2bfdc716a2fc04bccd4.a(i2c.c.o)
I2C2                                              /var/folders/hj/xvmq845d4rq0_l026j3g6x8c0000gn/T/arduino-core-cache/core_0bde13c9a0eea2bfdc716a2fc04bccd4.a(i2c_f1.c.o)
In0_Process                                       /var/folders/hj/xvmq845d4rq0_l026j3g6x8c0000gn/T/arduino-core-cache/core_0bde13c9a0eea2bfdc716a2fc04bccd4.a(usb_core.c.o)
                                                  /var/folders/hj/xvmq845d4rq0_l026j3g6x8c0000gn/T/arduino-core-cache/core_0bde13c9a0eea2bfdc716a2fc04bccd4.a(usb.c.o)
NOP_Process                                       /var/folders/hj/xvmq845d4rq0_l026j3g6x8c0000gn/T/arduino-core-cache/core_0bde13c9a0eea2bfdc716a2fc04bccd4.a(usb_core.c.o)
                                                  /var/folders/hj/xvmq845d4rq0_l026j3g6x8c0000gn/T/arduino-core-cache/core_0bde13c9a0eea2bfdc716a2fc04bccd4.a(usb_cdcacm.c.o)
Out0_Process                                      /var/folders/hj/xvmq845d4rq0_l026j3g6x8c0000gn/T/arduino-core-cache/core_0bde13c9a0eea2bfdc716a2fc04bccd4.a(usb_core.c.o)
                                                  /var/folders/hj/xvmq845d4rq0_l026j3g6x8c0000gn/T/arduino-core-cache/core_0bde13c9a0eea2bfdc716a2fc04bccd4.a(usb.c.o)
PIN_MAP                                           /var/folders/hj/xvmq845d4rq0_l026j3g6x8c0000gn/T/arduino-sketch-783AC80E8B34696ACA1CC87DB6CF7DB3/core/board.cpp.o
                                                  /var/folders/hj/xvmq845d4rq0_l026j3g6x8c0000gn/T/arduino-core-cache/core_0bde13c9a0eea2bfdc716a2fc04bccd4.a(HardwareSerial.cpp.o)
                                                  /var/folders/hj/xvmq845d4rq0_l026j3g6x8c0000gn/T/arduino-sketch-783AC80E8B34696ACA1CC87DB6CF7DB3/core/wirish/boards_setup.cpp.o
PMAToUserBufferCopy                               /var/folders/hj/xvmq845d4rq0_l026j3g6x8c0000gn/T/arduino-core-cache/core_0bde13c9a0eea2bfdc716a2fc04bccd4.a(usb_mem.c.o)
                                                  /var/folders/hj/xvmq845d4rq0_l026j3g6x8c0000gn/T/arduino-core-cache/core_0bde13c9a0eea2bfdc716a2fc04bccd4.a(usb_core.c.o)
Post0_Process                                     /var/folders/hj/xvmq845d4rq0_l026j3g6x8c0000gn/T/arduino-core-cache/core_0bde13c9a0eea2bfdc716a2fc04bccd4.a(usb_core.c.o)
Print::print(Printable const&)                    /var/folders/hj/xvmq845d4rq0_l026j3g6x8c0000gn/T/arduino-core-cache/core_0bde13c9a0eea2bfdc716a2fc04bccd4.a(Print.cpp.o)
Print::print(String const&)                       /var/folders/hj/xvmq845d4rq0_l026j3g6x8c0000gn/T/arduino-core-cache/core_0bde13c9a0eea2bfdc716a2fc04bccd4.a(Print.cpp.o)
Print::print(__FlashStringHelper const*)          /var/folders/hj/xvmq845d4rq0_l026j3g6x8c0000gn/T/arduino-core-cache/core_0bde13c9a0eea2bfdc716a2fc04bccd4.a(Print.cpp.o)
                                                  /var/folders/hj/xvmq845d4rq0_l026j3g6x8c0000gn/T/arduino-sketch-783AC80E8B34696ACA1CC87DB6CF7DB3/sketch/LowMemoryExample.ino.cpp.o
Print::print(char const*)                         /var/folders/hj/xvmq845d4rq0_l026j3g6x8c0000gn/T/arduino-core-cache/core_0bde13c9a0eea2bfdc716a2fc04bccd4.a(Print.cpp.o)
                                                  /var/folders/hj/xvmq845d4rq0_l026j3g6x8c0000gn/T/arduino-sketch-783AC80E8B34696ACA1CC87DB6CF7DB3/sketch/LowMemoryExample.ino.cpp.o
Print::print(char)                                /var/folders/hj/xvmq845d4rq0_l026j3g6x8c0000gn/T/arduino-core-cache/core_0bde13c9a0eea2bfdc716a2fc04bccd4.a(Print.cpp.o)
Print::print(double, int)                         /var/folders/hj/xvmq845d4rq0_l026j3g6x8c0000gn/T/arduino-core-cache/core_0bde13c9a0eea2bfdc716a2fc04bccd4.a(Print.cpp.o)
Print::print(int, int)                            /var/folders/hj/xvmq845d4rq0_l026j3g6x8c0000gn/T/arduino-core-cache/core_0bde13c9a0eea2bfdc716a2fc04bccd4.a(Print.cpp.o)
                                                  /var/folders/hj/xvmq845d4rq0_l026j3g6x8c0000gn/T/arduino-sketch-783AC80E8B34696ACA1CC87DB6CF7DB3/sketch/LowMemoryExample.ino.cpp.o
Print::print(long long, int)                      /var/folders/hj/xvmq845d4rq0_l026j3g6x8c0000gn/T/arduino-core-cache/core_0bde13c9a0eea2bfdc716a2fc04bccd4.a(Print.cpp.o)
Print::print(long, int)                           /var/folders/hj/xvmq845d4rq0_l026j3g6x8c0000gn/T/arduino-core-cache/core_0bde13c9a0eea2bfdc716a2fc04bccd4.a(Print.cpp.o)
Print::print(unsigned char, int)                  /var/folders/hj/xvmq845d4rq0_l026j3g6x8c0000gn/T/arduino-core-cache/core_0bde13c9a0eea2bfdc716a2fc04bccd4.a(Print.cpp.o)
                                                  /var/folders/hj/xvmq845d4rq0_l026j3g6x8c0000gn/T/arduino-sketch-783AC80E8B34696ACA1CC87DB6CF7DB3/sketch/LowMemoryExample.ino.cpp.o
Print::print(unsigned int, int)                   /var/folders/hj/xvmq845d4rq0_l026j3g6x8c0000gn/T/arduino-core-cache/core_0bde13c9a0eea2bfdc716a2fc04bccd4.a(Print.cpp.o)
                                                  /var/folders/hj/xvmq845d4rq0_l026j3g6x8c0000gn/T/arduino-sketch-783AC80E8B34696ACA1CC87DB6CF7DB3/sketch/LowMemoryExample.ino.cpp.o
Print::print(unsigned long long, int)             /var/folders/hj/xvmq845d4rq0_l026j3g6x8c0000gn/T/arduino-core-cache/core_0bde13c9a0eea2bfdc716a2fc04bccd4.a(Print.cpp.o)
Print::print(unsigned long, int)                  /var/folders/hj/xvmq845d4rq0_l026j3g6x8c0000gn/T/arduino-core-cache/core_0bde13c9a0eea2bfdc716a2fc04bccd4.a(Print.cpp.o)
                                                  /var/folders/hj/xvmq845d4rq0_l026j3g6x8c0000gn/T/arduino-sketch-783AC80E8B34696ACA1CC87DB6CF7DB3/sketch/LowMemoryExample.ino.cpp.o
Print::printFloat(double, unsigned char)          /var/folders/hj/xvmq845d4rq0_l026j3g6x8c0000gn/T/arduino-core-cache/core_0bde13c9a0eea2bfdc716a2fc04bccd4.a(Print.cpp.o)
Print::printNumber(unsigned long long, unsigned char) /var/folders/hj/xvmq845d4rq0_l026j3g6x8c0000gn/T/arduino-core-cache/core_0bde13c9a0eea2bfdc716a2fc04bccd4.a(Print.cpp.o)
Print::println()                                  /var/folders/hj/xvmq845d4rq0_l026j3g6x8c0000gn/T/arduino-core-cache/core_0bde13c9a0eea2bfdc716a2fc04bccd4.a(Print.cpp.o)
                                                  /var/folders/hj/xvmq845d4rq0_l026j3g6x8c0000gn/T/arduino-sketch-783AC80E8B34696ACA1CC87DB6CF7DB3/sketch/LowMemoryExample.ino.cpp.o
Print::println(Printable const&)                  /var/folders/hj/xvmq845d4rq0_l026j3g6x8c0000gn/T/arduino-core-cache/core_0bde13c9a0eea2bfdc716a2fc04bccd4.a(Print.cpp.o)
Print::println(String const&)                     /var/folders/hj/xvmq845d4rq0_l026j3g6x8c0000gn/T/arduino-core-cache/core_0bde13c9a0eea2bfdc716a2fc04bccd4.a(Print.cpp.o)
Print::println(__FlashStringHelper const*)        /var/folders/hj/xvmq845d4rq0_l026j3g6x8c0000gn/T/arduino-core-cache/core_0bde13c9a0eea2bfdc716a2fc04bccd4.a(Print.cpp.o)
                                                  /var/folders/hj/xvmq845d4rq0_l026j3g6x8c0000gn/T/arduino-sketch-783AC80E8B34696ACA1CC87DB6CF7DB3/sketch/LowMemoryExample.ino.cpp.o
Print::println(char const*)                       /var/folders/hj/xvmq845d4rq0_l026j3g6x8c0000gn/T/arduino-core-cache/core_0bde13c9a0eea2bfdc716a2fc04bccd4.a(Print.cpp.o)
                                                  /var/folders/hj/xvmq845d4rq0_l026j3g6x8c0000gn/T/arduino-sketch-783AC80E8B34696ACA1CC87DB6CF7DB3/sketch/LowMemoryExample.ino.cpp.o
Print::println(char)                              /var/folders/hj/xvmq845d4rq0_l026j3g6x8c0000gn/T/arduino-core-cache/core_0bde13c9a0eea2bfdc716a2fc04bccd4.a(Print.cpp.o)
Print::println(double, int)                       /var/folders/hj/xvmq845d4rq0_l026j3g6x8c0000gn/T/arduino-core-cache/core_0bde13c9a0eea2bfdc716a2fc04bccd4.a(Print.cpp.o)
Print::println(int, int)                          /var/folders/hj/xvmq845d4rq0_l026j3g6x8c0000gn/T/arduino-core-cache/core_0bde13c9a0eea2bfdc716a2fc04bccd4.a(Print.cpp.o)
Print::println(long long, int)                    /var/folders/hj/xvmq845d4rq0_l026j3g6x8c0000gn/T/arduino-core-cache/core_0bde13c9a0eea2bfdc716a2fc04bccd4.a(Print.cpp.o)
Print::println(long, int)                         /var/folders/hj/xvmq845d4rq0_l026j3g6x8c0000gn/T/arduino-core-cache/core_0bde13c9a0eea2bfdc716a2fc04bccd4.a(Print.cpp.o)
Print::println(unsigned char, int)                /var/folders/hj/xvmq845d4rq0_l026j3g6x8c0000gn/T/arduino-core-cache/core_0bde13c9a0eea2bfdc716a2fc04bccd4.a(Print.cpp.o)
Print::println(unsigned int, int)                 /var/folders/hj/xvmq845d4rq0_l026j3g6x8c0000gn/T/arduino-core-cache/core_0bde13c9a0eea2bfdc716a2fc04bccd4.a(Print.cpp.o)
                                                  /var/folders/hj/xvmq845d4rq0_l026j3g6x8c0000gn/T/arduino-sketch-783AC80E8B34696ACA1CC87DB6CF7DB3/sketch/LowMemoryExample.ino.cpp.o
Print::println(unsigned long long, int)           /var/folders/hj/xvmq845d4rq0_l026j3g6x8c0000gn/T/arduino-core-cache/core_0bde13c9a0eea2bfdc716a2fc04bccd4.a(Print.cpp.o)
Print::println(unsigned long, int)                /var/folders/hj/xvmq845d4rq0_l026j3g6x8c0000gn/T/arduino-core-cache/core_0bde13c9a0eea2bfdc716a2fc04bccd4.a(Print.cpp.o)
Print::write(char const*)                         /var/folders/hj/xvmq845d4rq0_l026j3g6x8c0000gn/T/arduino-core-cache/core_0bde13c9a0eea2bfdc716a2fc04bccd4.a(Print.cpp.o)
                                                  /var/folders/hj/xvmq845d4rq0_l026j3g6x8c0000gn/T/arduino-core-cache/core_0bde13c9a0eea2bfdc716a2fc04bccd4.a(HardwareSerial.cpp.o)
Print::write(void const*, unsigned long)          /var/folders/hj/xvmq845d4rq0_l026j3g6x8c0000gn/T/arduino-core-cache/core_0bde13c9a0eea2bfdc716a2fc04bccd4.a(Print.cpp.o)
                                                  /var/folders/hj/xvmq845d4rq0_l026j3g6x8c0000gn/T/arduino-core-cache/core_0bde13c9a0eea2bfdc716a2fc04bccd4.a(usb_serial.cpp.o)
                                                  /var/folders/hj/xvmq845d4rq0_l026j3g6x8c0000gn/T/arduino-core-cache/core_0bde13c9a0eea2bfdc716a2fc04bccd4.a(HardwareSerial.cpp.o)
ResetColor()                                      /var/folders/hj/xvmq845d4rq0_l026j3g6x8c0000gn/T/arduino-sketch-783AC80E8B34696ACA1CC87DB6CF7DB3/sketch/LowMemoryExample.ino.cpp.o
ResumeS                                           /var/folders/hj/xvmq845d4rq0_l026j3g6x8c0000gn/T/arduino-core-cache/core_0bde13c9a0eea2bfdc716a2fc04bccd4.a(usb.c.o)
ReverseColor()                                    /var/folders/hj/xvmq845d4rq0_l026j3g6x8c0000gn/T/arduino-sketch-783AC80E8B34696ACA1CC87DB6CF7DB3/sketch/LowMemoryExample.ino.cpp.o
SaveRState                                        /var/folders/hj/xvmq845d4rq0_l026j3g6x8c0000gn/T/arduino-core-cache/core_0bde13c9a0eea2bfdc716a2fc04bccd4.a(usb.c.o)
                                                  /var/folders/hj/xvmq845d4rq0_l026j3g6x8c0000gn/T/arduino-core-cache/core_0bde13c9a0eea2bfdc716a2fc04bccd4.a(usb_core.c.o)
SaveState                                         /var/folders/hj/xvmq845d4rq0_l026j3g6x8c0000gn/T/arduino-core-cache/core_0bde13c9a0eea2bfdc716a2fc04bccd4.a(usb_init.c.o)
SaveTState                                        /var/folders/hj/xvmq845d4rq0_l026j3g6x8c0000gn/T/arduino-core-cache/core_0bde13c9a0eea2bfdc716a2fc04bccd4.a(usb.c.o)
                                                  /var/folders/hj/xvmq845d4rq0_l026j3g6x8c0000gn/T/arduino-core-cache/core_0bde13c9a0eea2bfdc716a2fc04bccd4.a(usb_core.c.o)
Serial                                            /var/folders/hj/xvmq845d4rq0_l026j3g6x8c0000gn/T/arduino-core-cache/core_0bde13c9a0eea2bfdc716a2fc04bccd4.a(usb_serial.cpp.o)
                                                  /var/folders/hj/xvmq845d4rq0_l026j3g6x8c0000gn/T/arduino-sketch-783AC80E8B34696ACA1CC87DB6CF7DB3/core/wirish/boards_setup.cpp.o
                                                  /var/folders/hj/xvmq845d4rq0_l026j3g6x8c0000gn/T/arduino-sketch-783AC80E8B34696ACA1CC87DB6CF7DB3/sketch/LowMemoryExample.ino.cpp.o
Serial1                                           /var/folders/hj/xvmq845d4rq0_l026j3g6x8c0000gn/T/arduino-sketch-783AC80E8B34696ACA1CC87DB6CF7DB3/core/board.cpp.o
Serial2                                           /var/folders/hj/xvmq845d4rq0_l026j3g6x8c0000gn/T/arduino-sketch-783AC80E8B34696ACA1CC87DB6CF7DB3/core/board.cpp.o
Serial3                                           /var/folders/hj/xvmq845d4rq0_l026j3g6x8c0000gn/T/arduino-sketch-783AC80E8B34696ACA1CC87DB6CF7DB3/core/board.cpp.o
SetBTABLE                                         /var/folders/hj/xvmq845d4rq0_l026j3g6x8c0000gn/T/arduino-core-cache/core_0bde13c9a0eea2bfdc716a2fc04bccd4.a(usb_regs.c.o)
SetCNTR                                           /var/folders/hj/xvmq845d4rq0_l026j3g6x8c0000gn/T/arduino-core-cache/core_0bde13c9a0eea2bfdc716a2fc04bccd4.a(usb_regs.c.o)
SetColor(unsigned char, unsigned char)            /var/folders/hj/xvmq845d4rq0_l026j3g6x8c0000gn/T/arduino-sketch-783AC80E8B34696ACA1CC87DB6CF7DB3/sketch/LowMemoryExample.ino.cpp.o
SetDADDR                                          /var/folders/hj/xvmq845d4rq0_l026j3g6x8c0000gn/T/arduino-core-cache/core_0bde13c9a0eea2bfdc716a2fc04bccd4.a(usb_regs.c.o)
SetDeviceAddress                                  /var/folders/hj/xvmq845d4rq0_l026j3g6x8c0000gn/T/arduino-core-cache/core_0bde13c9a0eea2bfdc716a2fc04bccd4.a(usb_core.c.o)
                                                  /var/folders/hj/xvmq845d4rq0_l026j3g6x8c0000gn/T/arduino-core-cache/core_0bde13c9a0eea2bfdc716a2fc04bccd4.a(usb_cdcacm.c.o)
SetDouBleBuffEPStall                              /var/folders/hj/xvmq845d4rq0_l026j3g6x8c0000gn/T/arduino-core-cache/core_0bde13c9a0eea2bfdc716a2fc04bccd4.a(usb_regs.c.o)
SetENDPOINT                                       /var/folders/hj/xvmq845d4rq0_l026j3g6x8c0000gn/T/arduino-core-cache/core_0bde13c9a0eea2bfdc716a2fc04bccd4.a(usb_regs.c.o)
SetEPAddress                                      /var/folders/hj/xvmq845d4rq0_l026j3g6x8c0000gn/T/arduino-core-cache/core_0bde13c9a0eea2bfdc716a2fc04bccd4.a(usb_regs.c.o)
SetEPCountRxReg                                   /var/folders/hj/xvmq845d4rq0_l026j3g6x8c0000gn/T/arduino-core-cache/core_0bde13c9a0eea2bfdc716a2fc04bccd4.a(usb_regs.c.o)
SetEPDblBuf0Addr                                  /var/folders/hj/xvmq845d4rq0_l026j3g6x8c0000gn/T/arduino-core-cache/core_0bde13c9a0eea2bfdc716a2fc04bccd4.a(usb_regs.c.o)
SetEPDblBuf0Count                                 /var/folders/hj/xvmq845d4rq0_l026j3g6x8c0000gn/T/arduino-core-cache/core_0bde13c9a0eea2bfdc716a2fc04bccd4.a(usb_regs.c.o)
SetEPDblBuf1Addr                                  /var/folders/hj/xvmq845d4rq0_l026j3g6x8c0000gn/T/arduino-core-cache/core_0bde13c9a0eea2bfdc716a2fc04bccd4.a(usb_regs.c.o)
SetEPDblBuf1Count                                 /var/folders/hj/xvmq845d4rq0_l026j3g6x8c0000gn/T/arduino-core-cache/core_0bde13c9a0eea2bfdc716a2fc04bccd4.a(usb_regs.c.o)
SetEPDblBuffAddr                                  /var/folders/hj/xvmq845d4rq0_l026j3g6x8c0000gn/T/arduino-core-cache/core_0bde13c9a0eea2bfdc716a2fc04bccd4.a(usb_regs.c.o)
SetEPDblBuffCount                                 /var/folders/hj/xvmq845d4rq0_l026j3g6x8c0000gn/T/arduino-core-cache/core_0bde13c9a0eea2bfdc716a2fc04bccd4.a(usb_regs.c.o)
SetEPDoubleBuff                                   /var/folders/hj/xvmq845d4rq0_l026j3g6x8c0000gn/T/arduino-core-cache/core_0bde13c9a0eea2bfdc716a2fc04bccd4.a(usb_regs.c.o)
SetEPRxAddr                                       /var/folders/hj/xvmq845d4rq0_l026j3g6x8c0000gn/T/arduino-core-cache/core_0bde13c9a0eea2bfdc716a2fc04bccd4.a(usb_regs.c.o)
SetEPRxCount                                      /var/folders/hj/xvmq845d4rq0_l026j3g6x8c0000gn/T/arduino-core-cache/core_0bde13c9a0eea2bfdc716a2fc04bccd4.a(usb_regs.c.o)
                                                  /var/folders/hj/xvmq845d4rq0_l026j3g6x8c0000gn/T/arduino-core-cache/core_0bde13c9a0eea2bfdc716a2fc04bccd4.a(usb_core.c.o)
SetEPRxStatus                                     /var/folders/hj/xvmq845d4rq0_l026j3g6x8c0000gn/T/arduino-core-cache/core_0bde13c9a0eea2bfdc716a2fc04bccd4.a(usb_regs.c.o)
SetEPRxValid                                      /var/folders/hj/xvmq845d4rq0_l026j3g6x8c0000gn/T/arduino-core-cache/core_0bde13c9a0eea2bfdc716a2fc04bccd4.a(usb_regs.c.o)
SetEPTxAddr                                       /var/folders/hj/xvmq845d4rq0_l026j3g6x8c0000gn/T/arduino-core-cache/core_0bde13c9a0eea2bfdc716a2fc04bccd4.a(usb_regs.c.o)
SetEPTxCount                                      /var/folders/hj/xvmq845d4rq0_l026j3g6x8c0000gn/T/arduino-core-cache/core_0bde13c9a0eea2bfdc716a2fc04bccd4.a(usb_regs.c.o)
                                                  /var/folders/hj/xvmq845d4rq0_l026j3g6x8c0000gn/T/arduino-core-cache/core_0bde13c9a0eea2bfdc716a2fc04bccd4.a(usb_core.c.o)
SetEPTxStatus                                     /var/folders/hj/xvmq845d4rq0_l026j3g6x8c0000gn/T/arduino-core-cache/core_0bde13c9a0eea2bfdc716a2fc04bccd4.a(usb_regs.c.o)
                                                  /var/folders/hj/xvmq845d4rq0_l026j3g6x8c0000gn/T/arduino-core-cache/core_0bde13c9a0eea2bfdc716a2fc04bccd4.a(usb_core.c.o)
SetEPTxValid                                      /var/folders/hj/xvmq845d4rq0_l026j3g6x8c0000gn/T/arduino-core-cache/core_0bde13c9a0eea2bfdc716a2fc04bccd4.a(usb_regs.c.o)
SetEPType                                         /var/folders/hj/xvmq845d4rq0_l026j3g6x8c0000gn/T/arduino-core-cache/core_0bde13c9a0eea2bfdc716a2fc04bccd4.a(usb_regs.c.o)
SetEP_KIND                                        /var/folders/hj/xvmq845d4rq0_l026j3g6x8c0000gn/T/arduino-core-cache/core_0bde13c9a0eea2bfdc716a2fc04bccd4.a(usb_regs.c.o)
SetISTR                                           /var/folders/hj/xvmq845d4rq0_l026j3g6x8c0000gn/T/arduino-core-cache/core_0bde13c9a0eea2bfdc716a2fc04bccd4.a(usb_regs.c.o)
SetLocation(unsigned short, unsigned short)       /var/folders/hj/xvmq845d4rq0_l026j3g6x8c0000gn/T/arduino-sketch-783AC80E8B34696ACA1CC87DB6CF7DB3/sketch/LowMemoryExample.ino.cpp.o
Set_Status_Out                                    /var/folders/hj/xvmq845d4rq0_l026j3g6x8c0000gn/T/arduino-core-cache/core_0bde13c9a0eea2bfdc716a2fc04bccd4.a(usb_regs.c.o)
Setup0_Process                                    /var/folders/hj/xvmq845d4rq0_l026j3g6x8c0000gn/T/arduino-core-cache/core_0bde13c9a0eea2bfdc716a2fc04bccd4.a(usb_core.c.o)
                                                  /var/folders/hj/xvmq845d4rq0_l026j3g6x8c0000gn/T/arduino-core-cache/core_0bde13c9a0eea2bfdc716a2fc04bccd4.a(usb.c.o)
ShowCursor()                                      /var/folders/hj/xvmq845d4rq0_l026j3g6x8c0000gn/T/arduino-sketch-783AC80E8B34696ACA1CC87DB6CF7DB3/sketch/LowMemoryExample.ino.cpp.o
ShowRunningThreads()                              /var/folders/hj/xvmq845d4rq0_l026j3g6x8c0000gn/T/arduino-sketch-783AC80E8B34696ACA1CC87DB6CF7DB3/sketch/LowMemoryExample.ino.cpp.o
StackOverflowHandler()                            /var/folders/hj/xvmq845d4rq0_l026j3g6x8c0000gn/T/arduino-sketch-783AC80E8B34696ACA1CC87DB6CF7DB3/sketch/LowMemoryExample.ino.cpp.o
Standard_ClearFeature                             /var/folders/hj/xvmq845d4rq0_l026j3g6x8c0000gn/T/arduino-core-cache/core_0bde13c9a0eea2bfdc716a2fc04bccd4.a(usb_core.c.o)
Standard_GetConfiguration                         /var/folders/hj/xvmq845d4rq0_l026j3g6x8c0000gn/T/arduino-core-cache/core_0bde13c9a0eea2bfdc716a2fc04bccd4.a(usb_core.c.o)
Standard_GetDescriptorData                        /var/folders/hj/xvmq845d4rq0_l026j3g6x8c0000gn/T/arduino-core-cache/core_0bde13c9a0eea2bfdc716a2fc04bccd4.a(usb_core.c.o)
                                                  /var/folders/hj/xvmq845d4rq0_l026j3g6x8c0000gn/T/arduino-core-cache/core_0bde13c9a0eea2bfdc716a2fc04bccd4.a(usb_cdcacm.c.o)
Standard_GetInterface                             /var/folders/hj/xvmq845d4rq0_l026j3g6x8c0000gn/T/arduino-core-cache/core_0bde13c9a0eea2bfdc716a2fc04bccd4.a(usb_core.c.o)
Standard_GetStatus                                /var/folders/hj/xvmq845d4rq0_l026j3g6x8c0000gn/T/arduino-core-cache/core_0bde13c9a0eea2bfdc716a2fc04bccd4.a(usb_core.c.o)
Standard_SetConfiguration                         /var/folders/hj/xvmq845d4rq0_l026j3g6x8c0000gn/T/arduino-core-cache/core_0bde13c9a0eea2bfdc716a2fc04bccd4.a(usb_core.c.o)
Standard_SetDeviceFeature                         /var/folders/hj/xvmq845d4rq0_l026j3g6x8c0000gn/T/arduino-core-cache/core_0bde13c9a0eea2bfdc716a2fc04bccd4.a(usb_core.c.o)
Standard_SetEndPointFeature                       /var/folders/hj/xvmq845d4rq0_l026j3g6x8c0000gn/T/arduino-core-cache/core_0bde13c9a0eea2bfdc716a2fc04bccd4.a(usb_core.c.o)
Standard_SetInterface                             /var/folders/hj/xvmq845d4rq0_l026j3g6x8c0000gn/T/arduino-core-cache/core_0bde13c9a0eea2bfdc716a2fc04bccd4.a(usb_core.c.o)
StatusInfo                                        /var/folders/hj/xvmq845d4rq0_l026j3g6x8c0000gn/T/arduino-core-cache/core_0bde13c9a0eea2bfdc716a2fc04bccd4.a(usb_core.c.o)
TIMER1                                            /var/folders/hj/xvmq845d4rq0_l026j3g6x8c0000gn/T/arduino-core-cache/core_0bde13c9a0eea2bfdc716a2fc04bccd4.a(timer.c.o)
TIMER2                                            /var/folders/hj/xvmq845d4rq0_l026j3g6x8c0000gn/T/arduino-core-cache/core_0bde13c9a0eea2bfdc716a2fc04bccd4.a(timer.c.o)
TIMER3                                            /var/folders/hj/xvmq845d4rq0_l026j3g6x8c0000gn/T/arduino-core-cache/core_0bde13c9a0eea2bfdc716a2fc04bccd4.a(timer.c.o)
TIMER4                                            /var/folders/hj/xvmq845d4rq0_l026j3g6x8c0000gn/T/arduino-core-cache/core_0bde13c9a0eea2bfdc716a2fc04bccd4.a(timer.c.o)
Thread(void*)                                     /var/folders/hj/xvmq845d4rq0_l026j3g6x8c0000gn/T/arduino-sketch-783AC80E8B34696ACA1CC87DB6CF7DB3/sketch/LowMemoryExample.ino.cpp.o
ThreadCounterMessageHandler(void*, char const*, unsigned int, CpxMsgPayload) /var/folders/hj/xvmq845d4rq0_l026j3g6x8c0000gn/T/arduino-sketch-783AC80E8B34696ACA1CC87DB6CF7DB3/sketch/LowMemoryExample.ino.cpp.o
ToWord                                            /var/folders/hj/xvmq845d4rq0_l026j3g6x8c0000gn/T/arduino-core-cache/core_0bde13c9a0eea2bfdc716a2fc04bccd4.a(usb_regs.c.o)
ToggleDTOG_RX                                     /var/folders/hj/xvmq845d4rq0_l026j3g6x8c0000gn/T/arduino-core-cache/core_0bde13c9a0eea2bfdc716a2fc04bccd4.a(usb_regs.c.o)
ToggleDTOG_TX                                     /var/folders/hj/xvmq845d4rq0_l026j3g6x8c0000gn/T/arduino-core-cache/core_0bde13c9a0eea2bfdc716a2fc04bccd4.a(usb_regs.c.o)
USART1                                            /var/folders/hj/xvmq845d4rq0_l026j3g6x8c0000gn/T/arduino-core-cache/core_0bde13c9a0eea2bfdc716a2fc04bccd4.a(usart_f1.c.o)
                                                  /var/folders/hj/xvmq845d4rq0_l026j3g6x8c0000gn/T/arduino-sketch-783AC80E8B34696ACA1CC87DB6CF7DB3/core/board.cpp.o
USART2                                            /var/folders/hj/xvmq845d4rq0_l026j3g6x8c0000gn/T/arduino-core-cache/core_0bde13c9a0eea2bfdc716a2fc04bccd4.a(usart_f1.c.o)
                                                  /var/folders/hj/xvmq845d4rq0_l026j3g6x8c0000gn/T/arduino-sketch-783AC80E8B34696ACA1CC87DB6CF7DB3/core/board.cpp.o
USART3                                            /var/folders/hj/xvmq845d4rq0_l026j3g6x8c0000gn/T/arduino-core-cache/core_0bde13c9a0eea2bfdc716a2fc04bccd4.a(usart_f1.c.o)
                                                  /var/folders/hj/xvmq845d4rq0_l026j3g6x8c0000gn/T/arduino-sketch-783AC80E8B34696ACA1CC87DB6CF7DB3/core/board.cpp.o
USBLIB                                            /var/folders/hj/xvmq845d4rq0_l026j3g6x8c0000gn/T/arduino-core-cache/core_0bde13c9a0eea2bfdc716a2fc04bccd4.a(usb.c.o)
                                                  /var/folders/hj/xvmq845d4rq0_l026j3g6x8c0000gn/T/arduino-core-cache/core_0bde13c9a0eea2bfdc716a2fc04bccd4.a(usb_serial.cpp.o)
                                                  /var/folders/hj/xvmq845d4rq0_l026j3g6x8c0000gn/T/arduino-core-cache/core_0bde13c9a0eea2bfdc716a2fc04bccd4.a(usb_cdcacm.c.o)
USBSerial::USBSerial()                            /var/folders/hj/xvmq845d4rq0_l026j3g6x8c0000gn/T/arduino-core-cache/core_0bde13c9a0eea2bfdc716a2fc04bccd4.a(usb_serial.cpp.o)
USBSerial::USBSerial()                            /var/folders/hj/xvmq845d4rq0_l026j3g6x8c0000gn/T/arduino-core-cache/core_0bde13c9a0eea2bfdc716a2fc04bccd4.a(usb_serial.cpp.o)
USBSerial::_hasBegun                              /var/folders/hj/xvmq845d4rq0_l026j3g6x8c0000gn/T/arduino-core-cache/core_0bde13c9a0eea2bfdc716a2fc04bccd4.a(usb_serial.cpp.o)
USBSerial::_isBlocking                            /var/folders/hj/xvmq845d4rq0_l026j3g6x8c0000gn/T/arduino-core-cache/core_0bde13c9a0eea2bfdc716a2fc04bccd4.a(usb_serial.cpp.o)
USBSerial::available()                            /var/folders/hj/xvmq845d4rq0_l026j3g6x8c0000gn/T/arduino-core-cache/core_0bde13c9a0eea2bfdc716a2fc04bccd4.a(usb_serial.cpp.o)
USBSerial::availableForWrite()                    /var/folders/hj/xvmq845d4rq0_l026j3g6x8c0000gn/T/arduino-core-cache/core_0bde13c9a0eea2bfdc716a2fc04bccd4.a(usb_serial.cpp.o)
USBSerial::begin()                                /var/folders/hj/xvmq845d4rq0_l026j3g6x8c0000gn/T/arduino-core-cache/core_0bde13c9a0eea2bfdc716a2fc04bccd4.a(usb_serial.cpp.o)
                                                  /var/folders/hj/xvmq845d4rq0_l026j3g6x8c0000gn/T/arduino-sketch-783AC80E8B34696ACA1CC87DB6CF7DB3/core/wirish/boards_setup.cpp.o
USBSerial::begin(unsigned long)                   /var/folders/hj/xvmq845d4rq0_l026j3g6x8c0000gn/T/arduino-core-cache/core_0bde13c9a0eea2bfdc716a2fc04bccd4.a(usb_serial.cpp.o)
                                                  /var/folders/hj/xvmq845d4rq0_l026j3g6x8c0000gn/T/arduino-sketch-783AC80E8B34696ACA1CC87DB6CF7DB3/sketch/LowMemoryExample.ino.cpp.o
USBSerial::begin(unsigned long, unsigned char)    /var/folders/hj/xvmq845d4rq0_l026j3g6x8c0000gn/T/arduino-core-cache/core_0bde13c9a0eea2bfdc716a2fc04bccd4.a(usb_serial.cpp.o)
USBSerial::disableBlockingTx()                    /var/folders/hj/xvmq845d4rq0_l026j3g6x8c0000gn/T/arduino-core-cache/core_0bde13c9a0eea2bfdc716a2fc04bccd4.a(usb_serial.cpp.o)
USBSerial::enableBlockingTx()                     /var/folders/hj/xvmq845d4rq0_l026j3g6x8c0000gn/T/arduino-core-cache/core_0bde13c9a0eea2bfdc716a2fc04bccd4.a(usb_serial.cpp.o)
USBSerial::end()                                  /var/folders/hj/xvmq845d4rq0_l026j3g6x8c0000gn/T/arduino-core-cache/core_0bde13c9a0eea2bfdc716a2fc04bccd4.a(usb_serial.cpp.o)
USBSerial::flush()                                /var/folders/hj/xvmq845d4rq0_l026j3g6x8c0000gn/T/arduino-core-cache/core_0bde13c9a0eea2bfdc716a2fc04bccd4.a(usb_serial.cpp.o)
                                                  /var/folders/hj/xvmq845d4rq0_l026j3g6x8c0000gn/T/arduino-sketch-783AC80E8B34696ACA1CC87DB6CF7DB3/sketch/LowMemoryExample.ino.cpp.o
USBSerial::getDTR()                               /var/folders/hj/xvmq845d4rq0_l026j3g6x8c0000gn/T/arduino-core-cache/core_0bde13c9a0eea2bfdc716a2fc04bccd4.a(usb_serial.cpp.o)
USBSerial::getRTS()                               /var/folders/hj/xvmq845d4rq0_l026j3g6x8c0000gn/T/arduino-core-cache/core_0bde13c9a0eea2bfdc716a2fc04bccd4.a(usb_serial.cpp.o)
USBSerial::operator bool()                        /var/folders/hj/xvmq845d4rq0_l026j3g6x8c0000gn/T/arduino-core-cache/core_0bde13c9a0eea2bfdc716a2fc04bccd4.a(usb_serial.cpp.o)
                                                  /var/folders/hj/xvmq845d4rq0_l026j3g6x8c0000gn/T/arduino-sketch-783AC80E8B34696ACA1CC87DB6CF7DB3/sketch/LowMemoryExample.ino.cpp.o
USBSerial::peek()                                 /var/folders/hj/xvmq845d4rq0_l026j3g6x8c0000gn/T/arduino-core-cache/core_0bde13c9a0eea2bfdc716a2fc04bccd4.a(usb_serial.cpp.o)
USBSerial::pending()                              /var/folders/hj/xvmq845d4rq0_l026j3g6x8c0000gn/T/arduino-core-cache/core_0bde13c9a0eea2bfdc716a2fc04bccd4.a(usb_serial.cpp.o)
USBSerial::read()                                 /var/folders/hj/xvmq845d4rq0_l026j3g6x8c0000gn/T/arduino-core-cache/core_0bde13c9a0eea2bfdc716a2fc04bccd4.a(usb_serial.cpp.o)
USBSerial::read(unsigned char*, unsigned long)    /var/folders/hj/xvmq845d4rq0_l026j3g6x8c0000gn/T/arduino-core-cache/core_0bde13c9a0eea2bfdc716a2fc04bccd4.a(usb_serial.cpp.o)
USBSerial::readBytes(char*, unsigned int const&)  /var/folders/hj/xvmq845d4rq0_l026j3g6x8c0000gn/T/arduino-core-cache/core_0bde13c9a0eea2bfdc716a2fc04bccd4.a(usb_serial.cpp.o)
USBSerial::write(char const*)                     /var/folders/hj/xvmq845d4rq0_l026j3g6x8c0000gn/T/arduino-core-cache/core_0bde13c9a0eea2bfdc716a2fc04bccd4.a(usb_serial.cpp.o)
USBSerial::write(unsigned char const*, unsigned long) /var/folders/hj/xvmq845d4rq0_l026j3g6x8c0000gn/T/arduino-core-cache/core_0bde13c9a0eea2bfdc716a2fc04bccd4.a(usb_serial.cpp.o)
USBSerial::write(unsigned char)                   /var/folders/hj/xvmq845d4rq0_l026j3g6x8c0000gn/T/arduino-core-cache/core_0bde13c9a0eea2bfdc716a2fc04bccd4.a(usb_serial.cpp.o)
USB_Init                                          /var/folders/hj/xvmq845d4rq0_l026j3g6x8c0000gn/T/arduino-core-cache/core_0bde13c9a0eea2bfdc716a2fc04bccd4.a(usb_init.c.o)
UserToPMABufferCopy                               /var/folders/hj/xvmq845d4rq0_l026j3g6x8c0000gn/T/arduino-core-cache/core_0bde13c9a0eea2bfdc716a2fc04bccd4.a(usb_mem.c.o)
                                                  /var/folders/hj/xvmq845d4rq0_l026j3g6x8c0000gn/T/arduino-core-cache/core_0bde13c9a0eea2bfdc716a2fc04bccd4.a(usb_core.c.o)
User_Standard_Requests                            /var/folders/hj/xvmq845d4rq0_l026j3g6x8c0000gn/T/arduino-core-cache/core_0bde13c9a0eea2bfdc716a2fc04bccd4.a(usb_cdcacm.c.o)
                                                  /var/folders/hj/xvmq845d4rq0_l026j3g6x8c0000gn/T/arduino-core-cache/core_0bde13c9a0eea2bfdc716a2fc04bccd4.a(usb_init.c.o)
                                                  /var/folders/hj/xvmq845d4rq0_l026j3g6x8c0000gn/T/arduino-core-cache/core_0bde13c9a0eea2bfdc716a2fc04bccd4.a(usb.c.o)
__adddf3                                          /Users/lgcampos/Library/Arduino15/packages/arduino/tools/arm-none-eabi-gcc/7-2017q4/bin/../lib/gcc/arm-none-eabi/7.2.1/thumb/v7-m/libgcc.a(_arm_addsubdf3.o)
__aeabi_cdcmpeq                                   /Users/lgcampos/Library/Arduino15/packages/arduino/tools/arm-none-eabi-gcc/7-2017q4/bin/../lib/gcc/arm-none-eabi/7.2.1/thumb/v7-m/libgcc.a(_arm_cmpdf2.o)
__aeabi_cdcmple                                   /Users/lgcampos/Library/Arduino15/packages/arduino/tools/arm-none-eabi-gcc/7-2017q4/bin/../lib/gcc/arm-none-eabi/7.2.1/thumb/v7-m/libgcc.a(_arm_cmpdf2.o)
__aeabi_cdrcmple                                  /Users/lgcampos/Library/Arduino15/packages/arduino/tools/arm-none-eabi-gcc/7-2017q4/bin/../lib/gcc/arm-none-eabi/7.2.1/thumb/v7-m/libgcc.a(_arm_cmpdf2.o)
__aeabi_d2iz                                      /Users/lgcampos/Library/Arduino15/packages/arduino/tools/arm-none-eabi-gcc/7-2017q4/bin/../lib/gcc/arm-none-eabi/7.2.1/thumb/v7-m/libgcc.a(_arm_fixdfsi.o)
                                                  /var/folders/hj/xvmq845d4rq0_l026j3g6x8c0000gn/T/arduino-core-cache/core_0bde13c9a0eea2bfdc716a2fc04bccd4.a(Print.cpp.o)
__aeabi_d2lz                                      /Users/lgcampos/Library/Arduino15/packages/arduino/tools/arm-none-eabi-gcc/7-2017q4/bin/../lib/gcc/arm-none-eabi/7.2.1/thumb/v7-m/libgcc.a(_fixdfdi.o)
                                                  /var/folders/hj/xvmq845d4rq0_l026j3g6x8c0000gn/T/arduino-core-cache/core_0bde13c9a0eea2bfdc716a2fc04bccd4.a(Print.cpp.o)
__aeabi_d2uiz                                     /Users/lgcampos/Library/Arduino15/packages/arduino/tools/arm-none-eabi-gcc/7-2017q4/bin/../lib/gcc/arm-none-eabi/7.2.1/thumb/v7-m/libgcc.a(_arm_fixunsdfsi.o)
                                                  /Users/lgcampos/Library/Arduino15/packages/arduino/tools/arm-none-eabi-gcc/7-2017q4/bin/../lib/gcc/arm-none-eabi/7.2.1/thumb/v7-m/libgcc.a(_fixunsdfdi.o)
__aeabi_d2ulz                                     /Users/lgcampos/Library/Arduino15/packages/arduino/tools/arm-none-eabi-gcc/7-2017q4/bin/../lib/gcc/arm-none-eabi/7.2.1/thumb/v7-m/libgcc.a(_fixunsdfdi.o)
                                                  /Users/lgcampos/Library/Arduino15/packages/arduino/tools/arm-none-eabi-gcc/7-2017q4/bin/../lib/gcc/arm-none-eabi/7.2.1/thumb/v7-m/libgcc.a(_fixdfdi.o)
__aeabi_dadd                                      /Users/lgcampos/Library/Arduino15/packages/arduino/tools/arm-none-eabi-gcc/7-2017q4/bin/../lib/gcc/arm-none-eabi/7.2.1/thumb/v7-m/libgcc.a(_arm_addsubdf3.o)
                                                  /var/folders/hj/xvmq845d4rq0_l026j3g6x8c0000gn/T/arduino-core-cache/core_0bde13c9a0eea2bfdc716a2fc04bccd4.a(Print.cpp.o)
__aeabi_dcmpeq                                    /Users/lgcampos/Library/Arduino15/packages/arduino/tools/arm-none-eabi-gcc/7-2017q4/bin/../lib/gcc/arm-none-eabi/7.2.1/thumb/v7-m/libgcc.a(_arm_cmpdf2.o)
__aeabi_dcmpge                                    /Users/lgcampos/Library/Arduino15/packages/arduino/tools/arm-none-eabi-gcc/7-2017q4/bin/../lib/gcc/arm-none-eabi/7.2.1/thumb/v7-m/libgcc.a(_arm_cmpdf2.o)
                                                  /var/folders/hj/xvmq845d4rq0_l026j3g6x8c0000gn/T/arduino-core-cache/core_0bde13c9a0eea2bfdc716a2fc04bccd4.a(Print.cpp.o)
__aeabi_dcmpgt                                    /Users/lgcampos/Library/Arduino15/packages/arduino/tools/arm-none-eabi-gcc/7-2017q4/bin/../lib/gcc/arm-none-eabi/7.2.1/thumb/v7-m/libgcc.a(_arm_cmpdf2.o)
                                                  /var/folders/hj/xvmq845d4rq0_l026j3g6x8c0000gn/T/arduino-core-cache/core_0bde13c9a0eea2bfdc716a2fc04bccd4.a(Print.cpp.o)
__aeabi_dcmple                                    /Users/lgcampos/Library/Arduino15/packages/arduino/tools/arm-none-eabi-gcc/7-2017q4/bin/../lib/gcc/arm-none-eabi/7.2.1/thumb/v7-m/libgcc.a(_arm_cmpdf2.o)
                                                  /var/folders/hj/xvmq845d4rq0_l026j3g6x8c0000gn/T/arduino-core-cache/core_0bde13c9a0eea2bfdc716a2fc04bccd4.a(Print.cpp.o)
__aeabi_dcmplt                                    /Users/lgcampos/Library/Arduino15/packages/arduino/tools/arm-none-eabi-gcc/7-2017q4/bin/../lib/gcc/arm-none-eabi/7.2.1/thumb/v7-m/libgcc.a(_arm_cmpdf2.o)
                                                  /Users/lgcampos/Library/Arduino15/packages/arduino/tools/arm-none-eabi-gcc/7-2017q4/bin/../lib/gcc/arm-none-eabi/7.2.1/thumb/v7-m/libgcc.a(_fixdfdi.o)
                                                  /var/folders/hj/xvmq845d4rq0_l026j3g6x8c0000gn/T/arduino-core-cache/core_0bde13c9a0eea2bfdc716a2fc04bccd4.a(Print.cpp.o)
__aeabi_ddiv                                      /Users/lgcampos/Library/Arduino15/packages/arduino/tools/arm-none-eabi-gcc/7-2017q4/bin/../lib/gcc/arm-none-eabi/7.2.1/thumb/v7-m/libgcc.a(_arm_muldivdf3.o)
                                                  /var/folders/hj/xvmq845d4rq0_l026j3g6x8c0000gn/T/arduino-core-cache/core_0bde13c9a0eea2bfdc716a2fc04bccd4.a(Print.cpp.o)
__aeabi_dmul                                      /Users/lgcampos/Library/Arduino15/packages/arduino/tools/arm-none-eabi-gcc/7-2017q4/bin/../lib/gcc/arm-none-eabi/7.2.1/thumb/v7-m/libgcc.a(_arm_muldivdf3.o)
                                                  /Users/lgcampos/Library/Arduino15/packages/arduino/tools/arm-none-eabi-gcc/7-2017q4/bin/../lib/gcc/arm-none-eabi/7.2.1/thumb/v7-m/libgcc.a(_fixunsdfdi.o)
                                                  /var/folders/hj/xvmq845d4rq0_l026j3g6x8c0000gn/T/arduino-core-cache/core_0bde13c9a0eea2bfdc716a2fc04bccd4.a(Print.cpp.o)
__aeabi_drsub                                     /Users/lgcampos/Library/Arduino15/packages/arduino/tools/arm-none-eabi-gcc/7-2017q4/bin/../lib/gcc/arm-none-eabi/7.2.1/thumb/v7-m/libgcc.a(_arm_addsubdf3.o)
__aeabi_dsub                                      /Users/lgcampos/Library/Arduino15/packages/arduino/tools/arm-none-eabi-gcc/7-2017q4/bin/../lib/gcc/arm-none-eabi/7.2.1/thumb/v7-m/libgcc.a(_arm_addsubdf3.o)
                                                  /Users/lgcampos/Library/Arduino15/packages/arduino/tools/arm-none-eabi-gcc/7-2017q4/bin/../lib/gcc/arm-none-eabi/7.2.1/thumb/v7-m/libgcc.a(_fixunsdfdi.o)
                                                  /var/folders/hj/xvmq845d4rq0_l026j3g6x8c0000gn/T/arduino-core-cache/core_0bde13c9a0eea2bfdc716a2fc04bccd4.a(Print.cpp.o)
__aeabi_f2d                                       /Users/lgcampos/Library/Arduino15/packages/arduino/tools/arm-none-eabi-gcc/7-2017q4/bin/../lib/gcc/arm-none-eabi/7.2.1/thumb/v7-m/libgcc.a(_arm_addsubdf3.o)
__aeabi_i2d                                       /Users/lgcampos/Library/Arduino15/packages/arduino/tools/arm-none-eabi-gcc/7-2017q4/bin/../lib/gcc/arm-none-eabi/7.2.1/thumb/v7-m/libgcc.a(_arm_addsubdf3.o)
                                                  /var/folders/hj/xvmq845d4rq0_l026j3g6x8c0000gn/T/arduino-core-cache/core_0bde13c9a0eea2bfdc716a2fc04bccd4.a(Print.cpp.o)
__aeabi_idiv0                                     /Users/lgcampos/Library/Arduino15/packages/arduino/tools/arm-none-eabi-gcc/7-2017q4/bin/../lib/gcc/arm-none-eabi/7.2.1/thumb/v7-m/libgcc.a(_dvmd_tls.o)
__aeabi_l2d                                       /Users/lgcampos/Library/Arduino15/packages/arduino/tools/arm-none-eabi-gcc/7-2017q4/bin/../lib/gcc/arm-none-eabi/7.2.1/thumb/v7-m/libgcc.a(_arm_addsubdf3.o)
                                                  /var/folders/hj/xvmq845d4rq0_l026j3g6x8c0000gn/T/arduino-core-cache/core_0bde13c9a0eea2bfdc716a2fc04bccd4.a(Print.cpp.o)
__aeabi_ldiv0                                     /Users/lgcampos/Library/Arduino15/packages/arduino/tools/arm-none-eabi-gcc/7-2017q4/bin/../lib/gcc/arm-none-eabi/7.2.1/thumb/v7-m/libgcc.a(_dvmd_tls.o)
                                                  /Users/lgcampos/Library/Arduino15/packages/arduino/tools/arm-none-eabi-gcc/7-2017q4/bin/../lib/gcc/arm-none-eabi/7.2.1/thumb/v7-m/libgcc.a(_aeabi_uldivmod.o)
                                                  /Users/lgcampos/Library/Arduino15/packages/arduino/tools/arm-none-eabi-gcc/7-2017q4/bin/../lib/gcc/arm-none-eabi/7.2.1/thumb/v7-m/libgcc.a(_aeabi_ldivmod.o)
__aeabi_ldivmod                                   /Users/lgcampos/Library/Arduino15/packages/arduino/tools/arm-none-eabi-gcc/7-2017q4/bin/../lib/gcc/arm-none-eabi/7.2.1/thumb/v7-m/libgcc.a(_aeabi_ldivmod.o)
                                                  /var/folders/hj/xvmq845d4rq0_l026j3g6x8c0000gn/T/arduino-core-cache/core_0bde13c9a0eea2bfdc716a2fc04bccd4.a(Print.cpp.o)
__aeabi_ui2d                                      /Users/lgcampos/Library/Arduino15/packages/arduino/tools/arm-none-eabi-gcc/7-2017q4/bin/../lib/gcc/arm-none-eabi/7.2.1/thumb/v7-m/libgcc.a(_arm_addsubdf3.o)
                                                  /Users/lgcampos/Library/Arduino15/packages/arduino/tools/arm-none-eabi-gcc/7-2017q4/bin/../lib/gcc/arm-none-eabi/7.2.1/thumb/v7-m/libgcc.a(_fixunsdfdi.o)
__aeabi_ul2d                                      /Users/lgcampos/Library/Arduino15/packages/arduino/tools/arm-none-eabi-gcc/7-2017q4/bin/../lib/gcc/arm-none-eabi/7.2.1/thumb/v7-m/libgcc.a(_arm_addsubdf3.o)
__aeabi_uldivmod                                  /Users/lgcampos/Library/Arduino15/packages/arduino/tools/arm-none-eabi-gcc/7-2017q4/bin/../lib/gcc/arm-none-eabi/7.2.1/thumb/v7-m/libgcc.a(_aeabi_uldivmod.o)
                                                  /var/folders/hj/xvmq845d4rq0_l026j3g6x8c0000gn/T/arduino-core-cache/core_0bde13c9a0eea2bfdc716a2fc04bccd4.a(Print.cpp.o)
__assert_func                                     /var/folders/hj/xvmq845d4rq0_l026j3g6x8c0000gn/T/arduino-core-cache/core_0bde13c9a0eea2bfdc716a2fc04bccd4.a(util.c.o)
                                                  /var/folders/hj/xvmq845d4rq0_l026j3g6x8c0000gn/T/arduino-sketch-783AC80E8B34696ACA1CC87DB6CF7DB3/sketch/LowMemoryExample.ino.cpp.o
__atexit_recursive_mutex                          /Users/lgcampos/Library/Arduino15/packages/arduino/tools/arm-none-eabi-gcc/7-2017q4/bin/../lib/gcc/arm-none-eabi/7.2.1/../../../../arm-none-eabi/lib/thumb/v7-m/libc.a(lib_a-__call_atexit.o)
                                                  /Users/lgcampos/Library/Arduino15/packages/arduino/tools/arm-none-eabi-gcc/7-2017q4/bin/../lib/gcc/arm-none-eabi/7.2.1/../../../../arm-none-eabi/lib/thumb/v7-m/libc.a(lib_a-__atexit.o)
__bss_end__                                       /var/folders/hj/xvmq845d4rq0_l026j3g6x8c0000gn/T/arduino-sketch-783AC80E8B34696ACA1CC87DB6CF7DB3/core/wirish/start_c.c.o
                                                  /Users/lgcampos/Library/Arduino15/packages/arduino/tools/arm-none-eabi-gcc/7-2017q4/bin/../lib/gcc/arm-none-eabi/7.2.1/../../../../arm-none-eabi/lib/thumb/v7-m/crt0.o
__bss_start__                                     /var/folders/hj/xvmq845d4rq0_l026j3g6x8c0000gn/T/arduino-sketch-783AC80E8B34696ACA1CC87DB6CF7DB3/core/wirish/start_c.c.o
                                                  /Users/lgcampos/Library/Arduino15/packages/arduino/tools/arm-none-eabi-gcc/7-2017q4/bin/../lib/gcc/arm-none-eabi/7.2.1/../../../../arm-none-eabi/lib/thumb/v7-m/crt0.o
__call_exitprocs                                  /Users/lgcampos/Library/Arduino15/packages/arduino/tools/arm-none-eabi-gcc/7-2017q4/bin/../lib/gcc/arm-none-eabi/7.2.1/../../../../arm-none-eabi/lib/thumb/v7-m/libc.a(lib_a-__call_atexit.o)
                                                  /Users/lgcampos/Library/Arduino15/packages/arduino/tools/arm-none-eabi-gcc/7-2017q4/bin/../lib/gcc/arm-none-eabi/7.2.1/../../../../arm-none-eabi/lib/thumb/v7-m/libc.a(lib_a-exit.o)
__cmpdf2                                          /Users/lgcampos/Library/Arduino15/packages/arduino/tools/arm-none-eabi-gcc/7-2017q4/bin/../lib/gcc/arm-none-eabi/7.2.1/thumb/v7-m/libgcc.a(_arm_cmpdf2.o)
__cxa_pure_virtual                                /var/folders/hj/xvmq845d4rq0_l026j3g6x8c0000gn/T/arduino-core-cache/core_0bde13c9a0eea2bfdc716a2fc04bccd4.a(cxxabi-compat.cpp.o)
                                                  /var/folders/hj/xvmq845d4rq0_l026j3g6x8c0000gn/T/arduino-core-cache/core_0bde13c9a0eea2bfdc716a2fc04bccd4.a(Print.cpp.o)
__data_end__                                      /var/folders/hj/xvmq845d4rq0_l026j3g6x8c0000gn/T/arduino-sketch-783AC80E8B34696ACA1CC87DB6CF7DB3/core/wirish/start_c.c.o
__data_start__                                    /var/folders/hj/xvmq845d4rq0_l026j3g6x8c0000gn/T/arduino-sketch-783AC80E8B34696ACA1CC87DB6CF7DB3/core/wirish/start_c.c.o
__default_handler                                 /var/folders/hj/xvmq845d4rq0_l026j3g6x8c0000gn/T/arduino-core-cache/core_0bde13c9a0eea2bfdc716a2fc04bccd4.a(isrs.S.o)
__deregister_frame_info                           /Users/lgcampos/Library/Arduino15/packages/arduino/tools/arm-none-eabi-gcc/7-2017q4/bin/../lib/gcc/arm-none-eabi/7.2.1/thumb/v7-m/crtbegin.o
__divdf3                                          /Users/lgcampos/Library/Arduino15/packages/arduino/tools/arm-none-eabi-gcc/7-2017q4/bin/../lib/gcc/arm-none-eabi/7.2.1/thumb/v7-m/libgcc.a(_arm_muldivdf3.o)
__dso_handle                                      /Users/lgcampos/Library/Arduino15/packages/arduino/tools/arm-none-eabi-gcc/7-2017q4/bin/../lib/gcc/arm-none-eabi/7.2.1/thumb/v7-m/crtbegin.o
__eqdf2                                           /Users/lgcampos/Library/Arduino15/packages/arduino/tools/arm-none-eabi-gcc/7-2017q4/bin/../lib/gcc/arm-none-eabi/7.2.1/thumb/v7-m/libgcc.a(_arm_cmpdf2.o)
__errno                                           /Users/lgcampos/Library/Arduino15/packages/arduino/tools/arm-none-eabi-gcc/7-2017q4/bin/../lib/gcc/arm-none-eabi/7.2.1/../../../../arm-none-eabi/lib/thumb/v7-m/libc.a(lib_a-errno.o)
                                                  /var/folders/hj/xvmq845d4rq0_l026j3g6x8c0000gn/T/arduino-sketch-783AC80E8B34696ACA1CC87DB6CF7DB3/core/wirish/syscalls.c.o
__error                                           /var/folders/hj/xvmq845d4rq0_l026j3g6x8c0000gn/T/arduino-core-cache/core_0bde13c9a0eea2bfdc716a2fc04bccd4.a(util.c.o)
                                                  /var/folders/hj/xvmq845d4rq0_l026j3g6x8c0000gn/T/arduino-core-cache/core_0bde13c9a0eea2bfdc716a2fc04bccd4.a(exc.S.o)
__exc_busfault                                    /var/folders/hj/xvmq845d4rq0_l026j3g6x8c0000gn/T/arduino-core-cache/core_0bde13c9a0eea2bfdc716a2fc04bccd4.a(exc.S.o)
                                                  /var/folders/hj/xvmq845d4rq0_l026j3g6x8c0000gn/T/arduino-core-cache/core_0bde13c9a0eea2bfdc716a2fc04bccd4.a(vector_table.S.o)
__exc_debug_monitor                               /var/folders/hj/xvmq845d4rq0_l026j3g6x8c0000gn/T/arduino-core-cache/core_0bde13c9a0eea2bfdc716a2fc04bccd4.a(isrs.S.o)
                                                  /var/folders/hj/xvmq845d4rq0_l026j3g6x8c0000gn/T/arduino-core-cache/core_0bde13c9a0eea2bfdc716a2fc04bccd4.a(vector_table.S.o)
__exc_hardfault                                   /var/folders/hj/xvmq845d4rq0_l026j3g6x8c0000gn/T/arduino-core-cache/core_0bde13c9a0eea2bfdc716a2fc04bccd4.a(exc.S.o)
                                                  /var/folders/hj/xvmq845d4rq0_l026j3g6x8c0000gn/T/arduino-core-cache/core_0bde13c9a0eea2bfdc716a2fc04bccd4.a(vector_table.S.o)
__exc_memmanage                                   /var/folders/hj/xvmq845d4rq0_l026j3g6x8c0000gn/T/arduino-core-cache/core_0bde13c9a0eea2bfdc716a2fc04bccd4.a(exc.S.o)
                                                  /var/folders/hj/xvmq845d4rq0_l026j3g6x8c0000gn/T/arduino-core-cache/core_0bde13c9a0eea2bfdc716a2fc04bccd4.a(vector_table.S.o)
__exc_nmi                                         /var/folders/hj/xvmq845d4rq0_l026j3g6x8c0000gn/T/arduino-core-cache/core_0bde13c9a0eea2bfdc716a2fc04bccd4.a(exc.S.o)
                                                  /var/folders/hj/xvmq845d4rq0_l026j3g6x8c0000gn/T/arduino-core-cache/core_0bde13c9a0eea2bfdc716a2fc04bccd4.a(vector_table.S.o)
__exc_pendsv                                      /var/folders/hj/xvmq845d4rq0_l026j3g6x8c0000gn/T/arduino-core-cache/core_0bde13c9a0eea2bfdc716a2fc04bccd4.a(isrs.S.o)
                                                  /var/folders/hj/xvmq845d4rq0_l026j3g6x8c0000gn/T/arduino-core-cache/core_0bde13c9a0eea2bfdc716a2fc04bccd4.a(vector_table.S.o)
__exc_reset                                       /var/folders/hj/xvmq845d4rq0_l026j3g6x8c0000gn/T/arduino-core-cache/core_0bde13c9a0eea2bfdc716a2fc04bccd4.a(vector_table.S.o)
__exc_svc                                         /var/folders/hj/xvmq845d4rq0_l026j3g6x8c0000gn/T/arduino-core-cache/core_0bde13c9a0eea2bfdc716a2fc04bccd4.a(isrs.S.o)
                                                  /var/folders/hj/xvmq845d4rq0_l026j3g6x8c0000gn/T/arduino-core-cache/core_0bde13c9a0eea2bfdc716a2fc04bccd4.a(vector_table.S.o)
__exc_systick                                     /var/folders/hj/xvmq845d4rq0_l026j3g6x8c0000gn/T/arduino-core-cache/core_0bde13c9a0eea2bfdc716a2fc04bccd4.a(systick.c.o)
                                                  /var/folders/hj/xvmq845d4rq0_l026j3g6x8c0000gn/T/arduino-core-cache/core_0bde13c9a0eea2bfdc716a2fc04bccd4.a(vector_table.S.o)
__exc_usagefault                                  /var/folders/hj/xvmq845d4rq0_l026j3g6x8c0000gn/T/arduino-core-cache/core_0bde13c9a0eea2bfdc716a2fc04bccd4.a(exc.S.o)
                                                  /var/folders/hj/xvmq845d4rq0_l026j3g6x8c0000gn/T/arduino-core-cache/core_0bde13c9a0eea2bfdc716a2fc04bccd4.a(vector_table.S.o)
__extendsfdf2                                     /Users/lgcampos/Library/Arduino15/packages/arduino/tools/arm-none-eabi-gcc/7-2017q4/bin/../lib/gcc/arm-none-eabi/7.2.1/thumb/v7-m/libgcc.a(_arm_addsubdf3.o)
__fini_array_end                                  /Users/lgcampos/Library/Arduino15/packages/arduino/tools/arm-none-eabi-gcc/7-2017q4/bin/../lib/gcc/arm-none-eabi/7.2.1/../../../../arm-none-eabi/lib/thumb/v7-m/libc.a(lib_a-fini.o)
__fini_array_start                                /Users/lgcampos/Library/Arduino15/packages/arduino/tools/arm-none-eabi-gcc/7-2017q4/bin/../lib/gcc/arm-none-eabi/7.2.1/../../../../arm-none-eabi/lib/thumb/v7-m/libc.a(lib_a-fini.o)
__fixdfdi                                         /Users/lgcampos/Library/Arduino15/packages/arduino/tools/arm-none-eabi-gcc/7-2017q4/bin/../lib/gcc/arm-none-eabi/7.2.1/thumb/v7-m/libgcc.a(_fixdfdi.o)
__fixdfsi                                         /Users/lgcampos/Library/Arduino15/packages/arduino/tools/arm-none-eabi-gcc/7-2017q4/bin/../lib/gcc/arm-none-eabi/7.2.1/thumb/v7-m/libgcc.a(_arm_fixdfsi.o)
__fixunsdfdi                                      /Users/lgcampos/Library/Arduino15/packages/arduino/tools/arm-none-eabi-gcc/7-2017q4/bin/../lib/gcc/arm-none-eabi/7.2.1/thumb/v7-m/libgcc.a(_fixunsdfdi.o)
__fixunsdfsi                                      /Users/lgcampos/Library/Arduino15/packages/arduino/tools/arm-none-eabi-gcc/7-2017q4/bin/../lib/gcc/arm-none-eabi/7.2.1/thumb/v7-m/libgcc.a(_arm_fixunsdfsi.o)
__floatdidf                                       /Users/lgcampos/Library/Arduino15/packages/arduino/tools/arm-none-eabi-gcc/7-2017q4/bin/../lib/gcc/arm-none-eabi/7.2.1/thumb/v7-m/libgcc.a(_arm_addsubdf3.o)
__floatsidf                                       /Users/lgcampos/Library/Arduino15/packages/arduino/tools/arm-none-eabi-gcc/7-2017q4/bin/../lib/gcc/arm-none-eabi/7.2.1/thumb/v7-m/libgcc.a(_arm_addsubdf3.o)
__floatundidf                                     /Users/lgcampos/Library/Arduino15/packages/arduino/tools/arm-none-eabi-gcc/7-2017q4/bin/../lib/gcc/arm-none-eabi/7.2.1/thumb/v7-m/libgcc.a(_arm_addsubdf3.o)
__floatunsidf                                     /Users/lgcampos/Library/Arduino15/packages/arduino/tools/arm-none-eabi-gcc/7-2017q4/bin/../lib/gcc/arm-none-eabi/7.2.1/thumb/v7-m/libgcc.a(_arm_addsubdf3.o)
__gedf2                                           /Users/lgcampos/Library/Arduino15/packages/arduino/tools/arm-none-eabi-gcc/7-2017q4/bin/../lib/gcc/arm-none-eabi/7.2.1/thumb/v7-m/libgcc.a(_arm_cmpdf2.o)
__gtdf2                                           /Users/lgcampos/Library/Arduino15/packages/arduino/tools/arm-none-eabi-gcc/7-2017q4/bin/../lib/gcc/arm-none-eabi/7.2.1/thumb/v7-m/libgcc.a(_arm_cmpdf2.o)
__init_array_end                                  /Users/lgcampos/Library/Arduino15/packages/arduino/tools/arm-none-eabi-gcc/7-2017q4/bin/../lib/gcc/arm-none-eabi/7.2.1/../../../../arm-none-eabi/lib/thumb/v7-m/libc.a(lib_a-init.o)
__init_array_start                                /Users/lgcampos/Library/Arduino15/packages/arduino/tools/arm-none-eabi-gcc/7-2017q4/bin/../lib/gcc/arm-none-eabi/7.2.1/../../../../arm-none-eabi/lib/thumb/v7-m/libc.a(lib_a-init.o)
__irq_adc                                         /var/folders/hj/xvmq845d4rq0_l026j3g6x8c0000gn/T/arduino-core-cache/core_0bde13c9a0eea2bfdc716a2fc04bccd4.a(adc_f1.c.o)
                                                  /var/folders/hj/xvmq845d4rq0_l026j3g6x8c0000gn/T/arduino-core-cache/core_0bde13c9a0eea2bfdc716a2fc04bccd4.a(vector_table.S.o)
__irq_can_rx1                                     /var/folders/hj/xvmq845d4rq0_l026j3g6x8c0000gn/T/arduino-core-cache/core_0bde13c9a0eea2bfdc716a2fc04bccd4.a(isrs.S.o)
                                                  /var/folders/hj/xvmq845d4rq0_l026j3g6x8c0000gn/T/arduino-core-cache/core_0bde13c9a0eea2bfdc716a2fc04bccd4.a(vector_table.S.o)
__irq_can_sce                                     /var/folders/hj/xvmq845d4rq0_l026j3g6x8c0000gn/T/arduino-core-cache/core_0bde13c9a0eea2bfdc716a2fc04bccd4.a(isrs.S.o)
                                                  /var/folders/hj/xvmq845d4rq0_l026j3g6x8c0000gn/T/arduino-core-cache/core_0bde13c9a0eea2bfdc716a2fc04bccd4.a(vector_table.S.o)
__irq_dma1_channel1                               /var/folders/hj/xvmq845d4rq0_l026j3g6x8c0000gn/T/arduino-core-cache/core_0bde13c9a0eea2bfdc716a2fc04bccd4.a(dma_f1.c.o)
                                                  /var/folders/hj/xvmq845d4rq0_l026j3g6x8c0000gn/T/arduino-core-cache/core_0bde13c9a0eea2bfdc716a2fc04bccd4.a(vector_table.S.o)
__irq_dma1_channel2                               /var/folders/hj/xvmq845d4rq0_l026j3g6x8c0000gn/T/arduino-core-cache/core_0bde13c9a0eea2bfdc716a2fc04bccd4.a(dma_f1.c.o)
                                                  /var/folders/hj/xvmq845d4rq0_l026j3g6x8c0000gn/T/arduino-core-cache/core_0bde13c9a0eea2bfdc716a2fc04bccd4.a(vector_table.S.o)
__irq_dma1_channel3                               /var/folders/hj/xvmq845d4rq0_l026j3g6x8c0000gn/T/arduino-core-cache/core_0bde13c9a0eea2bfdc716a2fc04bccd4.a(dma_f1.c.o)
                                                  /var/folders/hj/xvmq845d4rq0_l026j3g6x8c0000gn/T/arduino-core-cache/core_0bde13c9a0eea2bfdc716a2fc04bccd4.a(vector_table.S.o)
__irq_dma1_channel4                               /var/folders/hj/xvmq845d4rq0_l026j3g6x8c0000gn/T/arduino-core-cache/core_0bde13c9a0eea2bfdc716a2fc04bccd4.a(dma_f1.c.o)
                                                  /var/folders/hj/xvmq845d4rq0_l026j3g6x8c0000gn/T/arduino-core-cache/core_0bde13c9a0eea2bfdc716a2fc04bccd4.a(vector_table.S.o)
__irq_dma1_channel5                               /var/folders/hj/xvmq845d4rq0_l026j3g6x8c0000gn/T/arduino-core-cache/core_0bde13c9a0eea2bfdc716a2fc04bccd4.a(dma_f1.c.o)
                                                  /var/folders/hj/xvmq845d4rq0_l026j3g6x8c0000gn/T/arduino-core-cache/core_0bde13c9a0eea2bfdc716a2fc04bccd4.a(vector_table.S.o)
__irq_dma1_channel6                               /var/folders/hj/xvmq845d4rq0_l026j3g6x8c0000gn/T/arduino-core-cache/core_0bde13c9a0eea2bfdc716a2fc04bccd4.a(dma_f1.c.o)
                                                  /var/folders/hj/xvmq845d4rq0_l026j3g6x8c0000gn/T/arduino-core-cache/core_0bde13c9a0eea2bfdc716a2fc04bccd4.a(vector_table.S.o)
__irq_dma1_channel7                               /var/folders/hj/xvmq845d4rq0_l026j3g6x8c0000gn/T/arduino-core-cache/core_0bde13c9a0eea2bfdc716a2fc04bccd4.a(dma_f1.c.o)
                                                  /var/folders/hj/xvmq845d4rq0_l026j3g6x8c0000gn/T/arduino-core-cache/core_0bde13c9a0eea2bfdc716a2fc04bccd4.a(vector_table.S.o)
__irq_exti0                                       /var/folders/hj/xvmq845d4rq0_l026j3g6x8c0000gn/T/arduino-core-cache/core_0bde13c9a0eea2bfdc716a2fc04bccd4.a(exti.c.o)
                                                  /var/folders/hj/xvmq845d4rq0_l026j3g6x8c0000gn/T/arduino-core-cache/core_0bde13c9a0eea2bfdc716a2fc04bccd4.a(vector_table.S.o)
__irq_exti1                                       /var/folders/hj/xvmq845d4rq0_l026j3g6x8c0000gn/T/arduino-core-cache/core_0bde13c9a0eea2bfdc716a2fc04bccd4.a(exti.c.o)
                                                  /var/folders/hj/xvmq845d4rq0_l026j3g6x8c0000gn/T/arduino-core-cache/core_0bde13c9a0eea2bfdc716a2fc04bccd4.a(vector_table.S.o)
__irq_exti15_10                                   /var/folders/hj/xvmq845d4rq0_l026j3g6x8c0000gn/T/arduino-core-cache/core_0bde13c9a0eea2bfdc716a2fc04bccd4.a(exti.c.o)
                                                  /var/folders/hj/xvmq845d4rq0_l026j3g6x8c0000gn/T/arduino-core-cache/core_0bde13c9a0eea2bfdc716a2fc04bccd4.a(vector_table.S.o)
__irq_exti2                                       /var/folders/hj/xvmq845d4rq0_l026j3g6x8c0000gn/T/arduino-core-cache/core_0bde13c9a0eea2bfdc716a2fc04bccd4.a(exti.c.o)
                                                  /var/folders/hj/xvmq845d4rq0_l026j3g6x8c0000gn/T/arduino-core-cache/core_0bde13c9a0eea2bfdc716a2fc04bccd4.a(vector_table.S.o)
__irq_exti3                                       /var/folders/hj/xvmq845d4rq0_l026j3g6x8c0000gn/T/arduino-core-cache/core_0bde13c9a0eea2bfdc716a2fc04bccd4.a(exti.c.o)
                                                  /var/folders/hj/xvmq845d4rq0_l026j3g6x8c0000gn/T/arduino-core-cache/core_0bde13c9a0eea2bfdc716a2fc04bccd4.a(vector_table.S.o)
__irq_exti4                                       /var/folders/hj/xvmq845d4rq0_l026j3g6x8c0000gn/T/arduino-core-cache/core_0bde13c9a0eea2bfdc716a2fc04bccd4.a(exti.c.o)
                                                  /var/folders/hj/xvmq845d4rq0_l026j3g6x8c0000gn/T/arduino-core-cache/core_0bde13c9a0eea2bfdc716a2fc04bccd4.a(vector_table.S.o)
__irq_exti9_5                                     /var/folders/hj/xvmq845d4rq0_l026j3g6x8c0000gn/T/arduino-core-cache/core_0bde13c9a0eea2bfdc716a2fc04bccd4.a(exti.c.o)
                                                  /var/folders/hj/xvmq845d4rq0_l026j3g6x8c0000gn/T/arduino-core-cache/core_0bde13c9a0eea2bfdc716a2fc04bccd4.a(vector_table.S.o)
__irq_flash                                       /var/folders/hj/xvmq845d4rq0_l026j3g6x8c0000gn/T/arduino-core-cache/core_0bde13c9a0eea2bfdc716a2fc04bccd4.a(isrs.S.o)
                                                  /var/folders/hj/xvmq845d4rq0_l026j3g6x8c0000gn/T/arduino-core-cache/core_0bde13c9a0eea2bfdc716a2fc04bccd4.a(vector_table.S.o)
__irq_i2c1_er                                     /var/folders/hj/xvmq845d4rq0_l026j3g6x8c0000gn/T/arduino-core-cache/core_0bde13c9a0eea2bfdc716a2fc04bccd4.a(i2c_f1.c.o)
                                                  /var/folders/hj/xvmq845d4rq0_l026j3g6x8c0000gn/T/arduino-core-cache/core_0bde13c9a0eea2bfdc716a2fc04bccd4.a(vector_table.S.o)
__irq_i2c1_ev                                     /var/folders/hj/xvmq845d4rq0_l026j3g6x8c0000gn/T/arduino-core-cache/core_0bde13c9a0eea2bfdc716a2fc04bccd4.a(i2c_f1.c.o)
                                                  /var/folders/hj/xvmq845d4rq0_l026j3g6x8c0000gn/T/arduino-core-cache/core_0bde13c9a0eea2bfdc716a2fc04bccd4.a(vector_table.S.o)
__irq_i2c2_er                                     /var/folders/hj/xvmq845d4rq0_l026j3g6x8c0000gn/T/arduino-core-cache/core_0bde13c9a0eea2bfdc716a2fc04bccd4.a(i2c_f1.c.o)
                                                  /var/folders/hj/xvmq845d4rq0_l026j3g6x8c0000gn/T/arduino-core-cache/core_0bde13c9a0eea2bfdc716a2fc04bccd4.a(vector_table.S.o)
__irq_i2c2_ev                                     /var/folders/hj/xvmq845d4rq0_l026j3g6x8c0000gn/T/arduino-core-cache/core_0bde13c9a0eea2bfdc716a2fc04bccd4.a(i2c_f1.c.o)
                                                  /var/folders/hj/xvmq845d4rq0_l026j3g6x8c0000gn/T/arduino-core-cache/core_0bde13c9a0eea2bfdc716a2fc04bccd4.a(vector_table.S.o)
__irq_pvd                                         /var/folders/hj/xvmq845d4rq0_l026j3g6x8c0000gn/T/arduino-core-cache/core_0bde13c9a0eea2bfdc716a2fc04bccd4.a(isrs.S.o)
                                                  /var/folders/hj/xvmq845d4rq0_l026j3g6x8c0000gn/T/arduino-core-cache/core_0bde13c9a0eea2bfdc716a2fc04bccd4.a(vector_table.S.o)
__irq_rcc                                         /var/folders/hj/xvmq845d4rq0_l026j3g6x8c0000gn/T/arduino-core-cache/core_0bde13c9a0eea2bfdc716a2fc04bccd4.a(isrs.S.o)
                                                  /var/folders/hj/xvmq845d4rq0_l026j3g6x8c0000gn/T/arduino-core-cache/core_0bde13c9a0eea2bfdc716a2fc04bccd4.a(vector_table.S.o)
__irq_rtc                                         /var/folders/hj/xvmq845d4rq0_l026j3g6x8c0000gn/T/arduino-core-cache/core_0bde13c9a0eea2bfdc716a2fc04bccd4.a(isrs.S.o)
                                                  /var/folders/hj/xvmq845d4rq0_l026j3g6x8c0000gn/T/arduino-core-cache/core_0bde13c9a0eea2bfdc716a2fc04bccd4.a(vector_table.S.o)
__irq_rtcalarm                                    /var/folders/hj/xvmq845d4rq0_l026j3g6x8c0000gn/T/arduino-core-cache/core_0bde13c9a0eea2bfdc716a2fc04bccd4.a(isrs.S.o)
                                                  /var/folders/hj/xvmq845d4rq0_l026j3g6x8c0000gn/T/arduino-core-cache/core_0bde13c9a0eea2bfdc716a2fc04bccd4.a(vector_table.S.o)
__irq_spi1                                        /var/folders/hj/xvmq845d4rq0_l026j3g6x8c0000gn/T/arduino-core-cache/core_0bde13c9a0eea2bfdc716a2fc04bccd4.a(isrs.S.o)
                                                  /var/folders/hj/xvmq845d4rq0_l026j3g6x8c0000gn/T/arduino-core-cache/core_0bde13c9a0eea2bfdc716a2fc04bccd4.a(vector_table.S.o)
__irq_spi2                                        /var/folders/hj/xvmq845d4rq0_l026j3g6x8c0000gn/T/arduino-core-cache/core_0bde13c9a0eea2bfdc716a2fc04bccd4.a(isrs.S.o)
                                                  /var/folders/hj/xvmq845d4rq0_l026j3g6x8c0000gn/T/arduino-core-cache/core_0bde13c9a0eea2bfdc716a2fc04bccd4.a(vector_table.S.o)
__irq_tamper                                      /var/folders/hj/xvmq845d4rq0_l026j3g6x8c0000gn/T/arduino-core-cache/core_0bde13c9a0eea2bfdc716a2fc04bccd4.a(isrs.S.o)
                                                  /var/folders/hj/xvmq845d4rq0_l026j3g6x8c0000gn/T/arduino-core-cache/core_0bde13c9a0eea2bfdc716a2fc04bccd4.a(vector_table.S.o)
__irq_tim1_brk                                    /var/folders/hj/xvmq845d4rq0_l026j3g6x8c0000gn/T/arduino-core-cache/core_0bde13c9a0eea2bfdc716a2fc04bccd4.a(timer.c.o)
                                                  /var/folders/hj/xvmq845d4rq0_l026j3g6x8c0000gn/T/arduino-core-cache/core_0bde13c9a0eea2bfdc716a2fc04bccd4.a(vector_table.S.o)
__irq_tim1_cc                                     /var/folders/hj/xvmq845d4rq0_l026j3g6x8c0000gn/T/arduino-core-cache/core_0bde13c9a0eea2bfdc716a2fc04bccd4.a(timer.c.o)
                                                  /var/folders/hj/xvmq845d4rq0_l026j3g6x8c0000gn/T/arduino-core-cache/core_0bde13c9a0eea2bfdc716a2fc04bccd4.a(vector_table.S.o)
__irq_tim1_trg_com                                /var/folders/hj/xvmq845d4rq0_l026j3g6x8c0000gn/T/arduino-core-cache/core_0bde13c9a0eea2bfdc716a2fc04bccd4.a(timer.c.o)
                                                  /var/folders/hj/xvmq845d4rq0_l026j3g6x8c0000gn/T/arduino-core-cache/core_0bde13c9a0eea2bfdc716a2fc04bccd4.a(vector_table.S.o)
__irq_tim1_up                                     /var/folders/hj/xvmq845d4rq0_l026j3g6x8c0000gn/T/arduino-core-cache/core_0bde13c9a0eea2bfdc716a2fc04bccd4.a(timer.c.o)
                                                  /var/folders/hj/xvmq845d4rq0_l026j3g6x8c0000gn/T/arduino-core-cache/core_0bde13c9a0eea2bfdc716a2fc04bccd4.a(vector_table.S.o)
__irq_tim2                                        /var/folders/hj/xvmq845d4rq0_l026j3g6x8c0000gn/T/arduino-core-cache/core_0bde13c9a0eea2bfdc716a2fc04bccd4.a(timer.c.o)
                                                  /var/folders/hj/xvmq845d4rq0_l026j3g6x8c0000gn/T/arduino-core-cache/core_0bde13c9a0eea2bfdc716a2fc04bccd4.a(vector_table.S.o)
__irq_tim3                                        /var/folders/hj/xvmq845d4rq0_l026j3g6x8c0000gn/T/arduino-core-cache/core_0bde13c9a0eea2bfdc716a2fc04bccd4.a(timer.c.o)
                                                  /var/folders/hj/xvmq845d4rq0_l026j3g6x8c0000gn/T/arduino-core-cache/core_0bde13c9a0eea2bfdc716a2fc04bccd4.a(vector_table.S.o)
__irq_tim4                                        /var/folders/hj/xvmq845d4rq0_l026j3g6x8c0000gn/T/arduino-core-cache/core_0bde13c9a0eea2bfdc716a2fc04bccd4.a(timer.c.o)
                                                  /var/folders/hj/xvmq845d4rq0_l026j3g6x8c0000gn/T/arduino-core-cache/core_0bde13c9a0eea2bfdc716a2fc04bccd4.a(vector_table.S.o)
__irq_usart1                                      /var/folders/hj/xvmq845d4rq0_l026j3g6x8c0000gn/T/arduino-core-cache/core_0bde13c9a0eea2bfdc716a2fc04bccd4.a(usart_f1.c.o)
                                                  /var/folders/hj/xvmq845d4rq0_l026j3g6x8c0000gn/T/arduino-core-cache/core_0bde13c9a0eea2bfdc716a2fc04bccd4.a(vector_table.S.o)
__irq_usart2                                      /var/folders/hj/xvmq845d4rq0_l026j3g6x8c0000gn/T/arduino-core-cache/core_0bde13c9a0eea2bfdc716a2fc04bccd4.a(usart_f1.c.o)
                                                  /var/folders/hj/xvmq845d4rq0_l026j3g6x8c0000gn/T/arduino-core-cache/core_0bde13c9a0eea2bfdc716a2fc04bccd4.a(vector_table.S.o)
__irq_usart3                                      /var/folders/hj/xvmq845d4rq0_l026j3g6x8c0000gn/T/arduino-core-cache/core_0bde13c9a0eea2bfdc716a2fc04bccd4.a(usart_f1.c.o)
                                                  /var/folders/hj/xvmq845d4rq0_l026j3g6x8c0000gn/T/arduino-core-cache/core_0bde13c9a0eea2bfdc716a2fc04bccd4.a(vector_table.S.o)
__irq_usb_hp_can_tx                               /var/folders/hj/xvmq845d4rq0_l026j3g6x8c0000gn/T/arduino-core-cache/core_0bde13c9a0eea2bfdc716a2fc04bccd4.a(isrs.S.o)
                                                  /var/folders/hj/xvmq845d4rq0_l026j3g6x8c0000gn/T/arduino-core-cache/core_0bde13c9a0eea2bfdc716a2fc04bccd4.a(vector_table.S.o)
__irq_usb_lp_can_rx0                              /var/folders/hj/xvmq845d4rq0_l026j3g6x8c0000gn/T/arduino-core-cache/core_0bde13c9a0eea2bfdc716a2fc04bccd4.a(usb.c.o)
                                                  /var/folders/hj/xvmq845d4rq0_l026j3g6x8c0000gn/T/arduino-core-cache/core_0bde13c9a0eea2bfdc716a2fc04bccd4.a(vector_table.S.o)
__irq_usbwakeup                                   /var/folders/hj/xvmq845d4rq0_l026j3g6x8c0000gn/T/arduino-core-cache/core_0bde13c9a0eea2bfdc716a2fc04bccd4.a(isrs.S.o)
                                                  /var/folders/hj/xvmq845d4rq0_l026j3g6x8c0000gn/T/arduino-core-cache/core_0bde13c9a0eea2bfdc716a2fc04bccd4.a(vector_table.S.o)
__irq_wwdg                                        /var/folders/hj/xvmq845d4rq0_l026j3g6x8c0000gn/T/arduino-core-cache/core_0bde13c9a0eea2bfdc716a2fc04bccd4.a(isrs.S.o)
                                                  /var/folders/hj/xvmq845d4rq0_l026j3g6x8c0000gn/T/arduino-core-cache/core_0bde13c9a0eea2bfdc716a2fc04bccd4.a(vector_table.S.o)
__ledf2                                           /Users/lgcampos/Library/Arduino15/packages/arduino/tools/arm-none-eabi-gcc/7-2017q4/bin/../lib/gcc/arm-none-eabi/7.2.1/thumb/v7-m/libgcc.a(_arm_cmpdf2.o)
__libc_fini                                       /Users/lgcampos/Library/Arduino15/packages/arduino/tools/arm-none-eabi-gcc/7-2017q4/bin/../lib/gcc/arm-none-eabi/7.2.1/../../../../arm-none-eabi/lib/thumb/v7-m/libc.a(lib_a-__call_atexit.o)
__libc_fini_array                                 /Users/lgcampos/Library/Arduino15/packages/arduino/tools/arm-none-eabi-gcc/7-2017q4/bin/../lib/gcc/arm-none-eabi/7.2.1/../../../../arm-none-eabi/lib/thumb/v7-m/libc.a(lib_a-fini.o)
                                                  /Users/lgcampos/Library/Arduino15/packages/arduino/tools/arm-none-eabi-gcc/7-2017q4/bin/../lib/gcc/arm-none-eabi/7.2.1/../../../../arm-none-eabi/lib/thumb/v7-m/libc.a(lib_a-__call_atexit.o)
                                                  /Users/lgcampos/Library/Arduino15/packages/arduino/tools/arm-none-eabi-gcc/7-2017q4/bin/../lib/gcc/arm-none-eabi/7.2.1/../../../../arm-none-eabi/lib/thumb/v7-m/crt0.o
__libc_init_array                                 /Users/lgcampos/Library/Arduino15/packages/arduino/tools/arm-none-eabi-gcc/7-2017q4/bin/../lib/gcc/arm-none-eabi/7.2.1/../../../../arm-none-eabi/lib/thumb/v7-m/libc.a(lib_a-init.o)
                                                  /var/folders/hj/xvmq845d4rq0_l026j3g6x8c0000gn/T/arduino-sketch-783AC80E8B34696ACA1CC87DB6CF7DB3/core/wirish/start_c.c.o
                                                  /Users/lgcampos/Library/Arduino15/packages/arduino/tools/arm-none-eabi-gcc/7-2017q4/bin/../lib/gcc/arm-none-eabi/7.2.1/../../../../arm-none-eabi/lib/thumb/v7-m/crt0.o
__lm_enable_error_usart                           /var/folders/hj/xvmq845d4rq0_l026j3g6x8c0000gn/T/arduino-core-cache/core_0bde13c9a0eea2bfdc716a2fc04bccd4.a(util.c.o)
__lm_error                                        /var/folders/hj/xvmq845d4rq0_l026j3g6x8c0000gn/T/arduino-core-cache/core_0bde13c9a0eea2bfdc716a2fc04bccd4.a(util.c.o)
__lock___arc4random_mutex                         /Users/lgcampos/Library/Arduino15/packages/arduino/tools/arm-none-eabi-gcc/7-2017q4/bin/../lib/gcc/arm-none-eabi/7.2.1/../../../../arm-none-eabi/lib/thumb/v7-m/libc.a(lib_a-lock.o)
__lock___at_quick_exit_mutex                      /Users/lgcampos/Library/Arduino15/packages/arduino/tools/arm-none-eabi-gcc/7-2017q4/bin/../lib/gcc/arm-none-eabi/7.2.1/../../../../arm-none-eabi/lib/thumb/v7-m/libc.a(lib_a-lock.o)
__lock___atexit_recursive_mutex                   /Users/lgcampos/Library/Arduino15/packages/arduino/tools/arm-none-eabi-gcc/7-2017q4/bin/../lib/gcc/arm-none-eabi/7.2.1/../../../../arm-none-eabi/lib/thumb/v7-m/libc.a(lib_a-lock.o)
                                                  /Users/lgcampos/Library/Arduino15/packages/arduino/tools/arm-none-eabi-gcc/7-2017q4/bin/../lib/gcc/arm-none-eabi/7.2.1/../../../../arm-none-eabi/lib/thumb/v7-m/libc.a(lib_a-__call_atexit.o)
__lock___dd_hash_mutex                            /Users/lgcampos/Library/Arduino15/packages/arduino/tools/arm-none-eabi-gcc/7-2017q4/bin/../lib/gcc/arm-none-eabi/7.2.1/../../../../arm-none-eabi/lib/thumb/v7-m/libc.a(lib_a-lock.o)
__lock___env_recursive_mutex                      /Users/lgcampos/Library/Arduino15/packages/arduino/tools/arm-none-eabi-gcc/7-2017q4/bin/../lib/gcc/arm-none-eabi/7.2.1/../../../../arm-none-eabi/lib/thumb/v7-m/libc.a(lib_a-lock.o)
__lock___malloc_recursive_mutex                   /Users/lgcampos/Library/Arduino15/packages/arduino/tools/arm-none-eabi-gcc/7-2017q4/bin/../lib/gcc/arm-none-eabi/7.2.1/../../../../arm-none-eabi/lib/thumb/v7-m/libc.a(lib_a-lock.o)
                                                  /Users/lgcampos/Library/Arduino15/packages/arduino/tools/arm-none-eabi-gcc/7-2017q4/bin/../lib/gcc/arm-none-eabi/7.2.1/../../../../arm-none-eabi/lib/thumb/v7-m/libc.a(lib_a-mlock.o)
__lock___sfp_recursive_mutex                      /Users/lgcampos/Library/Arduino15/packages/arduino/tools/arm-none-eabi-gcc/7-2017q4/bin/../lib/gcc/arm-none-eabi/7.2.1/../../../../arm-none-eabi/lib/thumb/v7-m/libc.a(lib_a-lock.o)
__lock___sinit_recursive_mutex                    /Users/lgcampos/Library/Arduino15/packages/arduino/tools/arm-none-eabi-gcc/7-2017q4/bin/../lib/gcc/arm-none-eabi/7.2.1/../../../../arm-none-eabi/lib/thumb/v7-m/libc.a(lib_a-lock.o)
__lock___tz_mutex                                 /Users/lgcampos/Library/Arduino15/packages/arduino/tools/arm-none-eabi-gcc/7-2017q4/bin/../lib/gcc/arm-none-eabi/7.2.1/../../../../arm-none-eabi/lib/thumb/v7-m/libc.a(lib_a-lock.o)
__ltdf2                                           /Users/lgcampos/Library/Arduino15/packages/arduino/tools/arm-none-eabi-gcc/7-2017q4/bin/../lib/gcc/arm-none-eabi/7.2.1/thumb/v7-m/libgcc.a(_arm_cmpdf2.o)
__malloc_av_                                      /Users/lgcampos/Library/Arduino15/packages/arduino/tools/arm-none-eabi-gcc/7-2017q4/bin/../lib/gcc/arm-none-eabi/7.2.1/../../../../arm-none-eabi/lib/thumb/v7-m/libc.a(lib_a-mallocr.o)
                                                  /Users/lgcampos/Library/Arduino15/packages/arduino/tools/arm-none-eabi-gcc/7-2017q4/bin/../lib/gcc/arm-none-eabi/7.2.1/../../../../arm-none-eabi/lib/thumb/v7-m/libc.a(lib_a-freer.o)
__malloc_current_mallinfo                         /Users/lgcampos/Library/Arduino15/packages/arduino/tools/arm-none-eabi-gcc/7-2017q4/bin/../lib/gcc/arm-none-eabi/7.2.1/../../../../arm-none-eabi/lib/thumb/v7-m/libc.a(lib_a-mallocr.o)
                                                  /Users/lgcampos/Library/Arduino15/packages/arduino/tools/arm-none-eabi-gcc/7-2017q4/bin/../lib/gcc/arm-none-eabi/7.2.1/../../../../arm-none-eabi/lib/thumb/v7-m/libc.a(lib_a-freer.o)
__malloc_lock                                     /Users/lgcampos/Library/Arduino15/packages/arduino/tools/arm-none-eabi-gcc/7-2017q4/bin/../lib/gcc/arm-none-eabi/7.2.1/../../../../arm-none-eabi/lib/thumb/v7-m/libc.a(lib_a-mlock.o)
                                                  /Users/lgcampos/Library/Arduino15/packages/arduino/tools/arm-none-eabi-gcc/7-2017q4/bin/../lib/gcc/arm-none-eabi/7.2.1/../../../../arm-none-eabi/lib/thumb/v7-m/libc.a(lib_a-freer.o)
                                                  /Users/lgcampos/Library/Arduino15/packages/arduino/tools/arm-none-eabi-gcc/7-2017q4/bin/../lib/gcc/arm-none-eabi/7.2.1/../../../../arm-none-eabi/lib/thumb/v7-m/libc.a(lib_a-mallocr.o)
__malloc_max_sbrked_mem                           /Users/lgcampos/Library/Arduino15/packages/arduino/tools/arm-none-eabi-gcc/7-2017q4/bin/../lib/gcc/arm-none-eabi/7.2.1/../../../../arm-none-eabi/lib/thumb/v7-m/libc.a(lib_a-mallocr.o)
__malloc_max_total_mem                            /Users/lgcampos/Library/Arduino15/packages/arduino/tools/arm-none-eabi-gcc/7-2017q4/bin/../lib/gcc/arm-none-eabi/7.2.1/../../../../arm-none-eabi/lib/thumb/v7-m/libc.a(lib_a-mallocr.o)
__malloc_sbrk_base                                /Users/lgcampos/Library/Arduino15/packages/arduino/tools/arm-none-eabi-gcc/7-2017q4/bin/../lib/gcc/arm-none-eabi/7.2.1/../../../../arm-none-eabi/lib/thumb/v7-m/libc.a(lib_a-mallocr.o)
                                                  /Users/lgcampos/Library/Arduino15/packages/arduino/tools/arm-none-eabi-gcc/7-2017q4/bin/../lib/gcc/arm-none-eabi/7.2.1/../../../../arm-none-eabi/lib/thumb/v7-m/libc.a(lib_a-freer.o)
__malloc_top_pad                                  /Users/lgcampos/Library/Arduino15/packages/arduino/tools/arm-none-eabi-gcc/7-2017q4/bin/../lib/gcc/arm-none-eabi/7.2.1/../../../../arm-none-eabi/lib/thumb/v7-m/libc.a(lib_a-mallocr.o)
                                                  /Users/lgcampos/Library/Arduino15/packages/arduino/tools/arm-none-eabi-gcc/7-2017q4/bin/../lib/gcc/arm-none-eabi/7.2.1/../../../../arm-none-eabi/lib/thumb/v7-m/libc.a(lib_a-freer.o)
__malloc_trim_threshold                           /Users/lgcampos/Library/Arduino15/packages/arduino/tools/arm-none-eabi-gcc/7-2017q4/bin/../lib/gcc/arm-none-eabi/7.2.1/../../../../arm-none-eabi/lib/thumb/v7-m/libc.a(lib_a-mallocr.o)
                                                  /Users/lgcampos/Library/Arduino15/packages/arduino/tools/arm-none-eabi-gcc/7-2017q4/bin/../lib/gcc/arm-none-eabi/7.2.1/../../../../arm-none-eabi/lib/thumb/v7-m/libc.a(lib_a-freer.o)
__malloc_unlock                                   /Users/lgcampos/Library/Arduino15/packages/arduino/tools/arm-none-eabi-gcc/7-2017q4/bin/../lib/gcc/arm-none-eabi/7.2.1/../../../../arm-none-eabi/lib/thumb/v7-m/libc.a(lib_a-mlock.o)
                                                  /Users/lgcampos/Library/Arduino15/packages/arduino/tools/arm-none-eabi-gcc/7-2017q4/bin/../lib/gcc/arm-none-eabi/7.2.1/../../../../arm-none-eabi/lib/thumb/v7-m/libc.a(lib_a-freer.o)
                                                  /Users/lgcampos/Library/Arduino15/packages/arduino/tools/arm-none-eabi-gcc/7-2017q4/bin/../lib/gcc/arm-none-eabi/7.2.1/../../../../arm-none-eabi/lib/thumb/v7-m/libc.a(lib_a-mallocr.o)
__msp_init                                        /var/folders/hj/xvmq845d4rq0_l026j3g6x8c0000gn/T/arduino-core-cache/core_0bde13c9a0eea2bfdc716a2fc04bccd4.a(vector_table.S.o)
                                                  /var/folders/hj/xvmq845d4rq0_l026j3g6x8c0000gn/T/arduino-sketch-783AC80E8B34696ACA1CC87DB6CF7DB3/core/wirish/start.S.o
__muldf3                                          /Users/lgcampos/Library/Arduino15/packages/arduino/tools/arm-none-eabi-gcc/7-2017q4/bin/../lib/gcc/arm-none-eabi/7.2.1/thumb/v7-m/libgcc.a(_arm_muldivdf3.o)
__nedf2                                           /Users/lgcampos/Library/Arduino15/packages/arduino/tools/arm-none-eabi-gcc/7-2017q4/bin/../lib/gcc/arm-none-eabi/7.2.1/thumb/v7-m/libgcc.a(_arm_cmpdf2.o)
__preinit_array_end                               /Users/lgcampos/Library/Arduino15/packages/arduino/tools/arm-none-eabi-gcc/7-2017q4/bin/../lib/gcc/arm-none-eabi/7.2.1/../../../../arm-none-eabi/lib/thumb/v7-m/libc.a(lib_a-init.o)
__preinit_array_start                             /Users/lgcampos/Library/Arduino15/packages/arduino/tools/arm-none-eabi-gcc/7-2017q4/bin/../lib/gcc/arm-none-eabi/7.2.1/../../../../arm-none-eabi/lib/thumb/v7-m/libc.a(lib_a-init.o)
__register_exitproc                               /Users/lgcampos/Library/Arduino15/packages/arduino/tools/arm-none-eabi-gcc/7-2017q4/bin/../lib/gcc/arm-none-eabi/7.2.1/../../../../arm-none-eabi/lib/thumb/v7-m/libc.a(lib_a-__atexit.o)
                                                  /Users/lgcampos/Library/Arduino15/packages/arduino/tools/arm-none-eabi-gcc/7-2017q4/bin/../lib/gcc/arm-none-eabi/7.2.1/../../../../arm-none-eabi/lib/thumb/v7-m/libc.a(lib_a-atexit.o)
__register_frame_info                             /Users/lgcampos/Library/Arduino15/packages/arduino/tools/arm-none-eabi-gcc/7-2017q4/bin/../lib/gcc/arm-none-eabi/7.2.1/thumb/v7-m/crtbegin.o
__retarget_lock_acquire                           /Users/lgcampos/Library/Arduino15/packages/arduino/tools/arm-none-eabi-gcc/7-2017q4/bin/../lib/gcc/arm-none-eabi/7.2.1/../../../../arm-none-eabi/lib/thumb/v7-m/libc.a(lib_a-lock.o)
__retarget_lock_acquire_recursive                 /Users/lgcampos/Library/Arduino15/packages/arduino/tools/arm-none-eabi-gcc/7-2017q4/bin/../lib/gcc/arm-none-eabi/7.2.1/../../../../arm-none-eabi/lib/thumb/v7-m/libc.a(lib_a-lock.o)
                                                  /Users/lgcampos/Library/Arduino15/packages/arduino/tools/arm-none-eabi-gcc/7-2017q4/bin/../lib/gcc/arm-none-eabi/7.2.1/../../../../arm-none-eabi/lib/thumb/v7-m/libc.a(lib_a-__atexit.o)
                                                  /Users/lgcampos/Library/Arduino15/packages/arduino/tools/arm-none-eabi-gcc/7-2017q4/bin/../lib/gcc/arm-none-eabi/7.2.1/../../../../arm-none-eabi/lib/thumb/v7-m/libc.a(lib_a-__call_atexit.o)
                                                  /Users/lgcampos/Library/Arduino15/packages/arduino/tools/arm-none-eabi-gcc/7-2017q4/bin/../lib/gcc/arm-none-eabi/7.2.1/../../../../arm-none-eabi/lib/thumb/v7-m/libc.a(lib_a-mlock.o)
__retarget_lock_close                             /Users/lgcampos/Library/Arduino15/packages/arduino/tools/arm-none-eabi-gcc/7-2017q4/bin/../lib/gcc/arm-none-eabi/7.2.1/../../../../arm-none-eabi/lib/thumb/v7-m/libc.a(lib_a-lock.o)
__retarget_lock_close_recursive                   /Users/lgcampos/Library/Arduino15/packages/arduino/tools/arm-none-eabi-gcc/7-2017q4/bin/../lib/gcc/arm-none-eabi/7.2.1/../../../../arm-none-eabi/lib/thumb/v7-m/libc.a(lib_a-lock.o)
__retarget_lock_init                              /Users/lgcampos/Library/Arduino15/packages/arduino/tools/arm-none-eabi-gcc/7-2017q4/bin/../lib/gcc/arm-none-eabi/7.2.1/../../../../arm-none-eabi/lib/thumb/v7-m/libc.a(lib_a-lock.o)
__retarget_lock_init_recursive                    /Users/lgcampos/Library/Arduino15/packages/arduino/tools/arm-none-eabi-gcc/7-2017q4/bin/../lib/gcc/arm-none-eabi/7.2.1/../../../../arm-none-eabi/lib/thumb/v7-m/libc.a(lib_a-lock.o)
__retarget_lock_release                           /Users/lgcampos/Library/Arduino15/packages/arduino/tools/arm-none-eabi-gcc/7-2017q4/bin/../lib/gcc/arm-none-eabi/7.2.1/../../../../arm-none-eabi/lib/thumb/v7-m/libc.a(lib_a-lock.o)
__retarget_lock_release_recursive                 /Users/lgcampos/Library/Arduino15/packages/arduino/tools/arm-none-eabi-gcc/7-2017q4/bin/../lib/gcc/arm-none-eabi/7.2.1/../../../../arm-none-eabi/lib/thumb/v7-m/libc.a(lib_a-lock.o)
                                                  /Users/lgcampos/Library/Arduino15/packages/arduino/tools/arm-none-eabi-gcc/7-2017q4/bin/../lib/gcc/arm-none-eabi/7.2.1/../../../../arm-none-eabi/lib/thumb/v7-m/libc.a(lib_a-__atexit.o)
                                                  /Users/lgcampos/Library/Arduino15/packages/arduino/tools/arm-none-eabi-gcc/7-2017q4/bin/../lib/gcc/arm-none-eabi/7.2.1/../../../../arm-none-eabi/lib/thumb/v7-m/libc.a(lib_a-__call_atexit.o)
                                                  /Users/lgcampos/Library/Arduino15/packages/arduino/tools/arm-none-eabi-gcc/7-2017q4/bin/../lib/gcc/arm-none-eabi/7.2.1/../../../../arm-none-eabi/lib/thumb/v7-m/libc.a(lib_a-mlock.o)
__retarget_lock_try_acquire                       /Users/lgcampos/Library/Arduino15/packages/arduino/tools/arm-none-eabi-gcc/7-2017q4/bin/../lib/gcc/arm-none-eabi/7.2.1/../../../../arm-none-eabi/lib/thumb/v7-m/libc.a(lib_a-lock.o)
__retarget_lock_try_acquire_recursive             /Users/lgcampos/Library/Arduino15/packages/arduino/tools/arm-none-eabi-gcc/7-2017q4/bin/../lib/gcc/arm-none-eabi/7.2.1/../../../../arm-none-eabi/lib/thumb/v7-m/libc.a(lib_a-lock.o)
__stack                                           /Users/lgcampos/Library/Arduino15/packages/arduino/tools/arm-none-eabi-gcc/7-2017q4/bin/../lib/gcc/arm-none-eabi/7.2.1/../../../../arm-none-eabi/lib/thumb/v7-m/crt0.o
__start__                                         /var/folders/hj/xvmq845d4rq0_l026j3g6x8c0000gn/T/arduino-sketch-783AC80E8B34696ACA1CC87DB6CF7DB3/core/wirish/start.S.o
__stm32_vector_table                              /var/folders/hj/xvmq845d4rq0_l026j3g6x8c0000gn/T/arduino-core-cache/core_0bde13c9a0eea2bfdc716a2fc04bccd4.a(vector_table.S.o)
__stm32reservedexception10                        /var/folders/hj/xvmq845d4rq0_l026j3g6x8c0000gn/T/arduino-core-cache/core_0bde13c9a0eea2bfdc716a2fc04bccd4.a(isrs.S.o)
                                                  /var/folders/hj/xvmq845d4rq0_l026j3g6x8c0000gn/T/arduino-core-cache/core_0bde13c9a0eea2bfdc716a2fc04bccd4.a(vector_table.S.o)
__stm32reservedexception13                        /var/folders/hj/xvmq845d4rq0_l026j3g6x8c0000gn/T/arduino-core-cache/core_0bde13c9a0eea2bfdc716a2fc04bccd4.a(isrs.S.o)
                                                  /var/folders/hj/xvmq845d4rq0_l026j3g6x8c0000gn/T/arduino-core-cache/core_0bde13c9a0eea2bfdc716a2fc04bccd4.a(vector_table.S.o)
__stm32reservedexception7                         /var/folders/hj/xvmq845d4rq0_l026j3g6x8c0000gn/T/arduino-core-cache/core_0bde13c9a0eea2bfdc716a2fc04bccd4.a(isrs.S.o)
                                                  /var/folders/hj/xvmq845d4rq0_l026j3g6x8c0000gn/T/arduino-core-cache/core_0bde13c9a0eea2bfdc716a2fc04bccd4.a(vector_table.S.o)
__stm32reservedexception8                         /var/folders/hj/xvmq845d4rq0_l026j3g6x8c0000gn/T/arduino-core-cache/core_0bde13c9a0eea2bfdc716a2fc04bccd4.a(isrs.S.o)
                                                  /var/folders/hj/xvmq845d4rq0_l026j3g6x8c0000gn/T/arduino-core-cache/core_0bde13c9a0eea2bfdc716a2fc04bccd4.a(vector_table.S.o)
__stm32reservedexception9                         /var/folders/hj/xvmq845d4rq0_l026j3g6x8c0000gn/T/arduino-core-cache/core_0bde13c9a0eea2bfdc716a2fc04bccd4.a(isrs.S.o)
                                                  /var/folders/hj/xvmq845d4rq0_l026j3g6x8c0000gn/T/arduino-core-cache/core_0bde13c9a0eea2bfdc716a2fc04bccd4.a(vector_table.S.o)
__subdf3                                          /Users/lgcampos/Library/Arduino15/packages/arduino/tools/arm-none-eabi-gcc/7-2017q4/bin/../lib/gcc/arm-none-eabi/7.2.1/thumb/v7-m/libgcc.a(_arm_addsubdf3.o)
__udivmoddi4                                      /Users/lgcampos/Library/Arduino15/packages/arduino/tools/arm-none-eabi-gcc/7-2017q4/bin/../lib/gcc/arm-none-eabi/7.2.1/thumb/v7-m/libgcc.a(_udivmoddi4.o)
                                                  /Users/lgcampos/Library/Arduino15/packages/arduino/tools/arm-none-eabi-gcc/7-2017q4/bin/../lib/gcc/arm-none-eabi/7.2.1/thumb/v7-m/libgcc.a(_aeabi_uldivmod.o)
                                                  /Users/lgcampos/Library/Arduino15/packages/arduino/tools/arm-none-eabi-gcc/7-2017q4/bin/../lib/gcc/arm-none-eabi/7.2.1/thumb/v7-m/libgcc.a(_aeabi_ldivmod.o)
_calloc_r                                         /Users/lgcampos/Library/Arduino15/packages/arduino/tools/arm-none-eabi-gcc/7-2017q4/bin/../lib/gcc/arm-none-eabi/7.2.1/../../../../arm-none-eabi/lib/thumb/v7-m/libc.a(lib_a-callocr.o)
                                                  /Users/lgcampos/Library/Arduino15/packages/arduino/tools/arm-none-eabi-gcc/7-2017q4/bin/../lib/gcc/arm-none-eabi/7.2.1/../../../../arm-none-eabi/lib/thumb/v7-m/libc.a(lib_a-calloc.o)
_close                                            /var/folders/hj/xvmq845d4rq0_l026j3g6x8c0000gn/T/arduino-sketch-783AC80E8B34696ACA1CC87DB6CF7DB3/core/wirish/syscalls.c.o
_dma_addr_type                                    /var/folders/hj/xvmq845d4rq0_l026j3g6x8c0000gn/T/arduino-core-cache/core_0bde13c9a0eea2bfdc716a2fc04bccd4.a(dma.c.o)
                                                  /var/folders/hj/xvmq845d4rq0_l026j3g6x8c0000gn/T/arduino-core-cache/core_0bde13c9a0eea2bfdc716a2fc04bccd4.a(dma_f1.c.o)
_exit                                             /var/folders/hj/xvmq845d4rq0_l026j3g6x8c0000gn/T/arduino-sketch-783AC80E8B34696ACA1CC87DB6CF7DB3/core/wirish/syscalls.c.o
                                                  /Users/lgcampos/Library/Arduino15/packages/arduino/tools/arm-none-eabi-gcc/7-2017q4/bin/../lib/gcc/arm-none-eabi/7.2.1/../../../../arm-none-eabi/lib/thumb/v7-m/libc.a(lib_a-exit.o)
_fail                                             /var/folders/hj/xvmq845d4rq0_l026j3g6x8c0000gn/T/arduino-core-cache/core_0bde13c9a0eea2bfdc716a2fc04bccd4.a(util.c.o)
_fini                                             /Users/lgcampos/Library/Arduino15/packages/arduino/tools/arm-none-eabi-gcc/7-2017q4/bin/../lib/gcc/arm-none-eabi/7.2.1/thumb/v7-m/crti.o
                                                  /Users/lgcampos/Library/Arduino15/packages/arduino/tools/arm-none-eabi-gcc/7-2017q4/bin/../lib/gcc/arm-none-eabi/7.2.1/../../../../arm-none-eabi/lib/thumb/v7-m/libc.a(lib_a-fini.o)
_free_r                                           /Users/lgcampos/Library/Arduino15/packages/arduino/tools/arm-none-eabi-gcc/7-2017q4/bin/../lib/gcc/arm-none-eabi/7.2.1/../../../../arm-none-eabi/lib/thumb/v7-m/libc.a(lib_a-freer.o)
                                                  /Users/lgcampos/Library/Arduino15/packages/arduino/tools/arm-none-eabi-gcc/7-2017q4/bin/../lib/gcc/arm-none-eabi/7.2.1/../../../../arm-none-eabi/lib/thumb/v7-m/libc.a(lib_a-reent.o)
                                                  /Users/lgcampos/Library/Arduino15/packages/arduino/tools/arm-none-eabi-gcc/7-2017q4/bin/../lib/gcc/arm-none-eabi/7.2.1/../../../../arm-none-eabi/lib/thumb/v7-m/libc.a(lib_a-mallocr.o)
                                                  /Users/lgcampos/Library/Arduino15/packages/arduino/tools/arm-none-eabi-gcc/7-2017q4/bin/../lib/gcc/arm-none-eabi/7.2.1/../../../../arm-none-eabi/lib/thumb/v7-m/libc.a(lib_a-malloc.o)
_fstat                                            /var/folders/hj/xvmq845d4rq0_l026j3g6x8c0000gn/T/arduino-sketch-783AC80E8B34696ACA1CC87DB6CF7DB3/core/wirish/syscalls.c.o
_global_impure_ptr                                /Users/lgcampos/Library/Arduino15/packages/arduino/tools/arm-none-eabi-gcc/7-2017q4/bin/../lib/gcc/arm-none-eabi/7.2.1/../../../../arm-none-eabi/lib/thumb/v7-m/libc.a(lib_a-impure.o)
                                                  /Users/lgcampos/Library/Arduino15/packages/arduino/tools/arm-none-eabi-gcc/7-2017q4/bin/../lib/gcc/arm-none-eabi/7.2.1/../../../../arm-none-eabi/lib/thumb/v7-m/libc.a(lib_a-__atexit.o)
                                                  /Users/lgcampos/Library/Arduino15/packages/arduino/tools/arm-none-eabi-gcc/7-2017q4/bin/../lib/gcc/arm-none-eabi/7.2.1/../../../../arm-none-eabi/lib/thumb/v7-m/libc.a(lib_a-__call_atexit.o)
                                                  /Users/lgcampos/Library/Arduino15/packages/arduino/tools/arm-none-eabi-gcc/7-2017q4/bin/../lib/gcc/arm-none-eabi/7.2.1/../../../../arm-none-eabi/lib/thumb/v7-m/libc.a(lib_a-exit.o)
_i2c_irq_error_handler                            /var/folders/hj/xvmq845d4rq0_l026j3g6x8c0000gn/T/arduino-core-cache/core_0bde13c9a0eea2bfdc716a2fc04bccd4.a(i2c.c.o)
                                                  /var/folders/hj/xvmq845d4rq0_l026j3g6x8c0000gn/T/arduino-core-cache/core_0bde13c9a0eea2bfdc716a2fc04bccd4.a(i2c_f1.c.o)
_i2c_irq_handler                                  /var/folders/hj/xvmq845d4rq0_l026j3g6x8c0000gn/T/arduino-core-cache/core_0bde13c9a0eea2bfdc716a2fc04bccd4.a(i2c.c.o)
                                                  /var/folders/hj/xvmq845d4rq0_l026j3g6x8c0000gn/T/arduino-core-cache/core_0bde13c9a0eea2bfdc716a2fc04bccd4.a(i2c_f1.c.o)
_i2c_irq_priority_fixup                           /var/folders/hj/xvmq845d4rq0_l026j3g6x8c0000gn/T/arduino-core-cache/core_0bde13c9a0eea2bfdc716a2fc04bccd4.a(i2c_f1.c.o)
                                                  /var/folders/hj/xvmq845d4rq0_l026j3g6x8c0000gn/T/arduino-core-cache/core_0bde13c9a0eea2bfdc716a2fc04bccd4.a(i2c.c.o)
_impure_ptr                                       /Users/lgcampos/Library/Arduino15/packages/arduino/tools/arm-none-eabi-gcc/7-2017q4/bin/../lib/gcc/arm-none-eabi/7.2.1/../../../../arm-none-eabi/lib/thumb/v7-m/libc.a(lib_a-impure.o)
                                                  /Users/lgcampos/Library/Arduino15/packages/arduino/tools/arm-none-eabi-gcc/7-2017q4/bin/../lib/gcc/arm-none-eabi/7.2.1/../../../../arm-none-eabi/lib/thumb/v7-m/libc.a(lib_a-reent.o)
                                                  /Users/lgcampos/Library/Arduino15/packages/arduino/tools/arm-none-eabi-gcc/7-2017q4/bin/../lib/gcc/arm-none-eabi/7.2.1/../../../../arm-none-eabi/lib/thumb/v7-m/libc.a(lib_a-rand.o)
                                                  /Users/lgcampos/Library/Arduino15/packages/arduino/tools/arm-none-eabi-gcc/7-2017q4/bin/../lib/gcc/arm-none-eabi/7.2.1/../../../../arm-none-eabi/lib/thumb/v7-m/libc.a(lib_a-malloc.o)
                                                  /Users/lgcampos/Library/Arduino15/packages/arduino/tools/arm-none-eabi-gcc/7-2017q4/bin/../lib/gcc/arm-none-eabi/7.2.1/../../../../arm-none-eabi/lib/thumb/v7-m/libc.a(lib_a-errno.o)
                                                  /Users/lgcampos/Library/Arduino15/packages/arduino/tools/arm-none-eabi-gcc/7-2017q4/bin/../lib/gcc/arm-none-eabi/7.2.1/../../../../arm-none-eabi/lib/thumb/v7-m/libc.a(lib_a-calloc.o)
_init                                             /Users/lgcampos/Library/Arduino15/packages/arduino/tools/arm-none-eabi-gcc/7-2017q4/bin/../lib/gcc/arm-none-eabi/7.2.1/thumb/v7-m/crti.o
                                                  /Users/lgcampos/Library/Arduino15/packages/arduino/tools/arm-none-eabi-gcc/7-2017q4/bin/../lib/gcc/arm-none-eabi/7.2.1/../../../../arm-none-eabi/lib/thumb/v7-m/libc.a(lib_a-init.o)
_isatty                                           /var/folders/hj/xvmq845d4rq0_l026j3g6x8c0000gn/T/arduino-sketch-783AC80E8B34696ACA1CC87DB6CF7DB3/core/wirish/syscalls.c.o
_lm_heap_end                                      /var/folders/hj/xvmq845d4rq0_l026j3g6x8c0000gn/T/arduino-sketch-783AC80E8B34696ACA1CC87DB6CF7DB3/core/wirish/syscalls.c.o
_lm_heap_start                                    /var/folders/hj/xvmq845d4rq0_l026j3g6x8c0000gn/T/arduino-sketch-783AC80E8B34696ACA1CC87DB6CF7DB3/core/wirish/syscalls.c.o
_lm_rom_img_cfgp                                  /var/folders/hj/xvmq845d4rq0_l026j3g6x8c0000gn/T/arduino-sketch-783AC80E8B34696ACA1CC87DB6CF7DB3/core/wirish/start_c.c.o
_lseek                                            /var/folders/hj/xvmq845d4rq0_l026j3g6x8c0000gn/T/arduino-sketch-783AC80E8B34696ACA1CC87DB6CF7DB3/core/wirish/syscalls.c.o
_mainCRTStartup                                   /Users/lgcampos/Library/Arduino15/packages/arduino/tools/arm-none-eabi-gcc/7-2017q4/bin/../lib/gcc/arm-none-eabi/7.2.1/../../../../arm-none-eabi/lib/thumb/v7-m/crt0.o
_malloc_r                                         /Users/lgcampos/Library/Arduino15/packages/arduino/tools/arm-none-eabi-gcc/7-2017q4/bin/../lib/gcc/arm-none-eabi/7.2.1/../../../../arm-none-eabi/lib/thumb/v7-m/libc.a(lib_a-mallocr.o)
                                                  /Users/lgcampos/Library/Arduino15/packages/arduino/tools/arm-none-eabi-gcc/7-2017q4/bin/../lib/gcc/arm-none-eabi/7.2.1/../../../../arm-none-eabi/lib/thumb/v7-m/libc.a(lib_a-malloc.o)
                                                  /Users/lgcampos/Library/Arduino15/packages/arduino/tools/arm-none-eabi-gcc/7-2017q4/bin/../lib/gcc/arm-none-eabi/7.2.1/../../../../arm-none-eabi/lib/thumb/v7-m/libc.a(lib_a-callocr.o)
_malloc_trim_r                                    /Users/lgcampos/Library/Arduino15/packages/arduino/tools/arm-none-eabi-gcc/7-2017q4/bin/../lib/gcc/arm-none-eabi/7.2.1/../../../../arm-none-eabi/lib/thumb/v7-m/libc.a(lib_a-freer.o)
_open                                             /var/folders/hj/xvmq845d4rq0_l026j3g6x8c0000gn/T/arduino-sketch-783AC80E8B34696ACA1CC87DB6CF7DB3/core/wirish/syscalls.c.o
_read                                             /var/folders/hj/xvmq845d4rq0_l026j3g6x8c0000gn/T/arduino-sketch-783AC80E8B34696ACA1CC87DB6CF7DB3/core/wirish/syscalls.c.o
_reclaim_reent                                    /Users/lgcampos/Library/Arduino15/packages/arduino/tools/arm-none-eabi-gcc/7-2017q4/bin/../lib/gcc/arm-none-eabi/7.2.1/../../../../arm-none-eabi/lib/thumb/v7-m/libc.a(lib_a-reent.o)
_sbrk                                             /var/folders/hj/xvmq845d4rq0_l026j3g6x8c0000gn/T/arduino-sketch-783AC80E8B34696ACA1CC87DB6CF7DB3/core/wirish/syscalls.c.o
                                                  /Users/lgcampos/Library/Arduino15/packages/arduino/tools/arm-none-eabi-gcc/7-2017q4/bin/../lib/gcc/arm-none-eabi/7.2.1/../../../../arm-none-eabi/lib/thumb/v7-m/libc.a(lib_a-sbrkr.o)
_sbrk_r                                           /Users/lgcampos/Library/Arduino15/packages/arduino/tools/arm-none-eabi-gcc/7-2017q4/bin/../lib/gcc/arm-none-eabi/7.2.1/../../../../arm-none-eabi/lib/thumb/v7-m/libc.a(lib_a-sbrkr.o)
                                                  /Users/lgcampos/Library/Arduino15/packages/arduino/tools/arm-none-eabi-gcc/7-2017q4/bin/../lib/gcc/arm-none-eabi/7.2.1/../../../../arm-none-eabi/lib/thumb/v7-m/libc.a(lib_a-freer.o)
                                                  /Users/lgcampos/Library/Arduino15/packages/arduino/tools/arm-none-eabi-gcc/7-2017q4/bin/../lib/gcc/arm-none-eabi/7.2.1/../../../../arm-none-eabi/lib/thumb/v7-m/libc.a(lib_a-mallocr.o)
_start                                            /Users/lgcampos/Library/Arduino15/packages/arduino/tools/arm-none-eabi-gcc/7-2017q4/bin/../lib/gcc/arm-none-eabi/7.2.1/../../../../arm-none-eabi/lib/thumb/v7-m/crt0.o
_usart_clock_freq                                 /var/folders/hj/xvmq845d4rq0_l026j3g6x8c0000gn/T/arduino-core-cache/core_0bde13c9a0eea2bfdc716a2fc04bccd4.a(usart_private.c.o)
                                                  /var/folders/hj/xvmq845d4rq0_l026j3g6x8c0000gn/T/arduino-core-cache/core_0bde13c9a0eea2bfdc716a2fc04bccd4.a(usart_f1.c.o)
_write                                            /var/folders/hj/xvmq845d4rq0_l026j3g6x8c0000gn/T/arduino-sketch-783AC80E8B34696ACA1CC87DB6CF7DB3/core/wirish/syscalls.c.o
abort                                             /var/folders/hj/xvmq845d4rq0_l026j3g6x8c0000gn/T/arduino-core-cache/core_0bde13c9a0eea2bfdc716a2fc04bccd4.a(util.c.o)
adc1                                              /var/folders/hj/xvmq845d4rq0_l026j3g6x8c0000gn/T/arduino-core-cache/core_0bde13c9a0eea2bfdc716a2fc04bccd4.a(adc_f1.c.o)
                                                  /var/folders/hj/xvmq845d4rq0_l026j3g6x8c0000gn/T/arduino-sketch-783AC80E8B34696ACA1CC87DB6CF7DB3/core/board.cpp.o
adc2                                              /var/folders/hj/xvmq845d4rq0_l026j3g6x8c0000gn/T/arduino-core-cache/core_0bde13c9a0eea2bfdc716a2fc04bccd4.a(adc_f1.c.o)
adc_attach_interrupt                              /var/folders/hj/xvmq845d4rq0_l026j3g6x8c0000gn/T/arduino-core-cache/core_0bde13c9a0eea2bfdc716a2fc04bccd4.a(adc_f1.c.o)
adc_calibrate                                     /var/folders/hj/xvmq845d4rq0_l026j3g6x8c0000gn/T/arduino-core-cache/core_0bde13c9a0eea2bfdc716a2fc04bccd4.a(adc_f1.c.o)
adc_config_gpio                                   /var/folders/hj/xvmq845d4rq0_l026j3g6x8c0000gn/T/arduino-core-cache/core_0bde13c9a0eea2bfdc716a2fc04bccd4.a(adc_f1.c.o)
adc_enable_irq                                    /var/folders/hj/xvmq845d4rq0_l026j3g6x8c0000gn/T/arduino-core-cache/core_0bde13c9a0eea2bfdc716a2fc04bccd4.a(adc_f1.c.o)
adc_enable_single_swstart                         /var/folders/hj/xvmq845d4rq0_l026j3g6x8c0000gn/T/arduino-core-cache/core_0bde13c9a0eea2bfdc716a2fc04bccd4.a(adc_f1.c.o)
                                                  /var/folders/hj/xvmq845d4rq0_l026j3g6x8c0000gn/T/arduino-sketch-783AC80E8B34696ACA1CC87DB6CF7DB3/core/wirish/boards.cpp.o
adc_foreach                                       /var/folders/hj/xvmq845d4rq0_l026j3g6x8c0000gn/T/arduino-core-cache/core_0bde13c9a0eea2bfdc716a2fc04bccd4.a(adc_f1.c.o)
                                                  /var/folders/hj/xvmq845d4rq0_l026j3g6x8c0000gn/T/arduino-sketch-783AC80E8B34696ACA1CC87DB6CF7DB3/core/wirish/boards.cpp.o
adc_init                                          /var/folders/hj/xvmq845d4rq0_l026j3g6x8c0000gn/T/arduino-core-cache/core_0bde13c9a0eea2bfdc716a2fc04bccd4.a(adc.c.o)
                                                  /var/folders/hj/xvmq845d4rq0_l026j3g6x8c0000gn/T/arduino-core-cache/core_0bde13c9a0eea2bfdc716a2fc04bccd4.a(adc_f1.c.o)
adc_read                                          /var/folders/hj/xvmq845d4rq0_l026j3g6x8c0000gn/T/arduino-core-cache/core_0bde13c9a0eea2bfdc716a2fc04bccd4.a(adc.c.o)
adc_set_extsel                                    /var/folders/hj/xvmq845d4rq0_l026j3g6x8c0000gn/T/arduino-core-cache/core_0bde13c9a0eea2bfdc716a2fc04bccd4.a(adc.c.o)
                                                  /var/folders/hj/xvmq845d4rq0_l026j3g6x8c0000gn/T/arduino-core-cache/core_0bde13c9a0eea2bfdc716a2fc04bccd4.a(adc_f1.c.o)
adc_set_prescaler                                 /var/folders/hj/xvmq845d4rq0_l026j3g6x8c0000gn/T/arduino-core-cache/core_0bde13c9a0eea2bfdc716a2fc04bccd4.a(adc_f1.c.o)
                                                  /var/folders/hj/xvmq845d4rq0_l026j3g6x8c0000gn/T/arduino-sketch-783AC80E8B34696ACA1CC87DB6CF7DB3/core/wirish/boards.cpp.o
adc_set_sample_rate                               /var/folders/hj/xvmq845d4rq0_l026j3g6x8c0000gn/T/arduino-core-cache/core_0bde13c9a0eea2bfdc716a2fc04bccd4.a(adc.c.o)
                                                  /var/folders/hj/xvmq845d4rq0_l026j3g6x8c0000gn/T/arduino-sketch-783AC80E8B34696ACA1CC87DB6CF7DB3/core/wirish/boards.cpp.o
afio_init                                         /var/folders/hj/xvmq845d4rq0_l026j3g6x8c0000gn/T/arduino-core-cache/core_0bde13c9a0eea2bfdc716a2fc04bccd4.a(gpio_f1.c.o)
                                                  /var/folders/hj/xvmq845d4rq0_l026j3g6x8c0000gn/T/arduino-sketch-783AC80E8B34696ACA1CC87DB6CF7DB3/core/wirish/boards_setup.cpp.o
afio_remap                                        /var/folders/hj/xvmq845d4rq0_l026j3g6x8c0000gn/T/arduino-core-cache/core_0bde13c9a0eea2bfdc716a2fc04bccd4.a(gpio_f1.c.o)
                                                  /var/folders/hj/xvmq845d4rq0_l026j3g6x8c0000gn/T/arduino-core-cache/core_0bde13c9a0eea2bfdc716a2fc04bccd4.a(i2c.c.o)
                                                  /var/folders/hj/xvmq845d4rq0_l026j3g6x8c0000gn/T/arduino-core-cache/core_0bde13c9a0eea2bfdc716a2fc04bccd4.a(i2c_f1.c.o)
atexit                                            /Users/lgcampos/Library/Arduino15/packages/arduino/tools/arm-none-eabi-gcc/7-2017q4/bin/../lib/gcc/arm-none-eabi/7.2.1/../../../../arm-none-eabi/lib/thumb/v7-m/libc.a(lib_a-atexit.o)
                                                  /Users/lgcampos/Library/Arduino15/packages/arduino/tools/arm-none-eabi-gcc/7-2017q4/bin/../lib/gcc/arm-none-eabi/7.2.1/../../../../arm-none-eabi/lib/thumb/v7-m/libc.a(lib_a-__call_atexit.o)
                                                  /Users/lgcampos/Library/Arduino15/packages/arduino/tools/arm-none-eabi-gcc/7-2017q4/bin/../lib/gcc/arm-none-eabi/7.2.1/../../../../arm-none-eabi/lib/thumb/v7-m/crt0.o
bkp                                               /var/folders/hj/xvmq845d4rq0_l026j3g6x8c0000gn/T/arduino-core-cache/core_0bde13c9a0eea2bfdc716a2fc04bccd4.a(bkp_f1.c.o)
bkp_disable_writes                                /var/folders/hj/xvmq845d4rq0_l026j3g6x8c0000gn/T/arduino-core-cache/core_0bde13c9a0eea2bfdc716a2fc04bccd4.a(bkp_f1.c.o)
                                                  /var/folders/hj/xvmq845d4rq0_l026j3g6x8c0000gn/T/arduino-core-cache/core_0bde13c9a0eea2bfdc716a2fc04bccd4.a(usb_serial.cpp.o)
bkp_enable_writes                                 /var/folders/hj/xvmq845d4rq0_l026j3g6x8c0000gn/T/arduino-core-cache/core_0bde13c9a0eea2bfdc716a2fc04bccd4.a(bkp_f1.c.o)
                                                  /var/folders/hj/xvmq845d4rq0_l026j3g6x8c0000gn/T/arduino-core-cache/core_0bde13c9a0eea2bfdc716a2fc04bccd4.a(usb_serial.cpp.o)
bkp_init                                          /var/folders/hj/xvmq845d4rq0_l026j3g6x8c0000gn/T/arduino-core-cache/core_0bde13c9a0eea2bfdc716a2fc04bccd4.a(bkp_f1.c.o)
                                                  /var/folders/hj/xvmq845d4rq0_l026j3g6x8c0000gn/T/arduino-core-cache/core_0bde13c9a0eea2bfdc716a2fc04bccd4.a(usb_serial.cpp.o)
bkp_read                                          /var/folders/hj/xvmq845d4rq0_l026j3g6x8c0000gn/T/arduino-core-cache/core_0bde13c9a0eea2bfdc716a2fc04bccd4.a(bkp_f1.c.o)
bkp_write                                         /var/folders/hj/xvmq845d4rq0_l026j3g6x8c0000gn/T/arduino-core-cache/core_0bde13c9a0eea2bfdc716a2fc04bccd4.a(bkp_f1.c.o)
                                                  /var/folders/hj/xvmq845d4rq0_l026j3g6x8c0000gn/T/arduino-core-cache/core_0bde13c9a0eea2bfdc716a2fc04bccd4.a(usb_serial.cpp.o)
boardADCPins                                      /var/folders/hj/xvmq845d4rq0_l026j3g6x8c0000gn/T/arduino-sketch-783AC80E8B34696ACA1CC87DB6CF7DB3/core/board.cpp.o
boardInit()                                       /var/folders/hj/xvmq845d4rq0_l026j3g6x8c0000gn/T/arduino-sketch-783AC80E8B34696ACA1CC87DB6CF7DB3/core/board.cpp.o
boardPWMPins                                      /var/folders/hj/xvmq845d4rq0_l026j3g6x8c0000gn/T/arduino-sketch-783AC80E8B34696ACA1CC87DB6CF7DB3/core/board.cpp.o
boardUsedPins                                     /var/folders/hj/xvmq845d4rq0_l026j3g6x8c0000gn/T/arduino-sketch-783AC80E8B34696ACA1CC87DB6CF7DB3/core/board.cpp.o
                                                  /var/folders/hj/xvmq845d4rq0_l026j3g6x8c0000gn/T/arduino-sketch-783AC80E8B34696ACA1CC87DB6CF7DB3/core/wirish/boards.cpp.o
boardUsesPin(unsigned char)                       /var/folders/hj/xvmq845d4rq0_l026j3g6x8c0000gn/T/arduino-sketch-783AC80E8B34696ACA1CC87DB6CF7DB3/core/wirish/boards.cpp.o
calloc                                            /Users/lgcampos/Library/Arduino15/packages/arduino/tools/arm-none-eabi-gcc/7-2017q4/bin/../lib/gcc/arm-none-eabi/7.2.1/../../../../arm-none-eabi/lib/thumb/v7-m/libc.a(lib_a-calloc.o)
                                                  /var/folders/hj/xvmq845d4rq0_l026j3g6x8c0000gn/T/arduino-sketch-783AC80E8B34696ACA1CC87DB6CF7DB3/libraries/CorePartition/CorePartition.c.o
cgets                                             /var/folders/hj/xvmq845d4rq0_l026j3g6x8c0000gn/T/arduino-sketch-783AC80E8B34696ACA1CC87DB6CF7DB3/core/wirish/syscalls.c.o
cleanup_glue                                      /Users/lgcampos/Library/Arduino15/packages/arduino/tools/arm-none-eabi-gcc/7-2017q4/bin/../lib/gcc/arm-none-eabi/7.2.1/../../../../arm-none-eabi/lib/thumb/v7-m/libc.a(lib_a-reent.o)
delay(unsigned long)                              /var/folders/hj/xvmq845d4rq0_l026j3g6x8c0000gn/T/arduino-core-cache/core_0bde13c9a0eea2bfdc716a2fc04bccd4.a(wirish_time.cpp.o)
                                                  /var/folders/hj/xvmq845d4rq0_l026j3g6x8c0000gn/T/arduino-sketch-783AC80E8B34696ACA1CC87DB6CF7DB3/sketch/LowMemoryExample.ino.cpp.o
delayMicroseconds(unsigned long)                  /var/folders/hj/xvmq845d4rq0_l026j3g6x8c0000gn/T/arduino-core-cache/core_0bde13c9a0eea2bfdc716a2fc04bccd4.a(wirish_time.cpp.o)
dispatch_adv_brk                                  /var/folders/hj/xvmq845d4rq0_l026j3g6x8c0000gn/T/arduino-core-cache/core_0bde13c9a0eea2bfdc716a2fc04bccd4.a(timer.c.o)
dispatch_adv_cc                                   /var/folders/hj/xvmq845d4rq0_l026j3g6x8c0000gn/T/arduino-core-cache/core_0bde13c9a0eea2bfdc716a2fc04bccd4.a(timer.c.o)
dispatch_adv_trg_com                              /var/folders/hj/xvmq845d4rq0_l026j3g6x8c0000gn/T/arduino-core-cache/core_0bde13c9a0eea2bfdc716a2fc04bccd4.a(timer.c.o)
dispatch_adv_up                                   /var/folders/hj/xvmq845d4rq0_l026j3g6x8c0000gn/T/arduino-core-cache/core_0bde13c9a0eea2bfdc716a2fc04bccd4.a(timer.c.o)
dispatch_extis                                    /var/folders/hj/xvmq845d4rq0_l026j3g6x8c0000gn/T/arduino-core-cache/core_0bde13c9a0eea2bfdc716a2fc04bccd4.a(exti.c.o)
dispatch_general                                  /var/folders/hj/xvmq845d4rq0_l026j3g6x8c0000gn/T/arduino-core-cache/core_0bde13c9a0eea2bfdc716a2fc04bccd4.a(timer.c.o)
dispatch_single_exti                              /var/folders/hj/xvmq845d4rq0_l026j3g6x8c0000gn/T/arduino-core-cache/core_0bde13c9a0eea2bfdc716a2fc04bccd4.a(exti.c.o)
dispatch_single_irq                               /var/folders/hj/xvmq845d4rq0_l026j3g6x8c0000gn/T/arduino-core-cache/core_0bde13c9a0eea2bfdc716a2fc04bccd4.a(timer.c.o)
dma_attach_interrupt                              /var/folders/hj/xvmq845d4rq0_l026j3g6x8c0000gn/T/arduino-core-cache/core_0bde13c9a0eea2bfdc716a2fc04bccd4.a(dma_f1.c.o)
dma_detach_interrupt                              /var/folders/hj/xvmq845d4rq0_l026j3g6x8c0000gn/T/arduino-core-cache/core_0bde13c9a0eea2bfdc716a2fc04bccd4.a(dma_f1.c.o)
dma_disable                                       /var/folders/hj/xvmq845d4rq0_l026j3g6x8c0000gn/T/arduino-core-cache/core_0bde13c9a0eea2bfdc716a2fc04bccd4.a(dma_f1.c.o)
dma_enable                                        /var/folders/hj/xvmq845d4rq0_l026j3g6x8c0000gn/T/arduino-core-cache/core_0bde13c9a0eea2bfdc716a2fc04bccd4.a(dma_f1.c.o)
dma_get_irq_cause                                 /var/folders/hj/xvmq845d4rq0_l026j3g6x8c0000gn/T/arduino-core-cache/core_0bde13c9a0eea2bfdc716a2fc04bccd4.a(dma_f1.c.o)
dma_init                                          /var/folders/hj/xvmq845d4rq0_l026j3g6x8c0000gn/T/arduino-core-cache/core_0bde13c9a0eea2bfdc716a2fc04bccd4.a(dma.c.o)
dma_irq_handler                                   /var/folders/hj/xvmq845d4rq0_l026j3g6x8c0000gn/T/arduino-core-cache/core_0bde13c9a0eea2bfdc716a2fc04bccd4.a(dma_f1.c.o)
dma_set_mem_addr                                  /var/folders/hj/xvmq845d4rq0_l026j3g6x8c0000gn/T/arduino-core-cache/core_0bde13c9a0eea2bfdc716a2fc04bccd4.a(dma_f1.c.o)
dma_set_num_transfers                             /var/folders/hj/xvmq845d4rq0_l026j3g6x8c0000gn/T/arduino-core-cache/core_0bde13c9a0eea2bfdc716a2fc04bccd4.a(dma_f1.c.o)
dma_set_per_addr                                  /var/folders/hj/xvmq845d4rq0_l026j3g6x8c0000gn/T/arduino-core-cache/core_0bde13c9a0eea2bfdc716a2fc04bccd4.a(dma_f1.c.o)
dma_set_priority                                  /var/folders/hj/xvmq845d4rq0_l026j3g6x8c0000gn/T/arduino-core-cache/core_0bde13c9a0eea2bfdc716a2fc04bccd4.a(dma_f1.c.o)
dma_setup_transfer                                /var/folders/hj/xvmq845d4rq0_l026j3g6x8c0000gn/T/arduino-core-cache/core_0bde13c9a0eea2bfdc716a2fc04bccd4.a(dma_f1.c.o)
dma_tube_cfg                                      /var/folders/hj/xvmq845d4rq0_l026j3g6x8c0000gn/T/arduino-core-cache/core_0bde13c9a0eea2bfdc716a2fc04bccd4.a(dma_f1.c.o)
errno                                             /Users/lgcampos/Library/Arduino15/packages/arduino/tools/arm-none-eabi-gcc/7-2017q4/bin/../lib/gcc/arm-none-eabi/7.2.1/../../../../arm-none-eabi/lib/thumb/v7-m/libc.a(lib_a-reent.o)
                                                  /Users/lgcampos/Library/Arduino15/packages/arduino/tools/arm-none-eabi-gcc/7-2017q4/bin/../lib/gcc/arm-none-eabi/7.2.1/../../../../arm-none-eabi/lib/thumb/v7-m/libc.a(lib_a-sbrkr.o)
eventualThread(void*)                             /var/folders/hj/xvmq845d4rq0_l026j3g6x8c0000gn/T/arduino-sketch-783AC80E8B34696ACA1CC87DB6CF7DB3/sketch/LowMemoryExample.ino.cpp.o
exit                                              /Users/lgcampos/Library/Arduino15/packages/arduino/tools/arm-none-eabi-gcc/7-2017q4/bin/../lib/gcc/arm-none-eabi/7.2.1/../../../../arm-none-eabi/lib/thumb/v7-m/libc.a(lib_a-exit.o)
                                                  /var/folders/hj/xvmq845d4rq0_l026j3g6x8c0000gn/T/arduino-sketch-783AC80E8B34696ACA1CC87DB6CF7DB3/sketch/LowMemoryExample.ino.cpp.o
                                                  /Users/lgcampos/Library/Arduino15/packages/arduino/tools/arm-none-eabi-gcc/7-2017q4/bin/../lib/gcc/arm-none-eabi/7.2.1/../../../../arm-none-eabi/lib/thumb/v7-m/crt0.o
exti_attach_callback                              /var/folders/hj/xvmq845d4rq0_l026j3g6x8c0000gn/T/arduino-core-cache/core_0bde13c9a0eea2bfdc716a2fc04bccd4.a(exti.c.o)
exti_attach_interrupt                             /var/folders/hj/xvmq845d4rq0_l026j3g6x8c0000gn/T/arduino-core-cache/core_0bde13c9a0eea2bfdc716a2fc04bccd4.a(exti.c.o)
exti_channels                                     /var/folders/hj/xvmq845d4rq0_l026j3g6x8c0000gn/T/arduino-core-cache/core_0bde13c9a0eea2bfdc716a2fc04bccd4.a(exti.c.o)
exti_detach_interrupt                             /var/folders/hj/xvmq845d4rq0_l026j3g6x8c0000gn/T/arduino-core-cache/core_0bde13c9a0eea2bfdc716a2fc04bccd4.a(exti.c.o)
exti_do_select                                    /var/folders/hj/xvmq845d4rq0_l026j3g6x8c0000gn/T/arduino-core-cache/core_0bde13c9a0eea2bfdc716a2fc04bccd4.a(exti.c.o)
                                                  /var/folders/hj/xvmq845d4rq0_l026j3g6x8c0000gn/T/arduino-core-cache/core_0bde13c9a0eea2bfdc716a2fc04bccd4.a(exti_f1.c.o)
exti_select                                       /var/folders/hj/xvmq845d4rq0_l026j3g6x8c0000gn/T/arduino-core-cache/core_0bde13c9a0eea2bfdc716a2fc04bccd4.a(exti_f1.c.o)
                                                  /var/folders/hj/xvmq845d4rq0_l026j3g6x8c0000gn/T/arduino-core-cache/core_0bde13c9a0eea2bfdc716a2fc04bccd4.a(exti.c.o)
fgets                                             /var/folders/hj/xvmq845d4rq0_l026j3g6x8c0000gn/T/arduino-sketch-783AC80E8B34696ACA1CC87DB6CF7DB3/core/wirish/syscalls.c.o
flash_set_latency                                 /var/folders/hj/xvmq845d4rq0_l026j3g6x8c0000gn/T/arduino-core-cache/core_0bde13c9a0eea2bfdc716a2fc04bccd4.a(flash.c.o)
                                                  /var/folders/hj/xvmq845d4rq0_l026j3g6x8c0000gn/T/arduino-sketch-783AC80E8B34696ACA1CC87DB6CF7DB3/core/wirish/boards.cpp.o
free                                              /Users/lgcampos/Library/Arduino15/packages/arduino/tools/arm-none-eabi-gcc/7-2017q4/bin/../lib/gcc/arm-none-eabi/7.2.1/../../../../arm-none-eabi/lib/thumb/v7-m/libc.a(lib_a-malloc.o)
                                                  /Users/lgcampos/Library/Arduino15/packages/arduino/tools/arm-none-eabi-gcc/7-2017q4/bin/../lib/gcc/arm-none-eabi/7.2.1/../../../../arm-none-eabi/lib/thumb/v7-m/libc.a(lib_a-__call_atexit.o)
                                                  /var/folders/hj/xvmq845d4rq0_l026j3g6x8c0000gn/T/arduino-sketch-783AC80E8B34696ACA1CC87DB6CF7DB3/libraries/CorePartition/CorePartition.c.o
get_direction                                     /var/folders/hj/xvmq845d4rq0_l026j3g6x8c0000gn/T/arduino-core-cache/core_0bde13c9a0eea2bfdc716a2fc04bccd4.a(timer.c.o)
getch                                             /var/folders/hj/xvmq845d4rq0_l026j3g6x8c0000gn/T/arduino-sketch-783AC80E8B34696ACA1CC87DB6CF7DB3/core/wirish/syscalls.c.o
gpio_get_mode                                     /var/folders/hj/xvmq845d4rq0_l026j3g6x8c0000gn/T/arduino-core-cache/core_0bde13c9a0eea2bfdc716a2fc04bccd4.a(gpio_f1.c.o)
gpio_init                                         /var/folders/hj/xvmq845d4rq0_l026j3g6x8c0000gn/T/arduino-core-cache/core_0bde13c9a0eea2bfdc716a2fc04bccd4.a(gpio.c.o)
                                                  /var/folders/hj/xvmq845d4rq0_l026j3g6x8c0000gn/T/arduino-core-cache/core_0bde13c9a0eea2bfdc716a2fc04bccd4.a(gpio_f1.c.o)
gpio_init_all                                     /var/folders/hj/xvmq845d4rq0_l026j3g6x8c0000gn/T/arduino-core-cache/core_0bde13c9a0eea2bfdc716a2fc04bccd4.a(gpio_f1.c.o)
                                                  /var/folders/hj/xvmq845d4rq0_l026j3g6x8c0000gn/T/arduino-sketch-783AC80E8B34696ACA1CC87DB6CF7DB3/core/wirish/boards_setup.cpp.o
gpio_set_mode                                     /var/folders/hj/xvmq845d4rq0_l026j3g6x8c0000gn/T/arduino-core-cache/core_0bde13c9a0eea2bfdc716a2fc04bccd4.a(gpio_f1.c.o)
                                                  /var/folders/hj/xvmq845d4rq0_l026j3g6x8c0000gn/T/arduino-core-cache/core_0bde13c9a0eea2bfdc716a2fc04bccd4.a(util.c.o)
                                                  /var/folders/hj/xvmq845d4rq0_l026j3g6x8c0000gn/T/arduino-core-cache/core_0bde13c9a0eea2bfdc716a2fc04bccd4.a(usb_cdcacm.c.o)
                                                  /var/folders/hj/xvmq845d4rq0_l026j3g6x8c0000gn/T/arduino-core-cache/core_0bde13c9a0eea2bfdc716a2fc04bccd4.a(usart_f1.c.o)
                                                  /var/folders/hj/xvmq845d4rq0_l026j3g6x8c0000gn/T/arduino-core-cache/core_0bde13c9a0eea2bfdc716a2fc04bccd4.a(i2c_f1.c.o)
                                                  /var/folders/hj/xvmq845d4rq0_l026j3g6x8c0000gn/T/arduino-core-cache/core_0bde13c9a0eea2bfdc716a2fc04bccd4.a(adc_f1.c.o)
                                                  /var/folders/hj/xvmq845d4rq0_l026j3g6x8c0000gn/T/arduino-sketch-783AC80E8B34696ACA1CC87DB6CF7DB3/core/wirish/boards_setup.cpp.o
gpioa                                             /var/folders/hj/xvmq845d4rq0_l026j3g6x8c0000gn/T/arduino-core-cache/core_0bde13c9a0eea2bfdc716a2fc04bccd4.a(gpio_f1.c.o)
                                                  /var/folders/hj/xvmq845d4rq0_l026j3g6x8c0000gn/T/arduino-sketch-783AC80E8B34696ACA1CC87DB6CF7DB3/core/board.cpp.o
gpiob                                             /var/folders/hj/xvmq845d4rq0_l026j3g6x8c0000gn/T/arduino-core-cache/core_0bde13c9a0eea2bfdc716a2fc04bccd4.a(gpio_f1.c.o)
                                                  /var/folders/hj/xvmq845d4rq0_l026j3g6x8c0000gn/T/arduino-core-cache/core_0bde13c9a0eea2bfdc716a2fc04bccd4.a(i2c_f1.c.o)
                                                  /var/folders/hj/xvmq845d4rq0_l026j3g6x8c0000gn/T/arduino-sketch-783AC80E8B34696ACA1CC87DB6CF7DB3/core/board.cpp.o
gpioc                                             /var/folders/hj/xvmq845d4rq0_l026j3g6x8c0000gn/T/arduino-core-cache/core_0bde13c9a0eea2bfdc716a2fc04bccd4.a(gpio_f1.c.o)
                                                  /var/folders/hj/xvmq845d4rq0_l026j3g6x8c0000gn/T/arduino-sketch-783AC80E8B34696ACA1CC87DB6CF7DB3/core/board.cpp.o
gpiod                                             /var/folders/hj/xvmq845d4rq0_l026j3g6x8c0000gn/T/arduino-core-cache/core_0bde13c9a0eea2bfdc716a2fc04bccd4.a(gpio_f1.c.o)
hardware_init_hook                                /Users/lgcampos/Library/Arduino15/packages/arduino/tools/arm-none-eabi-gcc/7-2017q4/bin/../lib/gcc/arm-none-eabi/7.2.1/../../../../arm-none-eabi/lib/thumb/v7-m/crt0.o
i2c_bus_reset                                     /var/folders/hj/xvmq845d4rq0_l026j3g6x8c0000gn/T/arduino-core-cache/core_0bde13c9a0eea2bfdc716a2fc04bccd4.a(i2c.c.o)
i2c_config_gpios                                  /var/folders/hj/xvmq845d4rq0_l026j3g6x8c0000gn/T/arduino-core-cache/core_0bde13c9a0eea2bfdc716a2fc04bccd4.a(i2c_f1.c.o)
                                                  /var/folders/hj/xvmq845d4rq0_l026j3g6x8c0000gn/T/arduino-core-cache/core_0bde13c9a0eea2bfdc716a2fc04bccd4.a(i2c.c.o)
i2c_init                                          /var/folders/hj/xvmq845d4rq0_l026j3g6x8c0000gn/T/arduino-core-cache/core_0bde13c9a0eea2bfdc716a2fc04bccd4.a(i2c.c.o)
i2c_master_enable                                 /var/folders/hj/xvmq845d4rq0_l026j3g6x8c0000gn/T/arduino-core-cache/core_0bde13c9a0eea2bfdc716a2fc04bccd4.a(i2c.c.o)
i2c_master_release_bus                            /var/folders/hj/xvmq845d4rq0_l026j3g6x8c0000gn/T/arduino-core-cache/core_0bde13c9a0eea2bfdc716a2fc04bccd4.a(i2c_f1.c.o)
                                                  /var/folders/hj/xvmq845d4rq0_l026j3g6x8c0000gn/T/arduino-core-cache/core_0bde13c9a0eea2bfdc716a2fc04bccd4.a(i2c.c.o)
i2c_master_xfer                                   /var/folders/hj/xvmq845d4rq0_l026j3g6x8c0000gn/T/arduino-core-cache/core_0bde13c9a0eea2bfdc716a2fc04bccd4.a(i2c.c.o)
i2c_set_ccr_trise                                 /var/folders/hj/xvmq845d4rq0_l026j3g6x8c0000gn/T/arduino-core-cache/core_0bde13c9a0eea2bfdc716a2fc04bccd4.a(i2c.c.o)
i2c_slave_attach_recv_handler                     /var/folders/hj/xvmq845d4rq0_l026j3g6x8c0000gn/T/arduino-core-cache/core_0bde13c9a0eea2bfdc716a2fc04bccd4.a(i2c.c.o)
i2c_slave_attach_transmit_handler                 /var/folders/hj/xvmq845d4rq0_l026j3g6x8c0000gn/T/arduino-core-cache/core_0bde13c9a0eea2bfdc716a2fc04bccd4.a(i2c.c.o)
i2c_slave_enable                                  /var/folders/hj/xvmq845d4rq0_l026j3g6x8c0000gn/T/arduino-core-cache/core_0bde13c9a0eea2bfdc716a2fc04bccd4.a(i2c.c.o)
init()                                            /var/folders/hj/xvmq845d4rq0_l026j3g6x8c0000gn/T/arduino-sketch-783AC80E8B34696ACA1CC87DB6CF7DB3/core/wirish/boards.cpp.o
                                                  /var/folders/hj/xvmq845d4rq0_l026j3g6x8c0000gn/T/arduino-core-cache/core_0bde13c9a0eea2bfdc716a2fc04bccd4.a(main.cpp.o)
input_capture_mode                                /var/folders/hj/xvmq845d4rq0_l026j3g6x8c0000gn/T/arduino-core-cache/core_0bde13c9a0eea2bfdc716a2fc04bccd4.a(timer.c.o)
isatty                                            /var/folders/hj/xvmq845d4rq0_l026j3g6x8c0000gn/T/arduino-sketch-783AC80E8B34696ACA1CC87DB6CF7DB3/core/wirish/syscalls.c.o
jmpJoinPointer                                    /var/folders/hj/xvmq845d4rq0_l026j3g6x8c0000gn/T/arduino-sketch-783AC80E8B34696ACA1CC87DB6CF7DB3/libraries/CorePartition/CorePartition.c.o
longjmp                                           /Users/lgcampos/Library/Arduino15/packages/arduino/tools/arm-none-eabi-gcc/7-2017q4/bin/../lib/gcc/arm-none-eabi/7.2.1/../../../../arm-none-eabi/lib/thumb/v7-m/libc.a(lib_a-setjmp.o)
                                                  /var/folders/hj/xvmq845d4rq0_l026j3g6x8c0000gn/T/arduino-sketch-783AC80E8B34696ACA1CC87DB6CF7DB3/libraries/CorePartition/CorePartition.c.o
loop()                                            /var/folders/hj/xvmq845d4rq0_l026j3g6x8c0000gn/T/arduino-sketch-783AC80E8B34696ACA1CC87DB6CF7DB3/sketch/LowMemoryExample.ino.cpp.o
                                                  /var/folders/hj/xvmq845d4rq0_l026j3g6x8c0000gn/T/arduino-core-cache/core_0bde13c9a0eea2bfdc716a2fc04bccd4.a(main.cpp.o)
main                                              /var/folders/hj/xvmq845d4rq0_l026j3g6x8c0000gn/T/arduino-core-cache/core_0bde13c9a0eea2bfdc716a2fc04bccd4.a(main.cpp.o)
                                                  /var/folders/hj/xvmq845d4rq0_l026j3g6x8c0000gn/T/arduino-sketch-783AC80E8B34696ACA1CC87DB6CF7DB3/core/wirish/start_c.c.o
                                                  /Users/lgcampos/Library/Arduino15/packages/arduino/tools/arm-none-eabi-gcc/7-2017q4/bin/../lib/gcc/arm-none-eabi/7.2.1/../../../../arm-none-eabi/lib/thumb/v7-m/crt0.o
malloc                                            /Users/lgcampos/Library/Arduino15/packages/arduino/tools/arm-none-eabi-gcc/7-2017q4/bin/../lib/gcc/arm-none-eabi/7.2.1/../../../../arm-none-eabi/lib/thumb/v7-m/libc.a(lib_a-malloc.o)
                                                  /Users/lgcampos/Library/Arduino15/packages/arduino/tools/arm-none-eabi-gcc/7-2017q4/bin/../lib/gcc/arm-none-eabi/7.2.1/../../../../arm-none-eabi/lib/thumb/v7-m/libc.a(lib_a-__atexit.o)
                                                  /var/folders/hj/xvmq845d4rq0_l026j3g6x8c0000gn/T/arduino-sketch-783AC80E8B34696ACA1CC87DB6CF7DB3/libraries/CorePartition/CorePartition.c.o
memcpy                                            /Users/lgcampos/Library/Arduino15/packages/arduino/tools/arm-none-eabi-gcc/7-2017q4/bin/../lib/gcc/arm-none-eabi/7.2.1/../../../../arm-none-eabi/lib/thumb/v7-m/libc.a(lib_a-memcpy.o)
                                                  /var/folders/hj/xvmq845d4rq0_l026j3g6x8c0000gn/T/arduino-sketch-783AC80E8B34696ACA1CC87DB6CF7DB3/libraries/CorePartition/CorePartition.c.o
memset                                            /Users/lgcampos/Library/Arduino15/packages/arduino/tools/arm-none-eabi-gcc/7-2017q4/bin/../lib/gcc/arm-none-eabi/7.2.1/../../../../arm-none-eabi/lib/thumb/v7-m/libc.a(lib_a-memset.o)
                                                  /Users/lgcampos/Library/Arduino15/packages/arduino/tools/arm-none-eabi-gcc/7-2017q4/bin/../lib/gcc/arm-none-eabi/7.2.1/../../../../arm-none-eabi/lib/thumb/v7-m/libc.a(lib_a-callocr.o)
                                                  /var/folders/hj/xvmq845d4rq0_l026j3g6x8c0000gn/T/arduino-sketch-783AC80E8B34696ACA1CC87DB6CF7DB3/core/wirish/syscalls.c.o
                                                  /var/folders/hj/xvmq845d4rq0_l026j3g6x8c0000gn/T/arduino-sketch-783AC80E8B34696ACA1CC87DB6CF7DB3/core/wirish/start_c.c.o
                                                  /Users/lgcampos/Library/Arduino15/packages/arduino/tools/arm-none-eabi-gcc/7-2017q4/bin/../lib/gcc/arm-none-eabi/7.2.1/../../../../arm-none-eabi/lib/thumb/v7-m/crt0.o
nNextThread                                       /var/folders/hj/xvmq845d4rq0_l026j3g6x8c0000gn/T/arduino-sketch-783AC80E8B34696ACA1CC87DB6CF7DB3/libraries/CorePartition/CorePartition.c.o
nValues                                           /var/folders/hj/xvmq845d4rq0_l026j3g6x8c0000gn/T/arduino-sketch-783AC80E8B34696ACA1CC87DB6CF7DB3/sketch/LowMemoryExample.ino.cpp.o
nvic_init                                         /var/folders/hj/xvmq845d4rq0_l026j3g6x8c0000gn/T/arduino-core-cache/core_0bde13c9a0eea2bfdc716a2fc04bccd4.a(nvic.c.o)
                                                  /var/folders/hj/xvmq845d4rq0_l026j3g6x8c0000gn/T/arduino-sketch-783AC80E8B34696ACA1CC87DB6CF7DB3/core/wirish/boards.cpp.o
nvic_irq_set_priority                             /var/folders/hj/xvmq845d4rq0_l026j3g6x8c0000gn/T/arduino-core-cache/core_0bde13c9a0eea2bfdc716a2fc04bccd4.a(nvic.c.o)
                                                  /var/folders/hj/xvmq845d4rq0_l026j3g6x8c0000gn/T/arduino-core-cache/core_0bde13c9a0eea2bfdc716a2fc04bccd4.a(i2c_f1.c.o)
nvic_set_vector_table                             /var/folders/hj/xvmq845d4rq0_l026j3g6x8c0000gn/T/arduino-core-cache/core_0bde13c9a0eea2bfdc716a2fc04bccd4.a(nvic.c.o)
nvic_sys_reset                                    /var/folders/hj/xvmq845d4rq0_l026j3g6x8c0000gn/T/arduino-core-cache/core_0bde13c9a0eea2bfdc716a2fc04bccd4.a(nvic.c.o)
                                                  /var/folders/hj/xvmq845d4rq0_l026j3g6x8c0000gn/T/arduino-core-cache/core_0bde13c9a0eea2bfdc716a2fc04bccd4.a(usb_serial.cpp.o)
pInformation                                      /var/folders/hj/xvmq845d4rq0_l026j3g6x8c0000gn/T/arduino-core-cache/core_0bde13c9a0eea2bfdc716a2fc04bccd4.a(usb_init.c.o)
                                                  /var/folders/hj/xvmq845d4rq0_l026j3g6x8c0000gn/T/arduino-core-cache/core_0bde13c9a0eea2bfdc716a2fc04bccd4.a(usb_core.c.o)
                                                  /var/folders/hj/xvmq845d4rq0_l026j3g6x8c0000gn/T/arduino-core-cache/core_0bde13c9a0eea2bfdc716a2fc04bccd4.a(usb_cdcacm.c.o)
                                                  /var/folders/hj/xvmq845d4rq0_l026j3g6x8c0000gn/T/arduino-core-cache/core_0bde13c9a0eea2bfdc716a2fc04bccd4.a(usb.c.o)
pProperty                                         /var/folders/hj/xvmq845d4rq0_l026j3g6x8c0000gn/T/arduino-core-cache/core_0bde13c9a0eea2bfdc716a2fc04bccd4.a(usb_init.c.o)
                                                  /var/folders/hj/xvmq845d4rq0_l026j3g6x8c0000gn/T/arduino-core-cache/core_0bde13c9a0eea2bfdc716a2fc04bccd4.a(usb_core.c.o)
                                                  /var/folders/hj/xvmq845d4rq0_l026j3g6x8c0000gn/T/arduino-core-cache/core_0bde13c9a0eea2bfdc716a2fc04bccd4.a(usb_cdcacm.c.o)
                                                  /var/folders/hj/xvmq845d4rq0_l026j3g6x8c0000gn/T/arduino-core-cache/core_0bde13c9a0eea2bfdc716a2fc04bccd4.a(usb.c.o)
pUser_Standard_Requests                           /var/folders/hj/xvmq845d4rq0_l026j3g6x8c0000gn/T/arduino-core-cache/core_0bde13c9a0eea2bfdc716a2fc04bccd4.a(usb_init.c.o)
                                                  /var/folders/hj/xvmq845d4rq0_l026j3g6x8c0000gn/T/arduino-core-cache/core_0bde13c9a0eea2bfdc716a2fc04bccd4.a(usb_core.c.o)
                                                  /var/folders/hj/xvmq845d4rq0_l026j3g6x8c0000gn/T/arduino-core-cache/core_0bde13c9a0eea2bfdc716a2fc04bccd4.a(usb.c.o)
premain()                                         /var/folders/hj/xvmq845d4rq0_l026j3g6x8c0000gn/T/arduino-core-cache/core_0bde13c9a0eea2bfdc716a2fc04bccd4.a(main.cpp.o)
pszNotificationTag                                /var/folders/hj/xvmq845d4rq0_l026j3g6x8c0000gn/T/arduino-sketch-783AC80E8B34696ACA1CC87DB6CF7DB3/sketch/LowMemoryExample.ino.cpp.o
putch                                             /var/folders/hj/xvmq845d4rq0_l026j3g6x8c0000gn/T/arduino-sketch-783AC80E8B34696ACA1CC87DB6CF7DB3/core/wirish/syscalls.c.o
rand                                              /Users/lgcampos/Library/Arduino15/packages/arduino/tools/arm-none-eabi-gcc/7-2017q4/bin/../lib/gcc/arm-none-eabi/7.2.1/../../../../arm-none-eabi/lib/thumb/v7-m/libc.a(lib_a-rand.o)
rcc_clk_disable                                   /var/folders/hj/xvmq845d4rq0_l026j3g6x8c0000gn/T/arduino-core-cache/core_0bde13c9a0eea2bfdc716a2fc04bccd4.a(rcc_f1.c.o)
                                                  /var/folders/hj/xvmq845d4rq0_l026j3g6x8c0000gn/T/arduino-sketch-783AC80E8B34696ACA1CC87DB6CF7DB3/core/wirish/boards_setup.cpp.o
rcc_clk_enable                                    /var/folders/hj/xvmq845d4rq0_l026j3g6x8c0000gn/T/arduino-core-cache/core_0bde13c9a0eea2bfdc716a2fc04bccd4.a(rcc_f1.c.o)
                                                  /var/folders/hj/xvmq845d4rq0_l026j3g6x8c0000gn/T/arduino-core-cache/core_0bde13c9a0eea2bfdc716a2fc04bccd4.a(usart.c.o)
                                                  /var/folders/hj/xvmq845d4rq0_l026j3g6x8c0000gn/T/arduino-core-cache/core_0bde13c9a0eea2bfdc716a2fc04bccd4.a(i2c.c.o)
                                                  /var/folders/hj/xvmq845d4rq0_l026j3g6x8c0000gn/T/arduino-core-cache/core_0bde13c9a0eea2bfdc716a2fc04bccd4.a(gpio.c.o)
                                                  /var/folders/hj/xvmq845d4rq0_l026j3g6x8c0000gn/T/arduino-core-cache/core_0bde13c9a0eea2bfdc716a2fc04bccd4.a(dma.c.o)
                                                  /var/folders/hj/xvmq845d4rq0_l026j3g6x8c0000gn/T/arduino-core-cache/core_0bde13c9a0eea2bfdc716a2fc04bccd4.a(bkp_f1.c.o)
                                                  /var/folders/hj/xvmq845d4rq0_l026j3g6x8c0000gn/T/arduino-core-cache/core_0bde13c9a0eea2bfdc716a2fc04bccd4.a(usb.c.o)
                                                  /var/folders/hj/xvmq845d4rq0_l026j3g6x8c0000gn/T/arduino-core-cache/core_0bde13c9a0eea2bfdc716a2fc04bccd4.a(timer.c.o)
                                                  /var/folders/hj/xvmq845d4rq0_l026j3g6x8c0000gn/T/arduino-core-cache/core_0bde13c9a0eea2bfdc716a2fc04bccd4.a(gpio_f1.c.o)
                                                  /var/folders/hj/xvmq845d4rq0_l026j3g6x8c0000gn/T/arduino-core-cache/core_0bde13c9a0eea2bfdc716a2fc04bccd4.a(adc.c.o)
rcc_clk_init                                      /var/folders/hj/xvmq845d4rq0_l026j3g6x8c0000gn/T/arduino-core-cache/core_0bde13c9a0eea2bfdc716a2fc04bccd4.a(rcc_f1.c.o)
rcc_configure_pll                                 /var/folders/hj/xvmq845d4rq0_l026j3g6x8c0000gn/T/arduino-core-cache/core_0bde13c9a0eea2bfdc716a2fc04bccd4.a(rcc_f1.c.o)
                                                  /var/folders/hj/xvmq845d4rq0_l026j3g6x8c0000gn/T/arduino-sketch-783AC80E8B34696ACA1CC87DB6CF7DB3/core/wirish/boards.cpp.o
rcc_dev_clk                                       /var/folders/hj/xvmq845d4rq0_l026j3g6x8c0000gn/T/arduino-core-cache/core_0bde13c9a0eea2bfdc716a2fc04bccd4.a(rcc.c.o)
                                                  /var/folders/hj/xvmq845d4rq0_l026j3g6x8c0000gn/T/arduino-core-cache/core_0bde13c9a0eea2bfdc716a2fc04bccd4.a(usart_private.c.o)
                                                  /var/folders/hj/xvmq845d4rq0_l026j3g6x8c0000gn/T/arduino-core-cache/core_0bde13c9a0eea2bfdc716a2fc04bccd4.a(rcc_f1.c.o)
rcc_dev_table                                     /var/folders/hj/xvmq845d4rq0_l026j3g6x8c0000gn/T/arduino-core-cache/core_0bde13c9a0eea2bfdc716a2fc04bccd4.a(rcc_f1.c.o)
                                                  /var/folders/hj/xvmq845d4rq0_l026j3g6x8c0000gn/T/arduino-core-cache/core_0bde13c9a0eea2bfdc716a2fc04bccd4.a(rcc.c.o)
rcc_is_clk_on                                     /var/folders/hj/xvmq845d4rq0_l026j3g6x8c0000gn/T/arduino-core-cache/core_0bde13c9a0eea2bfdc716a2fc04bccd4.a(rcc.c.o)
rcc_is_clk_ready                                  /var/folders/hj/xvmq845d4rq0_l026j3g6x8c0000gn/T/arduino-core-cache/core_0bde13c9a0eea2bfdc716a2fc04bccd4.a(rcc.c.o)
                                                  /var/folders/hj/xvmq845d4rq0_l026j3g6x8c0000gn/T/arduino-core-cache/core_0bde13c9a0eea2bfdc716a2fc04bccd4.a(rcc_f1.c.o)
                                                  /var/folders/hj/xvmq845d4rq0_l026j3g6x8c0000gn/T/arduino-sketch-783AC80E8B34696ACA1CC87DB6CF7DB3/core/wirish/boards.cpp.o
rcc_reset_dev                                     /var/folders/hj/xvmq845d4rq0_l026j3g6x8c0000gn/T/arduino-core-cache/core_0bde13c9a0eea2bfdc716a2fc04bccd4.a(rcc_f1.c.o)
                                                  /var/folders/hj/xvmq845d4rq0_l026j3g6x8c0000gn/T/arduino-core-cache/core_0bde13c9a0eea2bfdc716a2fc04bccd4.a(i2c.c.o)
                                                  /var/folders/hj/xvmq845d4rq0_l026j3g6x8c0000gn/T/arduino-core-cache/core_0bde13c9a0eea2bfdc716a2fc04bccd4.a(gpio.c.o)
                                                  /var/folders/hj/xvmq845d4rq0_l026j3g6x8c0000gn/T/arduino-core-cache/core_0bde13c9a0eea2bfdc716a2fc04bccd4.a(bkp_f1.c.o)
                                                  /var/folders/hj/xvmq845d4rq0_l026j3g6x8c0000gn/T/arduino-core-cache/core_0bde13c9a0eea2bfdc716a2fc04bccd4.a(timer.c.o)
                                                  /var/folders/hj/xvmq845d4rq0_l026j3g6x8c0000gn/T/arduino-core-cache/core_0bde13c9a0eea2bfdc716a2fc04bccd4.a(gpio_f1.c.o)
                                                  /var/folders/hj/xvmq845d4rq0_l026j3g6x8c0000gn/T/arduino-core-cache/core_0bde13c9a0eea2bfdc716a2fc04bccd4.a(adc.c.o)
rcc_set_prescaler                                 /var/folders/hj/xvmq845d4rq0_l026j3g6x8c0000gn/T/arduino-core-cache/core_0bde13c9a0eea2bfdc716a2fc04bccd4.a(rcc_f1.c.o)
                                                  /var/folders/hj/xvmq845d4rq0_l026j3g6x8c0000gn/T/arduino-core-cache/core_0bde13c9a0eea2bfdc716a2fc04bccd4.a(adc_f1.c.o)
                                                  /var/folders/hj/xvmq845d4rq0_l026j3g6x8c0000gn/T/arduino-sketch-783AC80E8B34696ACA1CC87DB6CF7DB3/core/wirish/boards_setup.cpp.o
rcc_switch_sysclk                                 /var/folders/hj/xvmq845d4rq0_l026j3g6x8c0000gn/T/arduino-core-cache/core_0bde13c9a0eea2bfdc716a2fc04bccd4.a(rcc.c.o)
                                                  /var/folders/hj/xvmq845d4rq0_l026j3g6x8c0000gn/T/arduino-core-cache/core_0bde13c9a0eea2bfdc716a2fc04bccd4.a(rcc_f1.c.o)
                                                  /var/folders/hj/xvmq845d4rq0_l026j3g6x8c0000gn/T/arduino-sketch-783AC80E8B34696ACA1CC87DB6CF7DB3/core/wirish/boards.cpp.o
rcc_turn_off_clk                                  /var/folders/hj/xvmq845d4rq0_l026j3g6x8c0000gn/T/arduino-core-cache/core_0bde13c9a0eea2bfdc716a2fc04bccd4.a(rcc.c.o)
                                                  /var/folders/hj/xvmq845d4rq0_l026j3g6x8c0000gn/T/arduino-sketch-783AC80E8B34696ACA1CC87DB6CF7DB3/core/wirish/boards.cpp.o
rcc_turn_on_clk                                   /var/folders/hj/xvmq845d4rq0_l026j3g6x8c0000gn/T/arduino-core-cache/core_0bde13c9a0eea2bfdc716a2fc04bccd4.a(rcc.c.o)
                                                  /var/folders/hj/xvmq845d4rq0_l026j3g6x8c0000gn/T/arduino-core-cache/core_0bde13c9a0eea2bfdc716a2fc04bccd4.a(rcc_f1.c.o)
                                                  /var/folders/hj/xvmq845d4rq0_l026j3g6x8c0000gn/T/arduino-sketch-783AC80E8B34696ACA1CC87DB6CF7DB3/core/wirish/boards.cpp.o
setjmp                                            /Users/lgcampos/Library/Arduino15/packages/arduino/tools/arm-none-eabi-gcc/7-2017q4/bin/../lib/gcc/arm-none-eabi/7.2.1/../../../../arm-none-eabi/lib/thumb/v7-m/libc.a(lib_a-setjmp.o)
                                                  /var/folders/hj/xvmq845d4rq0_l026j3g6x8c0000gn/T/arduino-sketch-783AC80E8B34696ACA1CC87DB6CF7DB3/libraries/CorePartition/CorePartition.c.o
setup()                                           /var/folders/hj/xvmq845d4rq0_l026j3g6x8c0000gn/T/arduino-sketch-783AC80E8B34696ACA1CC87DB6CF7DB3/sketch/LowMemoryExample.ino.cpp.o
                                                  /var/folders/hj/xvmq845d4rq0_l026j3g6x8c0000gn/T/arduino-core-cache/core_0bde13c9a0eea2bfdc716a2fc04bccd4.a(main.cpp.o)
software_init_hook                                /Users/lgcampos/Library/Arduino15/packages/arduino/tools/arm-none-eabi-gcc/7-2017q4/bin/../lib/gcc/arm-none-eabi/7.2.1/../../../../arm-none-eabi/lib/thumb/v7-m/crt0.o
srand                                             /Users/lgcampos/Library/Arduino15/packages/arduino/tools/arm-none-eabi-gcc/7-2017q4/bin/../lib/gcc/arm-none-eabi/7.2.1/../../../../arm-none-eabi/lib/thumb/v7-m/libc.a(lib_a-rand.o)
                                                  /var/folders/hj/xvmq845d4rq0_l026j3g6x8c0000gn/T/arduino-sketch-783AC80E8B34696ACA1CC87DB6CF7DB3/libraries/CorePartition/CorePartition.c.o
start_c                                           /var/folders/hj/xvmq845d4rq0_l026j3g6x8c0000gn/T/arduino-sketch-783AC80E8B34696ACA1CC87DB6CF7DB3/core/wirish/start_c.c.o
                                                  /var/folders/hj/xvmq845d4rq0_l026j3g6x8c0000gn/T/arduino-sketch-783AC80E8B34696ACA1CC87DB6CF7DB3/core/wirish/start.S.o
strlen                                            /Users/lgcampos/Library/Arduino15/packages/arduino/tools/arm-none-eabi-gcc/7-2017q4/bin/../lib/gcc/arm-none-eabi/7.2.1/../../../../arm-none-eabi/lib/thumb/v7-m/libc.a(lib_a-strlen-stub.o)
                                                  /var/folders/hj/xvmq845d4rq0_l026j3g6x8c0000gn/T/arduino-core-cache/core_0bde13c9a0eea2bfdc716a2fc04bccd4.a(usb_serial.cpp.o)
                                                  /var/folders/hj/xvmq845d4rq0_l026j3g6x8c0000gn/T/arduino-core-cache/core_0bde13c9a0eea2bfdc716a2fc04bccd4.a(Print.cpp.o)
systick_attach_callback                           /var/folders/hj/xvmq845d4rq0_l026j3g6x8c0000gn/T/arduino-core-cache/core_0bde13c9a0eea2bfdc716a2fc04bccd4.a(systick.c.o)
systick_disable                                   /var/folders/hj/xvmq845d4rq0_l026j3g6x8c0000gn/T/arduino-core-cache/core_0bde13c9a0eea2bfdc716a2fc04bccd4.a(systick.c.o)
systick_enable                                    /var/folders/hj/xvmq845d4rq0_l026j3g6x8c0000gn/T/arduino-core-cache/core_0bde13c9a0eea2bfdc716a2fc04bccd4.a(systick.c.o)
systick_init                                      /var/folders/hj/xvmq845d4rq0_l026j3g6x8c0000gn/T/arduino-core-cache/core_0bde13c9a0eea2bfdc716a2fc04bccd4.a(systick.c.o)
                                                  /var/folders/hj/xvmq845d4rq0_l026j3g6x8c0000gn/T/arduino-sketch-783AC80E8B34696ACA1CC87DB6CF7DB3/core/wirish/boards.cpp.o
systick_uptime_millis                             /var/folders/hj/xvmq845d4rq0_l026j3g6x8c0000gn/T/arduino-core-cache/core_0bde13c9a0eea2bfdc716a2fc04bccd4.a(systick.c.o)
                                                  /var/folders/hj/xvmq845d4rq0_l026j3g6x8c0000gn/T/arduino-core-cache/core_0bde13c9a0eea2bfdc716a2fc04bccd4.a(i2c.c.o)
                                                  /var/folders/hj/xvmq845d4rq0_l026j3g6x8c0000gn/T/arduino-core-cache/core_0bde13c9a0eea2bfdc716a2fc04bccd4.a(wirish_time.cpp.o)
                                                  /var/folders/hj/xvmq845d4rq0_l026j3g6x8c0000gn/T/arduino-core-cache/core_0bde13c9a0eea2bfdc716a2fc04bccd4.a(usb_serial.cpp.o)
                                                  /var/folders/hj/xvmq845d4rq0_l026j3g6x8c0000gn/T/arduino-sketch-783AC80E8B34696ACA1CC87DB6CF7DB3/sketch/LowMemoryExample.ino.cpp.o
throb                                             /var/folders/hj/xvmq845d4rq0_l026j3g6x8c0000gn/T/arduino-core-cache/core_0bde13c9a0eea2bfdc716a2fc04bccd4.a(util.c.o)
timer1                                            /var/folders/hj/xvmq845d4rq0_l026j3g6x8c0000gn/T/arduino-core-cache/core_0bde13c9a0eea2bfdc716a2fc04bccd4.a(timer.c.o)
                                                  /var/folders/hj/xvmq845d4rq0_l026j3g6x8c0000gn/T/arduino-sketch-783AC80E8B34696ACA1CC87DB6CF7DB3/core/board.cpp.o
timer2                                            /var/folders/hj/xvmq845d4rq0_l026j3g6x8c0000gn/T/arduino-core-cache/core_0bde13c9a0eea2bfdc716a2fc04bccd4.a(timer.c.o)
                                                  /var/folders/hj/xvmq845d4rq0_l026j3g6x8c0000gn/T/arduino-sketch-783AC80E8B34696ACA1CC87DB6CF7DB3/core/board.cpp.o
timer3                                            /var/folders/hj/xvmq845d4rq0_l026j3g6x8c0000gn/T/arduino-core-cache/core_0bde13c9a0eea2bfdc716a2fc04bccd4.a(timer.c.o)
                                                  /var/folders/hj/xvmq845d4rq0_l026j3g6x8c0000gn/T/arduino-sketch-783AC80E8B34696ACA1CC87DB6CF7DB3/core/board.cpp.o
timer4                                            /var/folders/hj/xvmq845d4rq0_l026j3g6x8c0000gn/T/arduino-core-cache/core_0bde13c9a0eea2bfdc716a2fc04bccd4.a(timer.c.o)
                                                  /var/folders/hj/xvmq845d4rq0_l026j3g6x8c0000gn/T/arduino-sketch-783AC80E8B34696ACA1CC87DB6CF7DB3/core/board.cpp.o
timer_attach_interrupt                            /var/folders/hj/xvmq845d4rq0_l026j3g6x8c0000gn/T/arduino-core-cache/core_0bde13c9a0eea2bfdc716a2fc04bccd4.a(timer.c.o)
timer_detach_interrupt                            /var/folders/hj/xvmq845d4rq0_l026j3g6x8c0000gn/T/arduino-core-cache/core_0bde13c9a0eea2bfdc716a2fc04bccd4.a(timer.c.o)
timer_disable                                     /var/folders/hj/xvmq845d4rq0_l026j3g6x8c0000gn/T/arduino-core-cache/core_0bde13c9a0eea2bfdc716a2fc04bccd4.a(timer.c.o)
timer_foreach                                     /var/folders/hj/xvmq845d4rq0_l026j3g6x8c0000gn/T/arduino-core-cache/core_0bde13c9a0eea2bfdc716a2fc04bccd4.a(timer.c.o)
                                                  /var/folders/hj/xvmq845d4rq0_l026j3g6x8c0000gn/T/arduino-sketch-783AC80E8B34696ACA1CC87DB6CF7DB3/core/wirish/boards.cpp.o
timer_has_cc_channel                              /var/folders/hj/xvmq845d4rq0_l026j3g6x8c0000gn/T/arduino-core-cache/core_0bde13c9a0eea2bfdc716a2fc04bccd4.a(timer.c.o)
                                                  /var/folders/hj/xvmq845d4rq0_l026j3g6x8c0000gn/T/arduino-sketch-783AC80E8B34696ACA1CC87DB6CF7DB3/core/wirish/boards.cpp.o
timer_init                                        /var/folders/hj/xvmq845d4rq0_l026j3g6x8c0000gn/T/arduino-core-cache/core_0bde13c9a0eea2bfdc716a2fc04bccd4.a(timer.c.o)
                                                  /var/folders/hj/xvmq845d4rq0_l026j3g6x8c0000gn/T/arduino-sketch-783AC80E8B34696ACA1CC87DB6CF7DB3/core/wirish/boards.cpp.o
timer_set_mode                                    /var/folders/hj/xvmq845d4rq0_l026j3g6x8c0000gn/T/arduino-core-cache/core_0bde13c9a0eea2bfdc716a2fc04bccd4.a(timer.c.o)
                                                  /var/folders/hj/xvmq845d4rq0_l026j3g6x8c0000gn/T/arduino-core-cache/core_0bde13c9a0eea2bfdc716a2fc04bccd4.a(HardwareSerial.cpp.o)
usart_config_gpios_async                          /var/folders/hj/xvmq845d4rq0_l026j3g6x8c0000gn/T/arduino-core-cache/core_0bde13c9a0eea2bfdc716a2fc04bccd4.a(usart_f1.c.o)
                                                  /var/folders/hj/xvmq845d4rq0_l026j3g6x8c0000gn/T/arduino-core-cache/core_0bde13c9a0eea2bfdc716a2fc04bccd4.a(HardwareSerial.cpp.o)
usart_disable                                     /var/folders/hj/xvmq845d4rq0_l026j3g6x8c0000gn/T/arduino-core-cache/core_0bde13c9a0eea2bfdc716a2fc04bccd4.a(usart.c.o)
                                                  /var/folders/hj/xvmq845d4rq0_l026j3g6x8c0000gn/T/arduino-core-cache/core_0bde13c9a0eea2bfdc716a2fc04bccd4.a(HardwareSerial.cpp.o)
usart_enable                                      /var/folders/hj/xvmq845d4rq0_l026j3g6x8c0000gn/T/arduino-core-cache/core_0bde13c9a0eea2bfdc716a2fc04bccd4.a(usart.c.o)
                                                  /var/folders/hj/xvmq845d4rq0_l026j3g6x8c0000gn/T/arduino-core-cache/core_0bde13c9a0eea2bfdc716a2fc04bccd4.a(HardwareSerial.cpp.o)
usart_foreach                                     /var/folders/hj/xvmq845d4rq0_l026j3g6x8c0000gn/T/arduino-core-cache/core_0bde13c9a0eea2bfdc716a2fc04bccd4.a(usart_f1.c.o)
usart_init                                        /var/folders/hj/xvmq845d4rq0_l026j3g6x8c0000gn/T/arduino-core-cache/core_0bde13c9a0eea2bfdc716a2fc04bccd4.a(usart.c.o)
                                                  /var/folders/hj/xvmq845d4rq0_l026j3g6x8c0000gn/T/arduino-core-cache/core_0bde13c9a0eea2bfdc716a2fc04bccd4.a(HardwareSerial.cpp.o)
usart_irq                                         /var/folders/hj/xvmq845d4rq0_l026j3g6x8c0000gn/T/arduino-core-cache/core_0bde13c9a0eea2bfdc716a2fc04bccd4.a(usart_f1.c.o)
usart_putudec                                     /var/folders/hj/xvmq845d4rq0_l026j3g6x8c0000gn/T/arduino-core-cache/core_0bde13c9a0eea2bfdc716a2fc04bccd4.a(usart.c.o)
                                                  /var/folders/hj/xvmq845d4rq0_l026j3g6x8c0000gn/T/arduino-core-cache/core_0bde13c9a0eea2bfdc716a2fc04bccd4.a(util.c.o)
usart_rx                                          /var/folders/hj/xvmq845d4rq0_l026j3g6x8c0000gn/T/arduino-core-cache/core_0bde13c9a0eea2bfdc716a2fc04bccd4.a(usart.c.o)
usart_set_baud_rate                               /var/folders/hj/xvmq845d4rq0_l026j3g6x8c0000gn/T/arduino-core-cache/core_0bde13c9a0eea2bfdc716a2fc04bccd4.a(usart_f1.c.o)
                                                  /var/folders/hj/xvmq845d4rq0_l026j3g6x8c0000gn/T/arduino-core-cache/core_0bde13c9a0eea2bfdc716a2fc04bccd4.a(HardwareSerial.cpp.o)
usart_tx                                          /var/folders/hj/xvmq845d4rq0_l026j3g6x8c0000gn/T/arduino-core-cache/core_0bde13c9a0eea2bfdc716a2fc04bccd4.a(usart.c.o)
                                                  /var/folders/hj/xvmq845d4rq0_l026j3g6x8c0000gn/T/arduino-core-cache/core_0bde13c9a0eea2bfdc716a2fc04bccd4.a(HardwareSerial.cpp.o)
                                                  /var/folders/hj/xvmq845d4rq0_l026j3g6x8c0000gn/T/arduino-core-cache/core_0bde13c9a0eea2bfdc716a2fc04bccd4.a(util.c.o)
usb_cdcacm_data_available                         /var/folders/hj/xvmq845d4rq0_l026j3g6x8c0000gn/T/arduino-core-cache/core_0bde13c9a0eea2bfdc716a2fc04bccd4.a(usb_cdcacm.c.o)
                                                  /var/folders/hj/xvmq845d4rq0_l026j3g6x8c0000gn/T/arduino-core-cache/core_0bde13c9a0eea2bfdc716a2fc04bccd4.a(usb_serial.cpp.o)
usb_cdcacm_disable                                /var/folders/hj/xvmq845d4rq0_l026j3g6x8c0000gn/T/arduino-core-cache/core_0bde13c9a0eea2bfdc716a2fc04bccd4.a(usb_cdcacm.c.o)
                                                  /var/folders/hj/xvmq845d4rq0_l026j3g6x8c0000gn/T/arduino-core-cache/core_0bde13c9a0eea2bfdc716a2fc04bccd4.a(usb_serial.cpp.o)
usb_cdcacm_enable                                 /var/folders/hj/xvmq845d4rq0_l026j3g6x8c0000gn/T/arduino-core-cache/core_0bde13c9a0eea2bfdc716a2fc04bccd4.a(usb_cdcacm.c.o)
                                                  /var/folders/hj/xvmq845d4rq0_l026j3g6x8c0000gn/T/arduino-core-cache/core_0bde13c9a0eea2bfdc716a2fc04bccd4.a(usb_serial.cpp.o)
usb_cdcacm_get_baud                               /var/folders/hj/xvmq845d4rq0_l026j3g6x8c0000gn/T/arduino-core-cache/core_0bde13c9a0eea2bfdc716a2fc04bccd4.a(usb_cdcacm.c.o)
usb_cdcacm_get_dtr                                /var/folders/hj/xvmq845d4rq0_l026j3g6x8c0000gn/T/arduino-core-cache/core_0bde13c9a0eea2bfdc716a2fc04bccd4.a(usb_cdcacm.c.o)
                                                  /var/folders/hj/xvmq845d4rq0_l026j3g6x8c0000gn/T/arduino-core-cache/core_0bde13c9a0eea2bfdc716a2fc04bccd4.a(usb_serial.cpp.o)
usb_cdcacm_get_line_coding                        /var/folders/hj/xvmq845d4rq0_l026j3g6x8c0000gn/T/arduino-core-cache/core_0bde13c9a0eea2bfdc716a2fc04bccd4.a(usb_cdcacm.c.o)
usb_cdcacm_get_n_data_bits                        /var/folders/hj/xvmq845d4rq0_l026j3g6x8c0000gn/T/arduino-core-cache/core_0bde13c9a0eea2bfdc716a2fc04bccd4.a(usb_cdcacm.c.o)
usb_cdcacm_get_parity                             /var/folders/hj/xvmq845d4rq0_l026j3g6x8c0000gn/T/arduino-core-cache/core_0bde13c9a0eea2bfdc716a2fc04bccd4.a(usb_cdcacm.c.o)
usb_cdcacm_get_pending                            /var/folders/hj/xvmq845d4rq0_l026j3g6x8c0000gn/T/arduino-core-cache/core_0bde13c9a0eea2bfdc716a2fc04bccd4.a(usb_cdcacm.c.o)
                                                  /var/folders/hj/xvmq845d4rq0_l026j3g6x8c0000gn/T/arduino-core-cache/core_0bde13c9a0eea2bfdc716a2fc04bccd4.a(usb_serial.cpp.o)
usb_cdcacm_get_rts                                /var/folders/hj/xvmq845d4rq0_l026j3g6x8c0000gn/T/arduino-core-cache/core_0bde13c9a0eea2bfdc716a2fc04bccd4.a(usb_cdcacm.c.o)
                                                  /var/folders/hj/xvmq845d4rq0_l026j3g6x8c0000gn/T/arduino-core-cache/core_0bde13c9a0eea2bfdc716a2fc04bccd4.a(usb_serial.cpp.o)
usb_cdcacm_get_stop_bits                          /var/folders/hj/xvmq845d4rq0_l026j3g6x8c0000gn/T/arduino-core-cache/core_0bde13c9a0eea2bfdc716a2fc04bccd4.a(usb_cdcacm.c.o)
usb_cdcacm_is_transmitting                        /var/folders/hj/xvmq845d4rq0_l026j3g6x8c0000gn/T/arduino-core-cache/core_0bde13c9a0eea2bfdc716a2fc04bccd4.a(usb_cdcacm.c.o)
usb_cdcacm_peek                                   /var/folders/hj/xvmq845d4rq0_l026j3g6x8c0000gn/T/arduino-core-cache/core_0bde13c9a0eea2bfdc716a2fc04bccd4.a(usb_cdcacm.c.o)
                                                  /var/folders/hj/xvmq845d4rq0_l026j3g6x8c0000gn/T/arduino-core-cache/core_0bde13c9a0eea2bfdc716a2fc04bccd4.a(usb_serial.cpp.o)
usb_cdcacm_peek_char                              /var/folders/hj/xvmq845d4rq0_l026j3g6x8c0000gn/T/arduino-core-cache/core_0bde13c9a0eea2bfdc716a2fc04bccd4.a(usb_cdcacm.c.o)
usb_cdcacm_peek_ex                                /var/folders/hj/xvmq845d4rq0_l026j3g6x8c0000gn/T/arduino-core-cache/core_0bde13c9a0eea2bfdc716a2fc04bccd4.a(usb_cdcacm.c.o)
                                                  /var/folders/hj/xvmq845d4rq0_l026j3g6x8c0000gn/T/arduino-core-cache/core_0bde13c9a0eea2bfdc716a2fc04bccd4.a(usb_serial.cpp.o)
usb_cdcacm_putc                                   /var/folders/hj/xvmq845d4rq0_l026j3g6x8c0000gn/T/arduino-core-cache/core_0bde13c9a0eea2bfdc716a2fc04bccd4.a(usb_cdcacm.c.o)
usb_cdcacm_rx                                     /var/folders/hj/xvmq845d4rq0_l026j3g6x8c0000gn/T/arduino-core-cache/core_0bde13c9a0eea2bfdc716a2fc04bccd4.a(usb_cdcacm.c.o)
                                                  /var/folders/hj/xvmq845d4rq0_l026j3g6x8c0000gn/T/arduino-core-cache/core_0bde13c9a0eea2bfdc716a2fc04bccd4.a(usb_serial.cpp.o)
usb_cdcacm_set_hooks                              /var/folders/hj/xvmq845d4rq0_l026j3g6x8c0000gn/T/arduino-core-cache/core_0bde13c9a0eea2bfdc716a2fc04bccd4.a(usb_cdcacm.c.o)
                                                  /var/folders/hj/xvmq845d4rq0_l026j3g6x8c0000gn/T/arduino-core-cache/core_0bde13c9a0eea2bfdc716a2fc04bccd4.a(usb_serial.cpp.o)
usb_cdcacm_tx                                     /var/folders/hj/xvmq845d4rq0_l026j3g6x8c0000gn/T/arduino-core-cache/core_0bde13c9a0eea2bfdc716a2fc04bccd4.a(usb_cdcacm.c.o)
                                                  /var/folders/hj/xvmq845d4rq0_l026j3g6x8c0000gn/T/arduino-core-cache/core_0bde13c9a0eea2bfdc716a2fc04bccd4.a(usb_serial.cpp.o)
usb_cdcacm_tx_available                           /var/folders/hj/xvmq845d4rq0_l026j3g6x8c0000gn/T/arduino-core-cache/core_0bde13c9a0eea2bfdc716a2fc04bccd4.a(usb_cdcacm.c.o)
                                                  /var/folders/hj/xvmq845d4rq0_l026j3g6x8c0000gn/T/arduino-core-cache/core_0bde13c9a0eea2bfdc716a2fc04bccd4.a(usb_serial.cpp.o)
usb_init_usblib                                   /var/folders/hj/xvmq845d4rq0_l026j3g6x8c0000gn/T/arduino-core-cache/core_0bde13c9a0eea2bfdc716a2fc04bccd4.a(usb.c.o)
                                                  /var/folders/hj/xvmq845d4rq0_l026j3g6x8c0000gn/T/arduino-core-cache/core_0bde13c9a0eea2bfdc716a2fc04bccd4.a(usb_cdcacm.c.o)
usb_power_off                                     /var/folders/hj/xvmq845d4rq0_l026j3g6x8c0000gn/T/arduino-core-cache/core_0bde13c9a0eea2bfdc716a2fc04bccd4.a(usb.c.o)
                                                  /var/folders/hj/xvmq845d4rq0_l026j3g6x8c0000gn/T/arduino-core-cache/core_0bde13c9a0eea2bfdc716a2fc04bccd4.a(usb_cdcacm.c.o)
usb_set_ep_rx_count                               /var/folders/hj/xvmq845d4rq0_l026j3g6x8c0000gn/T/arduino-core-cache/core_0bde13c9a0eea2bfdc716a2fc04bccd4.a(usb_reg_map.c.o)
                                                  /var/folders/hj/xvmq845d4rq0_l026j3g6x8c0000gn/T/arduino-core-cache/core_0bde13c9a0eea2bfdc716a2fc04bccd4.a(usb_cdcacm.c.o)
vtable for HardwareSerial                         /var/folders/hj/xvmq845d4rq0_l026j3g6x8c0000gn/T/arduino-core-cache/core_0bde13c9a0eea2bfdc716a2fc04bccd4.a(HardwareSerial.cpp.o)
vtable for Print                                  /var/folders/hj/xvmq845d4rq0_l026j3g6x8c0000gn/T/arduino-core-cache/core_0bde13c9a0eea2bfdc716a2fc04bccd4.a(Print.cpp.o)
vtable for USBSerial                              /var/folders/hj/xvmq845d4rq0_l026j3g6x8c0000gn/T/arduino-core-cache/core_0bde13c9a0eea2bfdc716a2fc04bccd4.a(usb_serial.cpp.o)
wInterrupt_Mask                                   /var/folders/hj/xvmq845d4rq0_l026j3g6x8c0000gn/T/arduino-core-cache/core_0bde13c9a0eea2bfdc716a2fc04bccd4.a(usb_init.c.o)
wait_for_state_change                             /var/folders/hj/xvmq845d4rq0_l026j3g6x8c0000gn/T/arduino-core-cache/core_0bde13c9a0eea2bfdc716a2fc04bccd4.a(i2c.c.o)
wirish::priv::board_reset_pll()                   /var/folders/hj/xvmq845d4rq0_l026j3g6x8c0000gn/T/arduino-sketch-783AC80E8B34696ACA1CC87DB6CF7DB3/core/wirish/boards_setup.cpp.o
                                                  /var/folders/hj/xvmq845d4rq0_l026j3g6x8c0000gn/T/arduino-sketch-783AC80E8B34696ACA1CC87DB6CF7DB3/core/wirish/boards.cpp.o
wirish::priv::board_setup_clock_prescalers()      /var/folders/hj/xvmq845d4rq0_l026j3g6x8c0000gn/T/arduino-sketch-783AC80E8B34696ACA1CC87DB6CF7DB3/core/wirish/boards_setup.cpp.o
                                                  /var/folders/hj/xvmq845d4rq0_l026j3g6x8c0000gn/T/arduino-sketch-783AC80E8B34696ACA1CC87DB6CF7DB3/core/wirish/boards.cpp.o
wirish::priv::board_setup_gpio()                  /var/folders/hj/xvmq845d4rq0_l026j3g6x8c0000gn/T/arduino-sketch-783AC80E8B34696ACA1CC87DB6CF7DB3/core/wirish/boards_setup.cpp.o
                                                  /var/folders/hj/xvmq845d4rq0_l026j3g6x8c0000gn/T/arduino-sketch-783AC80E8B34696ACA1CC87DB6CF7DB3/core/wirish/boards.cpp.o
wirish::priv::board_setup_usb()                   /var/folders/hj/xvmq845d4rq0_l026j3g6x8c0000gn/T/arduino-sketch-783AC80E8B34696ACA1CC87DB6CF7DB3/core/wirish/boards_setup.cpp.o
                                                  /var/folders/hj/xvmq845d4rq0_l026j3g6x8c0000gn/T/arduino-sketch-783AC80E8B34696ACA1CC87DB6CF7DB3/core/wirish/boards.cpp.o
wirish::priv::series_init()                       /var/folders/hj/xvmq845d4rq0_l026j3g6x8c0000gn/T/arduino-sketch-783AC80E8B34696ACA1CC87DB6CF7DB3/core/wirish/boards_setup.cpp.o
                                                  /var/folders/hj/xvmq845d4rq0_l026j3g6x8c0000gn/T/arduino-sketch-783AC80E8B34696ACA1CC87DB6CF7DB3/core/wirish/boards.cpp.o
wirish::priv::w_adc_pre                           /var/folders/hj/xvmq845d4rq0_l026j3g6x8c0000gn/T/arduino-sketch-783AC80E8B34696ACA1CC87DB6CF7DB3/core/wirish/boards_setup.cpp.o
                                                  /var/folders/hj/xvmq845d4rq0_l026j3g6x8c0000gn/T/arduino-sketch-783AC80E8B34696ACA1CC87DB6CF7DB3/core/wirish/boards.cpp.o
wirish::priv::w_adc_smp                           /var/folders/hj/xvmq845d4rq0_l026j3g6x8c0000gn/T/arduino-sketch-783AC80E8B34696ACA1CC87DB6CF7DB3/core/wirish/boards_setup.cpp.o
                                                  /var/folders/hj/xvmq845d4rq0_l026j3g6x8c0000gn/T/arduino-sketch-783AC80E8B34696ACA1CC87DB6CF7DB3/core/wirish/boards.cpp.o
wirish::priv::w_board_pll_cfg                     /var/folders/hj/xvmq845d4rq0_l026j3g6x8c0000gn/T/arduino-sketch-783AC80E8B34696ACA1CC87DB6CF7DB3/core/wirish/boards_setup.cpp.o
                                                  /var/folders/hj/xvmq845d4rq0_l026j3g6x8c0000gn/T/arduino-sketch-783AC80E8B34696ACA1CC87DB6CF7DB3/core/wirish/boards.cpp.o
yield                                             /var/folders/hj/xvmq845d4rq0_l026j3g6x8c0000gn/T/arduino-core-cache/core_0bde13c9a0eea2bfdc716a2fc04bccd4.a(hooks.c.o)
                                                  /var/folders/hj/xvmq845d4rq0_l026j3g6x8c0000gn/T/arduino-core-cache/core_0bde13c9a0eea2bfdc716a2fc04bccd4.a(wirish_time.cpp.o)
